(dp0
VAUS0000289
p1
ccopy_reg
_reconstructor
p2
(cpowerplant_database
PowerPlant
p3
c__builtin__
object
p4
Ntp5
Rp6
(dp7
S'commissioning_year'
p8
NsS'coord_source'
p9
VAustralian Renewable Energy Mapping Infrastructure
p10
sS'other_fuel'
p11
c__builtin__
set
p12
((lp13
tp14
Rp15
sS'capacity'
p16
F4.0
sS'name'
p17
VTeralba
p18
sS'primary_fuel'
p19
VGas
p20
sS'url'
p21
Vhttp://services.ga.gov.au/site_3/rest/services/Electricity_Infrastructure/MapServer
p22
sS'country'
p23
VAustralia
p24
sS'generation'
p25
NsS'nat_lang'
p26
V
p27
sS'location'
p28
g2
(cpowerplant_database
LocationObject
p29
g4
Ntp30
Rp31
(dp32
S'latitude'
p33
F-32.94548999999995
sS'description'
p34
g27
sS'longitude'
p35
F151.6119070000001
sbsS'idnr'
p36
g1
sS'estimated_generation_gwh'
p37
NsS'source'
p38
g10
sS'owner'
p39
VEnviroGen Pty Ltd
p40
sS'cap_year'
p41
I2012
sS'wepp_id'
p42
g27
sbsVAUS0000288
p43
g2
(g3
g4
Ntp44
Rp45
(dp46
g8
Nsg9
g10
sg11
g12
((lp47
tp48
Rp49
sg16
F420.0
sg17
VTallawarra
p50
sg19
g20
sg21
g22
sg23
g24
sg25
Nsg26
g27
sg28
g2
(g29
g4
Ntp51
Rp52
(dp53
g33
F-34.52277799999996
sg34
g27
sg35
F150.80805600000008
sbsg36
g43
sg37
Nsg38
g10
sg39
VTRUenergy
p54
sg41
I2012
sg42
g27
sbsVAUS0000283
p55
g2
(g3
g4
Ntp56
Rp57
(dp58
g8
Nsg9
g10
sg11
g12
((lp59
tp60
Rp61
sg16
F33.6
sg17
VNymboida
p62
sg19
VHydro
p63
sg21
g22
sg23
g24
sg25
Nsg26
g27
sg28
g2
(g29
g4
Ntp64
Rp65
(dp66
g33
F-29.925737999999967
sg34
g27
sg35
F152.74170800000002
sbsg36
g55
sg37
Nsg38
g10
sg39
VEssential Energy
p67
sg41
I2012
sg42
g27
sbsVAUS0000282
p68
g2
(g3
g4
Ntp69
Rp70
(dp71
g8
Nsg9
g10
sg11
g12
((lp72
tp73
Rp74
sg16
F600.0
sg17
VMunmorah
p75
sg19
VCoal
p76
sg21
g22
sg23
g24
sg25
Nsg26
g27
sg28
g2
(g29
g4
Ntp77
Rp78
(dp79
g33
F-33.21169099999997
sg34
g27
sg35
F151.5418370000001
sbsg36
g68
sg37
Nsg38
g10
sg39
VDelta Electricity
p80
sg41
I2012
sg42
g27
sbsVAUS0000281
p81
g2
(g3
g4
Ntp82
Rp83
(dp84
g8
Nsg9
g10
sg11
g12
((lp85
tp86
Rp87
sg16
F1400.0
sg17
VMt Piper
p88
sg19
g76
sg21
g22
sg23
g24
sg25
Nsg26
g27
sg28
g2
(g29
g4
Ntp89
Rp90
(dp91
g33
F-33.35889199999997
sg34
g27
sg35
F150.03132200000005
sbsg36
g81
sg37
Nsg38
g10
sg39
VDelta
p92
sg41
I2012
sg42
g27
sbsVAUS0000280
p93
g2
(g3
g4
Ntp94
Rp95
(dp96
g8
Nsg9
g10
sg11
g12
((lp97
tp98
Rp99
sg16
F2000.0
sg17
VLiddell
p100
sg19
g76
sg21
g22
sg23
g24
sg25
Nsg26
g27
sg28
g2
(g29
g4
Ntp101
Rp102
(dp103
g33
F-32.37126699999993
sg34
g27
sg35
F150.97757000000001
sbsg36
g93
sg37
Nsg38
g10
sg39
VMacquarie Generation
p104
sg41
I2012
sg42
g27
sbsVAUS0000287
p105
g2
(g3
g4
Ntp106
Rp107
(dp108
g8
Nsg9
g10
sg11
g12
((lp109
tp110
Rp111
sg16
F7.0
sg17
VTahmoor
p112
sg19
g20
sg21
g22
sg23
g24
sg25
Nsg26
g27
sg28
g2
(g29
g4
Ntp113
Rp114
(dp115
g33
F-34.24823299999997
sg34
g27
sg35
F150.58077000000003
sbsg36
g105
sg37
Nsg38
g10
sg39
VEnviroGen Pty Ltd
p116
sg41
I2012
sg42
g27
sbsVAUS0000286
p117
g2
(g3
g4
Ntp118
Rp119
(dp120
g8
Nsg9
g10
sg11
g12
((lp121
tp122
Rp123
sg16
F170.9
sg17
VSmithfield Energy
p124
sg19
g20
sg21
g22
sg23
g24
sg25
Nsg26
g27
sg28
g2
(g29
g4
Ntp125
Rp126
(dp127
g33
F-33.85003999999998
sg34
g27
sg35
F150.94946600000003
sbsg36
g117
sg37
Nsg38
g10
sg39
VMarubeni Australia Power Services
p128
sg41
I2012
sg42
g27
sbsVAUS0000285
p129
g2
(g3
g4
Ntp130
Rp131
(dp132
g8
Nsg9
g10
sg11
g12
((lp133
tp134
Rp135
sg16
F143.8
sg17
VRedbank
p136
sg19
g76
sg21
g22
sg23
g24
sg25
Nsg26
g27
sg28
g2
(g29
g4
Ntp137
Rp138
(dp139
g33
F-32.580205999999976
sg34
g27
sg35
F151.07193600000005
sbsg36
g129
sg37
Nsg38
g10
sg39
VRedbank Energy Ltd
p140
sg41
I2012
sg42
g27
sbsVAUS0000284
p141
g2
(g3
g4
Ntp142
Rp143
(dp144
g8
Nsg9
g10
sg11
g12
((lp145
tp146
Rp147
sg16
F4.8
sg17
VOaky
p148
sg19
g63
sg21
g22
sg23
g24
sg25
Nsg26
g27
sg28
g2
(g29
g4
Ntp149
Rp150
(dp151
g33
F-30.575118999999972
sg34
g27
sg35
F152.06897000000004
sbsg36
g141
sg37
Nsg38
g10
sg39
VEssential Energy
p152
sg41
I2012
sg42
g27
sbsVAUS0000148
p153
g2
(g3
g4
Ntp154
Rp155
(dp156
g8
Nsg9
g10
sg11
g12
((lp157
tp158
Rp159
sg16
F480.0
sg17
VSwanbank B
p160
sg19
g76
sg21
g22
sg23
g24
sg25
Nsg26
g27
sg28
g2
(g29
g4
Ntp161
Rp162
(dp163
g33
F-27.660064999999975
sg34
g27
sg35
F152.81445200000007
sbsg36
g153
sg37
Nsg38
g10
sg39
VCS Energy
p164
sg41
I2012
sg42
g27
sbsVAUS0000260
p165
g2
(g3
g4
Ntp166
Rp167
(dp168
g8
Nsg9
g10
sg11
g12
((lp169
tp170
Rp171
sg16
F86.0
sg17
VWeddell
p172
sg19
g20
sg21
g22
sg23
g24
sg25
Nsg26
g27
sg28
g2
(g29
g4
Ntp173
Rp174
(dp175
g33
F-12.577195999999958
sg34
g27
sg35
F130.95022600000004
sbsg36
g165
sg37
Nsg38
g10
sg39
VNT Power and Water
p176
sg41
I2012
sg42
g27
sbsVAUS0000405
p177
g2
(g3
g4
Ntp178
Rp179
(dp180
g8
Nsg9
g10
sg11
g12
((lp181
tp182
Rp183
sg16
F1.7
sg17
VKalbarri Wind Farm
p184
sg19
VWind
p185
sg21
g22
sg23
g24
sg25
Nsg26
g27
sg28
g2
(g29
g4
Ntp186
Rp187
(dp188
g33
F-27.899498532999928
sg34
g27
sg35
F114.19455166500006
sbsg36
g177
sg37
Nsg38
g10
sg39
VVerve Energy
p189
sg41
I2012
sg42
g27
sbsVAUS0000404
p190
g2
(g3
g4
Ntp191
Rp192
(dp193
g8
Nsg9
g10
sg11
g12
((lp194
tp195
Rp196
sg16
F0.6
sg17
VKooragang
p197
sg19
g185
sg21
g22
sg23
g24
sg25
Nsg26
g27
sg28
g2
(g29
g4
Ntp198
Rp199
(dp200
g33
F-32.87728143199996
sg34
g27
sg35
F151.74776777500006
sbsg36
g190
sg37
Nsg38
g10
sg39
VAusgrid
p201
sg41
I2012
sg42
g27
sbsVAUS0000407
p202
g2
(g3
g4
Ntp203
Rp204
(dp205
g8
Nsg9
g10
sg11
g12
((lp206
tp207
Rp208
sg16
F10.8
sg17
VSavannah Nickel Mine
p209
sg19
VOil
p210
sg21
g22
sg23
g24
sg25
Nsg26
g27
sg28
g2
(g29
g4
Ntp211
Rp212
(dp213
g33
F-17.363095358999942
sg34
g27
sg35
F128.03307638
sbsg36
g202
sg37
Nsg38
g10
sg39
VContract Power
p214
sg41
I2012
sg42
g27
sbsVAUS0000406
p215
g2
(g3
g4
Ntp216
Rp217
(dp218
g8
Nsg9
g10
sg11
g12
((lp219
tp220
Rp221
sg16
F13.7
sg17
VWodgina
p222
sg19
g20
sg21
g22
sg23
g24
sg25
Nsg26
g27
sg28
g2
(g29
g4
Ntp223
Rp224
(dp225
g33
F-21.173883386999933
sg34
g27
sg35
F118.67472103500006
sbsg36
g215
sg37
Nsg38
g10
sg39
VEnergy Developments Ltd
p226
sg41
I2012
sg42
g27
sbsVAUS0000401
p227
g2
(g3
g4
Ntp228
Rp229
(dp230
g8
Nsg9
g10
sg11
g12
((lp231
tp232
Rp233
sg16
F2.8
sg17
VCharlestown Square
p234
sg19
g20
sg21
g22
sg23
g24
sg25
Nsg26
g27
sg28
g2
(g29
g4
Ntp235
Rp236
(dp237
g33
F-32.96425537599998
sg34
g27
sg35
F151.69361251600003
sbsg36
g227
sg37
Nsg38
g10
sg39
VGPT RE Limited
p238
sg41
I2012
sg42
g27
sbsVAUS0000400
p239
g2
(g3
g4
Ntp240
Rp241
(dp242
g8
Nsg9
g10
sg11
g12
((lp243
tp244
Rp245
sg16
F1.0
sg17
VBelconnen
p246
sg19
VWaste
p247
sg21
g22
sg23
g24
sg25
Nsg26
g27
sg28
g2
(g29
g4
Ntp248
Rp249
(dp250
g33
F-35.21418943599997
sg34
g27
sg35
F148.9872183870001
sbsg36
g239
sg37
Nsg38
g10
sg39
VEDL LFG ACT Pty Ltd
p251
sg41
I2012
sg42
g27
sbsVAUS0000379
p252
g2
(g3
g4
Ntp253
Rp254
(dp255
g8
Nsg9
g10
sg11
g12
((lp256
tp257
Rp258
sg16
F0.8
sg17
VArdyaloon
p259
sg19
g210
sg21
g22
sg23
g24
sg25
Nsg26
g27
sg28
g2
(g29
g4
Ntp260
Rp261
(dp262
g33
F-16.44441722099998
sg34
g27
sg35
F123.04137384300009
sbsg36
g252
sg37
Nsg38
g10
sg39
VEnergy Developments Ltd
p263
sg41
I2012
sg42
g27
sbsVAUS0000378
p264
g2
(g3
g4
Ntp265
Rp266
(dp267
g8
Nsg9
g10
sg11
g12
((lp268
tp269
Rp270
sg16
F0.7
sg17
VKalumburu
p271
sg19
g210
sg21
g22
sg23
g24
sg25
Nsg26
g27
sg28
g2
(g29
g4
Ntp272
Rp273
(dp274
g33
F-14.293855534999977
sg34
g27
sg35
F126.64395522900008
sbsg36
g264
sg37
Nsg38
g10
sg39
g27
sg41
I2012
sg42
g27
sbsVAUS0000377
p275
g2
(g3
g4
Ntp276
Rp277
(dp278
g8
Nsg9
g10
sg11
g12
((lp279
tp280
Rp281
sg16
F0.5
sg17
VTatiara Meats
p282
sg19
g210
sg21
g22
sg23
g24
sg25
Nsg26
g27
sg28
g2
(g29
g4
Ntp283
Rp284
(dp285
g33
F-36.32655638699998
sg34
g27
sg35
F140.73676935800006
sbsg36
g275
sg37
Nsg38
g10
sg39
VVibe Energy Pty Ltd
p286
sg41
I2012
sg42
g27
sbsVAUS0000140
p287
g2
(g3
g4
Ntp288
Rp289
(dp290
g8
Nsg9
g10
sg11
g12
((lp291
tp292
Rp293
sg16
F32.0
sg17
VWilmot
p294
sg19
g63
sg21
g22
sg23
g24
sg25
Nsg26
g27
sg28
g2
(g29
g4
Ntp295
Rp296
(dp297
g33
F-41.483311999999955
sg34
g27
sg35
F146.12507300000004
sbsg36
g287
sg37
Nsg38
g10
sg39
VHydro-Electric Corporation (Tasmania)
p298
sg41
I2012
sg42
g27
sbsVAUS0000375
p299
g2
(g3
g4
Ntp300
Rp301
(dp302
g8
Nsg9
g10
sg11
g12
((lp303
tp304
Rp305
sg16
F13.0
sg17
VMulgrave
p306
sg19
VBiomass
p307
sg21
g22
sg23
g24
sg25
Nsg26
g27
sg28
g2
(g29
g4
Ntp308
Rp309
(dp310
g33
F-17.09316550099993
sg34
g27
sg35
F145.78871140400008
sbsg36
g299
sg37
Nsg38
g10
sg39
VMSF Sugar
p311
sg41
I2012
sg42
g27
sbsVAUS0000374
p312
g2
(g3
g4
Ntp313
Rp314
(dp315
g8
Nsg9
g10
sg11
g12
((lp316
tp317
Rp318
sg16
F20.0
sg17
VSouth Johnstone
p319
sg19
g307
sg21
g22
sg23
g24
sg25
Nsg26
g27
sg28
g2
(g29
g4
Ntp320
Rp321
(dp322
g33
F-17.605685131999962
sg34
g27
sg35
F145.99100041600002
sbsg36
g312
sg37
Nsg38
g10
sg39
VMSF Sugar
p323
sg41
I2012
sg42
g27
sbsVAUS0000373
p324
g2
(g3
g4
Ntp325
Rp326
(dp327
g8
Nsg9
g10
sg11
g12
((lp328
tp329
Rp330
sg16
F7.0
sg17
VTableland
p331
sg19
g307
sg21
g22
sg23
g24
sg25
Nsg26
g27
sg28
g2
(g29
g4
Ntp332
Rp333
(dp334
g33
F-17.119292186999928
sg34
g27
sg35
F145.34496992100003
sbsg36
g324
sg37
Nsg38
g10
sg39
VMSF Sugar
p335
sg41
I2012
sg42
g27
sbsVAUS0000372
p336
g2
(g3
g4
Ntp337
Rp338
(dp339
g8
Nsg9
g10
sg11
g12
((lp340
tp341
Rp342
sg16
F8.0
sg17
VExmouth
p343
sg19
g20
sg21
g22
sg23
g24
sg25
Nsg26
g27
sg28
g2
(g29
g4
Ntp344
Rp345
(dp346
g33
F-21.946457949999967
sg34
g27
sg35
F114.12499812400006
sbsg36
g336
sg37
Nsg38
g10
sg39
VBurns and Roe Worley
p347
sg41
I2012
sg42
g27
sbsVAUS0000371
p348
g2
(g3
g4
Ntp349
Rp350
(dp351
g8
Nsg9
g10
sg11
g12
((lp352
tp353
Rp354
sg16
F1.5
sg17
VLaverton
p355
sg19
g210
sg21
g22
sg23
g24
sg25
Nsg26
g27
sg28
g2
(g29
g4
Ntp356
Rp357
(dp358
g33
F-28.62162366399997
sg34
g27
sg35
F122.39646804400002
sbsg36
g348
sg37
Nsg38
g10
sg39
VEnergy Developments
p359
sg41
I2012
sg42
g27
sbsVAUS0000268
p360
g2
(g3
g4
Ntp361
Rp362
(dp363
g8
Nsg9
g10
sg11
g12
((lp364
tp365
Rp366
sg16
F30.0
sg17
VBroadwater
p367
sg19
g307
sg21
g22
sg23
g24
sg25
Nsg26
g27
sg28
g2
(g29
g4
Ntp368
Rp369
(dp370
g33
F-29.01182799999998
sg34
g27
sg35
F153.43348100000003
sbsg36
g360
sg37
Nsg38
g10
sg39
VNSW Sugar Milling
p371
sg41
I2012
sg42
g27
sbsVAUS0000179
p372
g2
(g3
g4
Ntp373
Rp374
(dp375
g8
Nsg9
g10
sg11
g12
((lp376
tp377
Rp378
sg16
F190.0
sg17
VCollinsville
p379
sg19
g76
sg21
g22
sg23
g24
sg25
Nsg26
g27
sg28
g2
(g29
g4
Ntp380
Rp381
(dp382
g33
F-20.544681999999966
sg34
g27
sg35
F147.80488700000012
sbsg36
g372
sg37
Nsg38
g10
sg39
VRATCH Australia
p383
sg41
I2012
sg42
g27
sbsVAUS0000178
p384
g2
(g3
g4
Ntp385
Rp386
(dp387
g8
Nsg9
g10
sg11
g12
((lp388
tp389
Rp390
sg16
F120.0
sg17
VCallide A
p391
sg19
g76
sg21
g22
sg23
g24
sg25
Nsg26
g27
sg28
g2
(g29
g4
Ntp392
Rp393
(dp394
g33
F-24.33402499999994
sg34
g27
sg35
F150.6279730000001
sbsg36
g384
sg37
Nsg38
g10
sg39
VCS Energy
p395
sg41
I2012
sg42
g27
sbsVAUS0000274
p396
g2
(g3
g4
Ntp397
Rp398
(dp399
g8
Nsg9
g10
sg11
g12
((lp400
tp401
Rp402
sg16
F20.0
sg17
VGadara
p403
sg19
g307
sg21
g22
sg23
g24
sg25
Nsg26
g27
sg28
g2
(g29
g4
Ntp404
Rp405
(dp406
g33
F-35.295932999999934
sg34
g27
sg35
F148.13705200000004
sbsg36
g396
sg37
Nsg38
g10
sg39
VVisy Pulp & Paper
p407
sg41
I2012
sg42
g27
sbsVAUS0000275
p408
g2
(g3
g4
Ntp409
Rp410
(dp411
g8
Nsg9
g10
sg11
g12
((lp412
tp413
Rp414
sg16
F5.0
sg17
VGlenbawn
p415
sg19
g63
sg21
g22
sg23
g24
sg25
Nsg26
g27
sg28
g2
(g29
g4
Ntp416
Rp417
(dp418
g33
F-32.10966099999996
sg34
g27
sg35
F150.9981540000001
sbsg36
g408
sg37
Nsg38
g10
sg39
VAGL Energy Pty Ltd
p419
sg41
I2012
sg42
g27
sbsVAUS0000272
p420
g2
(g3
g4
Ntp421
Rp422
(dp423
g8
Nsg9
g10
sg11
g12
((lp424
tp425
Rp426
sg16
F3.9
sg17
VEarthPower Biomass Plant
p427
sg19
g247
sg21
g22
sg23
g24
sg25
Nsg26
g27
sg28
g2
(g29
g4
Ntp428
Rp429
(dp430
g33
F-33.82037299999996
sg34
g27
sg35
F151.04203700000005
sbsg36
g420
sg37
Nsg38
g10
sg39
VEarthpower Technologies Sydney Pty Ltd
p431
sg41
I2012
sg42
g27
sbsVAUS0000273
p432
g2
(g3
g4
Ntp433
Rp434
(dp435
g8
Nsg9
g10
sg11
g12
((lp436
tp437
Rp438
sg16
F42.0
sg17
VEraring
p439
sg19
g210
sg21
g22
sg23
g24
sg25
Nsg26
g27
sg28
g2
(g29
g4
Ntp440
Rp441
(dp442
g33
F-33.06174875299996
sg34
g27
sg35
F151.5223300680001
sbsg36
g432
sg37
Nsg38
g10
sg39
VEraring Energy
p443
sg41
I2012
sg42
g27
sbsVAUS0000270
p444
g2
(g3
g4
Ntp445
Rp446
(dp447
g8
Nsg9
g10
sg11
g12
((lp448
tp449
Rp450
sg16
F300.0
sg17
VCapral (Aluminium Smelter)
p451
sg19
g20
sg21
g22
sg23
g24
sg25
Nsg26
g27
sg28
g2
(g29
g4
Ntp452
Rp453
(dp454
g33
F-32.78972299999998
sg34
g27
sg35
F151.48130500000002
sbsg36
g444
sg37
Nsg38
g10
sg39
VCapral Ltd
p455
sg41
I2012
sg42
g27
sbsVAUS0000271
p456
g2
(g3
g4
Ntp457
Rp458
(dp459
g8
Nsg9
g10
sg11
g12
((lp460
tp461
Rp462
sg16
F724.0
sg17
VColongra
p463
sg19
g20
sg21
g22
sg23
g24
sg25
Nsg26
g27
sg28
g2
(g29
g4
Ntp464
Rp465
(dp466
g33
F-33.20986899999997
sg34
g27
sg35
F151.54478500000005
sbsg36
g456
sg37
Nsg38
g10
sg39
VDelta Electricity
p467
sg41
I2012
sg42
g27
sbsVAUS0000171
p468
g2
(g3
g4
Ntp469
Rp470
(dp471
g8
Nsg9
g10
sg11
g12
((lp472
tp473
Rp474
sg16
F1400.0
sg17
VTarong
p475
sg19
g76
sg21
g22
sg23
g24
sg25
Nsg26
g27
sg28
g2
(g29
g4
Ntp476
Rp477
(dp478
g33
F-26.78235799999993
sg34
g27
sg35
F151.91527300000007
sbsg36
g468
sg37
Nsg38
g10
sg39
VStanwell Corporation Ltd
p479
sg41
I2012
sg42
g27
sbsVAUS0000170
p480
g2
(g3
g4
Ntp481
Rp482
(dp483
g8
Nsg9
g10
sg11
g12
((lp484
tp485
Rp486
sg16
F450.0
sg17
VTarong North
p487
sg19
g76
sg21
g22
sg23
g24
sg25
Nsg26
g27
sg28
g2
(g29
g4
Ntp488
Rp489
(dp490
g33
F-26.775762999999984
sg34
g27
sg35
F151.91460200000006
sbsg36
g480
sg37
Nsg38
g10
sg39
VTarong Energy Corporation
p491
sg41
I2012
sg42
g27
sbsVAUS0000173
p492
g2
(g3
g4
Ntp493
Rp494
(dp495
g8
Nsg9
g10
sg11
g12
((lp496
tp497
Rp498
sg16
F154.0
sg17
VYarwun
p499
sg19
g20
sg21
g22
sg23
g24
sg25
Nsg26
g27
sg28
g2
(g29
g4
Ntp500
Rp501
(dp502
g33
F-23.830644999999947
sg34
g27
sg35
F151.1519300000001
sbsg36
g492
sg37
Nsg38
g10
sg39
VRio Tinto Australia - Yarwun Pty Ltd
p503
sg41
I2012
sg42
g27
sbsVAUS0000172
p504
g2
(g3
g4
Ntp505
Rp506
(dp507
g8
Nsg9
g10
sg11
g12
((lp508
tp509
Rp510
sg16
F244.0
sg17
VYabulu
p511
sg19
g20
sg21
g22
sg23
g24
sg25
Nsg26
g27
sg28
g2
(g29
g4
Ntp512
Rp513
(dp514
g33
F-19.201055999999937
sg34
g27
sg35
F146.6187070000001
sbsg36
g504
sg37
Nsg38
g10
sg39
VRATCH Australia
p515
sg41
I2012
sg42
g27
sbsVAUS0000175
p516
g2
(g3
g4
Ntp517
Rp518
(dp519
g8
Nsg9
g10
sg11
g12
((lp520
tp521
Rp522
sg16
F24.0
sg17
VVictoria Sugar Mill
p523
sg19
g307
sg21
g22
sg23
g24
sg25
Nsg26
g27
sg28
g2
(g29
g4
Ntp524
Rp525
(dp526
g33
F-18.650803999999937
sg34
g27
sg35
F146.20162700000003
sbsg36
g516
sg37
Nsg38
g10
sg39
VSucrogen Pty ltd
p527
sg41
I2012
sg42
g27
sbsVAUS0000174
p528
g2
(g3
g4
Ntp529
Rp530
(dp531
g8
Nsg9
g10
sg11
g12
((lp532
tp533
Rp534
sg16
F8.0
sg17
VMacknade Sugar Mill
p535
sg19
g307
sg21
g22
sg23
g24
sg25
Nsg26
g27
sg28
g2
(g29
g4
Ntp536
Rp537
(dp538
g33
F-18.589042999999947
sg34
g27
sg35
F146.25796100000002
sbsg36
g528
sg37
Nsg38
g10
sg39
VSucrogen (Herbert) Pty ltd
p539
sg41
I2012
sg42
g27
sbsVAUS0000278
p540
g2
(g3
g4
Ntp541
Rp542
(dp543
g8
Nsg9
g10
sg11
g12
((lp544
tp545
Rp546
sg16
F50.0
sg17
VHunter Valley
p547
sg19
g20
sg21
g22
sg23
g24
sg25
Nsg26
g27
sg28
g2
(g29
g4
Ntp548
Rp549
(dp550
g33
F-32.38925299999994
sg34
g27
sg35
F150.96639600000003
sbsg36
g540
sg37
Nsg38
g10
sg39
VMacquarie Generation
p551
sg41
I2012
sg42
g27
sbsVAUS0000279
p552
g2
(g3
g4
Ntp553
Rp554
(dp555
g8
Nsg9
g10
sg11
g12
((lp556
tp557
Rp558
sg16
F160.0
sg17
VKangaroo Valley (Shoalhaven Scheme)
p559
sg19
g63
sg21
g22
sg23
g24
sg25
Nsg26
g27
sg28
g2
(g29
g4
Ntp560
Rp561
(dp562
g33
F-34.722969999999975
sg34
g27
sg35
F150.47953000000007
sbsg36
g552
sg37
Nsg38
g10
sg39
VEraring Energy
p563
sg41
I2012
sg42
g27
sbsVAUS0000308
p564
g2
(g3
g4
Ntp565
Rp566
(dp567
g8
Nsg9
g10
sg11
g12
((lp568
tp569
Rp570
sg16
F54.5
sg17
VMaryvale Mill
p571
sg19
g307
sg21
g22
sg23
g24
sg25
Nsg26
g27
sg28
g2
(g29
g4
Ntp572
Rp573
(dp574
g33
F-38.18089277399997
sg34
g27
sg35
F146.44794631700006
sbsg36
g564
sg37
Nsg38
g10
sg39
VAustralian Paper
p575
sg41
I2012
sg42
g27
sbsVAUS0000309
p576
g2
(g3
g4
Ntp577
Rp578
(dp579
g8
Nsg9
g10
sg11
g12
((lp580
tp581
Rp582
sg16
F13.8
sg17
VGrasmere Wind Farm (Albany stage II)
p583
sg19
g185
sg21
g22
sg23
g24
sg25
Nsg26
g27
sg28
g2
(g29
g4
Ntp584
Rp585
(dp586
g33
F-35.05065051599996
sg34
g27
sg35
F117.76376090400004
sbsg36
g576
sg37
Nsg38
g10
sg39
VVerve Energy
p587
sg41
I2012
sg42
g27
sbsVAUS0000302
p588
g2
(g3
g4
Ntp589
Rp590
(dp591
g8
Nsg9
g10
sg11
g12
((lp592
tp593
Rp594
sg16
F16.0
sg17
VWilga Park
p595
sg19
g20
sg21
g22
sg23
g24
sg25
Nsg26
g27
sg28
g2
(g29
g4
Ntp596
Rp597
(dp598
g33
F-30.363436999999976
sg34
g27
sg35
F149.6771530000001
sbsg36
g588
sg37
Nsg38
g10
sg39
VSantos
p599
sg41
I2012
sg42
g27
sbsVAUS0000303
p600
g2
(g3
g4
Ntp601
Rp602
(dp603
g8
Nsg9
g10
sg11
g12
((lp604
tp605
Rp606
sg16
F60.0
sg17
VGuthega
p607
sg19
g63
sg21
g22
sg23
g24
sg25
Nsg26
g27
sg28
g2
(g29
g4
Ntp608
Rp609
(dp610
g33
F-36.350097999999946
sg34
g27
sg35
F148.41352800000004
sbsg36
g600
sg37
Nsg38
g10
sg39
VSnowy Hydro Ltd
p611
sg41
I2012
sg42
g27
sbsVAUS0000300
p612
g2
(g3
g4
Ntp613
Rp614
(dp615
g8
Nsg9
g10
sg11
g12
((lp616
tp617
Rp618
sg16
F18.0
sg17
VBurrendong
p619
sg19
g63
sg21
g22
sg23
g24
sg25
Nsg26
g27
sg28
g2
(g29
g4
Ntp620
Rp621
(dp622
g33
F-32.66461599999997
sg34
g27
sg35
F149.1079860000001
sbsg36
g612
sg37
Nsg38
g10
sg39
VAGL Energy Pty Ltd
p623
sg41
I2012
sg42
g27
sbsVAUS0000301
p624
g2
(g3
g4
Ntp625
Rp626
(dp627
g8
Nsg9
g10
sg11
g12
((lp628
tp629
Rp630
sg16
F20.0
sg17
VCopeton
p631
sg19
g63
sg21
g22
sg23
g24
sg25
Nsg26
g27
sg28
g2
(g29
g4
Ntp632
Rp633
(dp634
g33
F-29.91019799999998
sg34
g27
sg35
F150.9234620000001
sbsg36
g624
sg37
Nsg38
g10
sg39
VAGL Energy Pty Ltd
p635
sg41
I2012
sg42
g27
sbsVAUS0000306
p636
g2
(g3
g4
Ntp637
Rp638
(dp639
g8
Nsg9
g10
sg11
g12
((lp640
tp641
Rp642
sg16
F2820.0
sg17
VEraring
p643
sg19
g76
sg21
g22
sg23
g24
sg25
Nsg26
g27
sg28
g2
(g29
g4
Ntp644
Rp645
(dp646
g33
F-33.062074923999944
sg34
g27
sg35
F151.52064791500004
sbsg36
g636
sg37
Nsg38
g10
sg39
VOrigin Energy
p647
sg41
I2012
sg42
g27
sbsVAUS0000307
p648
g2
(g3
g4
Ntp649
Rp650
(dp651
g8
Nsg9
g10
sg11
g12
((lp652
tp653
Rp654
sg16
F206.0
sg17
VCollgar Wind Farm
p655
sg19
g185
sg21
g22
sg23
g24
sg25
Nsg26
g27
sg28
g2
(g29
g4
Ntp656
Rp657
(dp658
g33
F-31.50015284699998
sg34
g27
sg35
F118.46325039700002
sbsg36
g648
sg37
Nsg38
g10
sg39
VUBS IIT/ REST
p659
sg41
I2012
sg42
g27
sbsVAUS0000304
p660
g2
(g3
g4
Ntp661
Rp662
(dp663
g8
Nsg9
g10
sg11
g12
((lp664
tp665
Rp666
sg16
F6.5
sg17
VLake Keepit
p667
sg19
g63
sg21
g22
sg23
g24
sg25
Nsg26
g27
sg28
g2
(g29
g4
Ntp668
Rp669
(dp670
g33
F-30.87918899999994
sg34
g27
sg35
F150.49139900000011
sbsg36
g660
sg37
Nsg38
g10
sg39
VCountry Energy
p671
sg41
I2012
sg42
g27
sbsVAUS0000305
p672
g2
(g3
g4
Ntp673
Rp674
(dp675
g8
Nsg9
g10
sg11
g12
((lp676
tp677
Rp678
sg16
F50.0
sg17
VBroken Hill
p679
sg19
g20
sg21
g22
sg23
g24
sg25
Nsg26
g27
sg28
g2
(g29
g4
Ntp680
Rp681
(dp682
g33
F-31.98629599999998
sg34
g27
sg35
F141.42033400000003
sbsg36
g672
sg37
Nsg38
g10
sg39
VEssential Energy
p683
sg41
I2012
sg42
g27
sbsVAUS0000001
p684
g2
(g3
g4
Ntp685
Rp686
(dp687
g8
Nsg9
g10
sg11
g12
((lp688
tp689
Rp690
sg16
F12.0
sg17
VWonthaggi Wind Farm
p691
sg19
g185
sg21
g22
sg23
g24
sg25
Nsg26
g27
sg28
g2
(g29
g4
Ntp692
Rp693
(dp694
g33
F-38.60373599999997
sg34
g27
sg35
F145.54616700000008
sbsg36
g684
sg37
Nsg38
g10
sg39
VOrigin Energy
p695
sg41
I2012
sg42
g27
sbsVAUS0000003
p696
g2
(g3
g4
Ntp697
Rp698
(dp699
g8
Nsg9
g10
sg11
g12
((lp700
tp701
Rp702
sg16
F30.0
sg17
VCullerin Range Wind Farm
p703
sg19
g185
sg21
g22
sg23
g24
sg25
Nsg26
g27
sg28
g2
(g29
g4
Ntp704
Rp705
(dp706
g33
F-34.80498161999998
sg34
g27
sg35
F149.4001295820001
sbsg36
g696
sg37
Nsg38
g10
sg39
VOrigin Energy
p707
sg41
I2012
sg42
g27
sbsVAUS0000002
p708
g2
(g3
g4
Ntp709
Rp710
(dp711
g8
Nsg9
g10
sg11
g12
((lp712
tp713
Rp714
sg16
F89.1
sg17
VWalkaway Wind Farm
p715
sg19
g185
sg21
g22
sg23
g24
sg25
Nsg26
g27
sg28
g2
(g29
g4
Ntp716
Rp717
(dp718
g33
F-28.92285099999998
sg34
g27
sg35
F114.92815850000011
sbsg36
g708
sg37
Nsg38
g10
sg39
VInfigen Energy Pty Ltd
p719
sg41
I2012
sg42
g27
sbsVAUS0000005
p720
g2
(g3
g4
Ntp721
Rp722
(dp723
g8
Nsg9
g10
sg11
g12
((lp724
tp725
Rp726
sg16
F98.7
sg17
VSnowtown Wind Farm Stage 1
p727
sg19
g185
sg21
g22
sg23
g24
sg25
Nsg26
g27
sg28
g2
(g29
g4
Ntp728
Rp729
(dp730
g33
F-33.72151999999994
sg34
g27
sg35
F138.14708800000005
sbsg36
g720
sg37
Nsg38
g10
sg39
VTrustPower Ltd
p731
sg41
I2012
sg42
g27
sbsVAUS0000004
p732
g2
(g3
g4
Ntp733
Rp734
(dp735
g8
Nsg9
g10
sg11
g12
((lp736
tp737
Rp738
sg16
F90.75
sg17
VWattle Point Wind Farm
p739
sg19
g185
sg21
g22
sg23
g24
sg25
Nsg26
g27
sg28
g2
(g29
g4
Ntp740
Rp741
(dp742
g33
F-35.12135499999994
sg34
g27
sg35
F137.71661800000004
sbsg36
g732
sg37
Nsg38
g10
sg39
VANZ Energy Infrastructure Trust
p743
sg41
I2012
sg42
g27
sbsVAUS0000007
p744
g2
(g3
g4
Ntp745
Rp746
(dp747
g8
Nsg9
g10
sg11
g12
((lp748
tp749
Rp750
sg16
F58.0
sg17
VCape Bridgewater Wind Farm
p751
sg19
g185
sg21
g22
sg23
g24
sg25
Nsg26
g27
sg28
g2
(g29
g4
Ntp752
Rp753
(dp754
g33
F-38.357654999999966
sg34
g27
sg35
F141.3850440000001
sbsg36
g744
sg37
Nsg38
g10
sg39
VPacific Hydro Pty Ltd
p755
sg41
I2012
sg42
g27
sbsVAUS0000006
p756
g2
(g3
g4
Ntp757
Rp758
(dp759
g8
Nsg9
g10
sg11
g12
((lp760
tp761
Rp762
sg16
F52.5
sg17
VChallicum Hills Wind Farm
p763
sg19
g185
sg21
g22
sg23
g24
sg25
Nsg26
g27
sg28
g2
(g29
g4
Ntp764
Rp765
(dp766
g33
F-37.38978902399998
sg34
g27
sg35
F143.11397110200005
sbsg36
g756
sg37
Nsg38
g10
sg39
VPacific Hydro Pty Ltd
p767
sg41
I2012
sg42
g27
sbsVAUS0000009
p768
g2
(g3
g4
Ntp769
Rp770
(dp771
g8
Nsg9
g10
sg11
g12
((lp772
tp773
Rp774
sg16
F65.0
sg17
VBluff Point (Woolnorth) Wind Farm
p775
sg19
g185
sg21
g22
sg23
g24
sg25
Nsg26
g27
sg28
g2
(g29
g4
Ntp776
Rp777
(dp778
g33
F-40.720673999999974
sg34
g27
sg35
F144.6869190000001
sbsg36
g768
sg37
Nsg38
g10
sg39
VHydro-Electric Corporation (Tasmania)
p779
sg41
I2012
sg42
g27
sbsVAUS0000008
p780
g2
(g3
g4
Ntp781
Rp782
(dp783
g8
Nsg9
g10
sg11
g12
((lp784
tp785
Rp786
sg16
F55.0
sg17
VBarcaldine (Len Wishaw)
p787
sg19
g20
sg21
g22
sg23
g24
sg25
Nsg26
g27
sg28
g2
(g29
g4
Ntp788
Rp789
(dp790
g33
F-23.55245199999996
sg34
g27
sg35
F145.31418600000006
sbsg36
g780
sg37
Nsg38
g10
sg39
VErgon Energy Qld Pty Ltd
p791
sg41
I2012
sg42
g27
sbsVAUS0000119
p792
g2
(g3
g4
Ntp793
Rp794
(dp795
g8
Nsg9
g10
sg11
g12
((lp796
tp797
Rp798
sg16
F90.0
sg17
VTarraleah
p799
sg19
g63
sg21
g22
sg23
g24
sg25
Nsg26
g27
sg28
g2
(g29
g4
Ntp800
Rp801
(dp802
g33
F-42.301207999999974
sg34
g27
sg35
F146.45715600000005
sbsg36
g792
sg37
Nsg38
g10
sg39
VHydro-Electric Corporation (Tasmania)
p803
sg41
I2012
sg42
g27
sbsVAUS0000029
p804
g2
(g3
g4
Ntp805
Rp806
(dp807
g8
Nsg9
g10
sg11
g12
((lp808
tp809
Rp810
sg16
F4.3
sg17
VWoodlawn Bioreactor
p811
sg19
g247
sg21
g22
sg23
g24
sg25
Nsg26
g27
sg28
g2
(g29
g4
Ntp812
Rp813
(dp814
g33
F-35.05900245999993
sg34
g27
sg35
F149.5769049710001
sbsg36
g804
sg37
Nsg38
g10
sg39
VVeolia Environmental Services (Aust) Pty Ltd
p815
sg41
I2012
sg42
g27
sbsVAUS0000135
p816
g2
(g3
g4
Ntp817
Rp818
(dp819
g8
Nsg9
g10
sg11
g12
((lp820
tp821
Rp822
sg16
F46.0
sg17
VFisher
p823
sg19
g63
sg21
g22
sg23
g24
sg25
Nsg26
g27
sg28
g2
(g29
g4
Ntp824
Rp825
(dp826
g33
F-41.673239999999964
sg34
g27
sg35
F146.26851800000009
sbsg36
g816
sg37
Nsg38
g10
sg39
VHydro-Electric Corporation (Tasmania)
p827
sg41
I2012
sg42
g27
sbsVAUS0000134
p828
g2
(g3
g4
Ntp829
Rp830
(dp831
g8
Nsg9
g10
sg11
g12
((lp832
tp833
Rp834
sg16
F143.0
sg17
VJohn Butters
p835
sg19
g63
sg21
g22
sg23
g24
sg25
Nsg26
g27
sg28
g2
(g29
g4
Ntp836
Rp837
(dp838
g33
F-42.154834999999935
sg34
g27
sg35
F145.53447700000004
sbsg36
g828
sg37
Nsg38
g10
sg39
VHydro-Electric Corporation (Tasmania)
p839
sg41
I2012
sg42
g27
sbsVAUS0000137
p840
g2
(g3
g4
Ntp841
Rp842
(dp843
g8
Nsg9
g10
sg11
g12
((lp844
tp845
Rp846
sg16
F79.9
sg17
VBastyan
p847
sg19
g63
sg21
g22
sg23
g24
sg25
Nsg26
g27
sg28
g2
(g29
g4
Ntp848
Rp849
(dp850
g33
F-41.735982999999976
sg34
g27
sg35
F145.5321120000001
sbsg36
g840
sg37
Nsg38
g10
sg39
VHydro-Electric Corporation (Tasmania)
p851
sg41
I2012
sg42
g27
sbsVAUS0000136
p852
g2
(g3
g4
Ntp853
Rp854
(dp855
g8
Nsg9
g10
sg11
g12
((lp856
tp857
Rp858
sg16
F63.0
sg17
VDevils Gate
p859
sg19
g63
sg21
g22
sg23
g24
sg25
Nsg26
g27
sg28
g2
(g29
g4
Ntp860
Rp861
(dp862
g33
F-41.35046699999998
sg34
g27
sg35
F146.26316700000007
sbsg36
g852
sg37
Nsg38
g10
sg39
VHydro-Electric Corporation (Tasmania)
p863
sg41
I2012
sg42
g27
sbsVAUS0000131
p864
g2
(g3
g4
Ntp865
Rp866
(dp867
g8
Nsg9
g10
sg11
g12
((lp868
tp869
Rp870
sg16
F3.2
sg17
VLower Lake Margaret
p871
sg19
g63
sg21
g22
sg23
g24
sg25
Nsg26
g27
sg28
g2
(g29
g4
Ntp872
Rp873
(dp874
g33
F-42.01888399999996
sg34
g27
sg35
F145.54249800000002
sbsg36
g864
sg37
Nsg38
g10
sg39
VHydro-Electric Corporation (Tasmania)
p875
sg41
I2012
sg42
g27
sbsVAUS0000130
p876
g2
(g3
g4
Ntp877
Rp878
(dp879
g8
Nsg9
g10
sg11
g12
((lp880
tp881
Rp882
sg16
F30.0
sg17
VPaloona
p883
sg19
g63
sg21
g22
sg23
g24
sg25
Nsg26
g27
sg28
g2
(g29
g4
Ntp884
Rp885
(dp886
g33
F-41.28261599999996
sg34
g27
sg35
F146.24896400000011
sbsg36
g876
sg37
Nsg38
g10
sg39
VHydro-Electric Corporation (Tasmania)
p887
sg41
I2012
sg42
g27
sbsVAUS0000133
p888
g2
(g3
g4
Ntp889
Rp890
(dp891
g8
Nsg9
g10
sg11
g12
((lp892
tp893
Rp894
sg16
F8.4
sg17
VUpper Lake Margaret
p895
sg19
g63
sg21
g22
sg23
g24
sg25
Nsg26
g27
sg28
g2
(g29
g4
Ntp896
Rp897
(dp898
g33
F-42.00456699999995
sg34
g27
sg35
F145.54369900000006
sbsg36
g888
sg37
Nsg38
g10
sg39
VHydro-Electric Corporation (Tasmania)
p899
sg41
I2012
sg42
g27
sbsVAUS0000132
p900
g2
(g3
g4
Ntp901
Rp902
(dp903
g8
Nsg9
g10
sg11
g12
((lp904
tp905
Rp906
sg16
F54.0
sg17
VLemonthyme
p907
sg19
g63
sg21
g22
sg23
g24
sg25
Nsg26
g27
sg28
g2
(g29
g4
Ntp908
Rp909
(dp910
g33
F-41.60376299999996
sg34
g27
sg35
F146.13902200000007
sbsg36
g900
sg37
Nsg38
g10
sg39
VHydro-Electric Corporation (Tasmania)
p911
sg41
I2012
sg42
g27
sbsVAUS0000139
p912
g2
(g3
g4
Ntp913
Rp914
(dp915
g8
Nsg9
g10
sg11
g12
((lp916
tp917
Rp918
sg16
F120.0
sg17
VBell Bay (Bell Bay Three)
p919
sg19
g20
sg21
g22
sg23
g24
sg25
Nsg26
g27
sg28
g2
(g29
g4
Ntp920
Rp921
(dp922
g33
F-41.14289599999995
sg34
g27
sg35
F146.90299800000003
sbsg36
g912
sg37
Nsg38
g10
sg39
VAurora Energy Tamar Valley Pty Ltd
p923
sg41
I2012
sg42
g27
sbsVAUS0000138
p924
g2
(g3
g4
Ntp925
Rp926
(dp927
g8
Nsg9
g10
sg11
g12
((lp928
tp929
Rp930
sg16
F390.0
sg17
VTamar Valley
p931
sg19
g20
sg21
g22
sg23
g24
sg25
Nsg26
g27
sg28
g2
(g29
g4
Ntp932
Rp933
(dp934
g33
F-41.140124999999955
sg34
g27
sg35
F146.90363600000012
sbsg36
g924
sg37
Nsg38
g10
sg39
VAurora Energy (Tamar Valley)
p935
sg41
I2012
sg42
g27
sbsVAUS0000023
p936
g2
(g3
g4
Ntp937
Rp938
(dp939
g8
Nsg9
g10
sg11
g12
((lp940
tp941
Rp942
sg16
F71.4
sg17
VHallett 2 Hallet Hill  Wind Farm
p943
sg19
g185
sg21
g22
sg23
g24
sg25
Nsg26
g27
sg28
g2
(g29
g4
Ntp944
Rp945
(dp946
g33
F-33.52260243499995
sg34
g27
sg35
F138.85515976300007
sbsg36
g936
sg37
Nsg38
g10
sg39
VANZ Energy Infrastructure Trust
p947
sg41
I2012
sg42
g27
sbsVAUS0000022
p948
g2
(g3
g4
Ntp949
Rp950
(dp951
g8
Nsg9
g10
sg11
g12
((lp952
tp953
Rp954
sg16
F94.5
sg17
VHallett 1 Brown Hill  Wind Farm
p955
sg19
g185
sg21
g22
sg23
g24
sg25
Nsg26
g27
sg28
g2
(g29
g4
Ntp956
Rp957
(dp958
g33
F-33.33973357899998
sg34
g27
sg35
F138.73233165800002
sbsg36
g948
sg37
Nsg38
g10
sg39
VAGL Energy Pty Ltd
p959
sg41
I2012
sg42
g27
sbsVAUS0000474
p960
g2
(g3
g4
Ntp961
Rp962
(dp963
g8
Nsg9
g10
sg11
g12
((lp964
tp965
Rp966
sg16
F10.0
sg17
VGreenough River Solar Farm
p967
sg19
VSolar
p968
sg21
g22
sg23
g24
sg25
Nsg26
g27
sg28
g2
(g29
g4
Ntp969
Rp970
(dp971
g33
F-28.90431806199996
sg34
g27
sg35
F115.11193748500011
sbsg36
g960
sg37
Nsg38
g10
sg39
VVerve Energy/GE Energy Financial Services JV
p972
sg41
I2014
sg42
g27
sbsVAUS0000475
p973
g2
(g3
g4
Ntp974
Rp975
(dp976
g8
Nsg9
g10
sg11
g12
((lp977
tp978
Rp979
sg16
F55.0
sg17
VMumbida Wind Farm
p980
sg19
g185
sg21
g22
sg23
g24
sg25
Nsg26
g27
sg28
g2
(g29
g4
Ntp981
Rp982
(dp983
g33
F-28.991804877999982
sg34
g27
sg35
F114.95988782900008
sbsg36
g973
sg37
Nsg38
g10
sg39
VVerve Energy Pty Ltd
p984
sg41
I2014
sg42
g27
sbsVAUS0000476
p985
g2
(g3
g4
Ntp986
Rp987
(dp988
g8
Nsg9
g10
sg11
g12
((lp989
tp990
Rp991
sg16
F102.0
sg17
VNyngan Solar Plant
p992
sg19
g968
sg21
g22
sg23
g24
sg25
Nsg26
g27
sg28
g2
(g29
g4
Ntp993
Rp994
(dp995
g33
F-31.552740360999962
sg34
g27
sg35
F147.08535195000002
sbsg36
g985
sg37
Nsg38
g10
sg39
VAGL Energy
p996
sg41
I2016
sg42
g27
sbsVAUS0000477
p997
g2
(g3
g4
Ntp998
Rp999
(dp1000
g8
Nsg9
g10
sg11
g12
((lp1001
tp1002
Rp1003
sg16
F53.0
sg17
VBroken Hill Solar Plant
p1004
sg19
g968
sg21
g22
sg23
g24
sg25
Nsg26
g27
sg28
g2
(g29
g4
Ntp1005
Rp1006
(dp1007
g33
F-31.986707426999942
sg34
g27
sg35
F141.3915455120001
sbsg36
g997
sg37
Nsg38
g10
sg39
VAGL Energy
p1008
sg41
I2016
sg42
g27
sbsVAUS0000470
p1009
g2
(g3
g4
Ntp1010
Rp1011
(dp1012
g8
Nsg9
g10
sg11
g12
((lp1013
tp1014
Rp1015
sg16
F1.0
sg17
VUterne Solar
p1016
sg19
g968
sg21
g22
sg23
g24
sg25
Nsg26
g27
sg28
g2
(g29
g4
Ntp1017
Rp1018
(dp1019
g33
F-23.768517390999932
sg34
g27
sg35
F133.86821016400006
sbsg36
g1009
sg37
Nsg38
g10
sg39
VEpuron
p1020
sg41
I2014
sg42
g27
sbsVAUS0000471
p1021
g2
(g3
g4
Ntp1022
Rp1023
(dp1024
g8
Nsg9
g10
sg11
g12
((lp1025
tp1026
Rp1027
sg16
F0.19
sg17
VHermannsburg
p1028
sg19
g968
sg21
g22
sg23
g24
sg25
Nsg26
g27
sg28
g2
(g29
g4
Ntp1029
Rp1030
(dp1031
g33
F-23.93736457899996
sg34
g27
sg35
F132.77192821900007
sbsg36
g1021
sg37
Nsg38
g10
sg39
VSolar Systems
p1032
sg41
I2014
sg42
g27
sbsVAUS0000472
p1033
g2
(g3
g4
Ntp1034
Rp1035
(dp1036
g8
Nsg9
g10
sg11
g12
((lp1037
tp1038
Rp1039
sg16
F0.3
sg17
VBallarat Solar Park
p1040
sg19
g968
sg21
g22
sg23
g24
sg25
Nsg26
g27
sg28
g2
(g29
g4
Ntp1041
Rp1042
(dp1043
g33
F-37.51437136499993
sg34
g27
sg35
F143.78547291200005
sbsg36
g1033
sg37
Nsg38
g10
sg39
VCentral Victoria Solar City Consortium
p1044
sg41
I2014
sg42
g27
sbsVAUS0000473
p1045
g2
(g3
g4
Ntp1046
Rp1047
(dp1048
g8
Nsg9
g10
sg11
g12
((lp1049
tp1050
Rp1051
sg16
F9.3
sg17
VLiddell Solar Thermal
p1052
sg19
g968
sg21
g22
sg23
g24
sg25
Nsg26
g27
sg28
g2
(g29
g4
Ntp1053
Rp1054
(dp1055
g33
F-32.376069144999974
sg34
g27
sg35
F150.97966729400002
sbsg36
g1045
sg37
Nsg38
g10
sg39
VMacquarie Generation
p1056
sg41
I2014
sg42
g27
sbsVAUS0000229
p1057
g2
(g3
g4
Ntp1058
Rp1059
(dp1060
g8
Nsg9
g10
sg11
g12
((lp1061
tp1062
Rp1063
sg16
F153.0
sg17
VParaburdoo
p1064
sg19
g20
sg21
g22
sg23
g24
sg25
Nsg26
g27
sg28
g2
(g29
g4
Ntp1065
Rp1066
(dp1067
g33
F-23.223478996999972
sg34
g27
sg35
F117.61348122600009
sbsg36
g1057
sg37
Nsg38
g10
sg39
VRio Tinto Australia Pty Ltd
p1068
sg41
I2012
sg42
g27
sbsVAUS0000228
p1069
g2
(g3
g4
Ntp1070
Rp1071
(dp1072
g8
Nsg9
g10
sg11
g12
((lp1073
tp1074
Rp1075
sg16
F20.0
sg17
VParaburdoo (Standby)
p1076
sg19
g20
sg21
g22
sg23
g24
sg25
Nsg26
g27
sg28
g2
(g29
g4
Ntp1077
Rp1078
(dp1079
g33
F-23.221953285999973
sg34
g27
sg35
F117.61503073100005
sbsg36
g1069
sg37
Nsg38
g10
sg39
VRio Tinto Australia Pty Ltd
p1080
sg41
I2012
sg42
g27
sbsVAUS0000344
p1081
g2
(g3
g4
Ntp1082
Rp1083
(dp1084
g8
Nsg9
g10
sg11
g12
((lp1085
tp1086
Rp1087
sg16
F1.0
sg17
VTea Tree Gully
p1088
sg19
g247
sg21
g22
sg23
g24
sg25
Nsg26
g27
sg28
g2
(g29
g4
Ntp1089
Rp1090
(dp1091
g33
F-34.830327067999974
sg34
g27
sg35
F138.71285098500005
sbsg36
g1081
sg37
Nsg38
g10
sg39
VEDL LFG SA Pty Ltd
p1092
sg41
I2012
sg42
g27
sbsVAUS0000345
p1093
g2
(g3
g4
Ntp1094
Rp1095
(dp1096
g8
Nsg9
g10
sg11
g12
((lp1097
tp1098
Rp1099
sg16
F57.6
sg17
VPort Stanvac
p1100
sg19
g210
sg21
g22
sg23
g24
sg25
Nsg26
g27
sg28
g2
(g29
g4
Ntp1101
Rp1102
(dp1103
g33
F-35.11039534399998
sg34
g27
sg35
F138.49145908000003
sbsg36
g1093
sg37
Nsg38
g10
sg39
VInfratil Energy Australia Pty Ltd
p1104
sg41
I2012
sg42
g27
sbsVAUS0000342
p1105
g2
(g3
g4
Ntp1106
Rp1107
(dp1108
g8
Nsg9
g10
sg11
g12
((lp1109
tp1110
Rp1111
sg16
F25.0
sg17
VBox Hill
p1112
sg19
g185
sg21
g22
sg23
g24
sg25
Nsg26
g27
sg28
g2
(g29
g4
Ntp1113
Rp1114
(dp1115
g33
F-30.49941066699995
sg34
g27
sg35
F151.68388987800006
sbsg36
g1105
sg37
Nsg38
g10
sg39
VAGL Energy
p1116
sg41
I2012
sg42
g27
sbsVAUS0000343
p1117
g2
(g3
g4
Ntp1118
Rp1119
(dp1120
g8
Nsg9
g10
sg11
g12
((lp1121
tp1122
Rp1123
sg16
F1.0
sg17
VHighbury
p1124
sg19
g247
sg21
g22
sg23
g24
sg25
Nsg26
g27
sg28
g2
(g29
g4
Ntp1125
Rp1126
(dp1127
g33
F-34.84902902299996
sg34
g27
sg35
F138.72028357300007
sbsg36
g1117
sg37
Nsg38
g10
sg39
VEDL LFG SA Pty Ltd
p1128
sg41
I2012
sg42
g27
sbsVAUS0000340
p1129
g2
(g3
g4
Ntp1130
Rp1131
(dp1132
g8
Nsg9
g10
sg11
g12
((lp1133
tp1134
Rp1135
sg16
F0.3
sg17
VRubicon Falls
p1136
sg19
g63
sg21
g22
sg23
g24
sg25
Nsg26
g27
sg28
g2
(g29
g4
Ntp1137
Rp1138
(dp1139
g33
F-37.34008662499997
sg34
g27
sg35
F145.8476787080001
sbsg36
g1129
sg37
Nsg38
g10
sg39
VAGL Energy Pty Ltd
p1140
sg41
I2012
sg42
g27
sbsVAUS0000341
p1141
g2
(g3
g4
Ntp1142
Rp1143
(dp1144
g8
Nsg9
g10
sg11
g12
((lp1145
tp1146
Rp1147
sg16
F4.1
sg17
VLeonards Hill
p1148
sg19
g185
sg21
g22
sg23
g24
sg25
Nsg26
g27
sg28
g2
(g29
g4
Ntp1149
Rp1150
(dp1151
g33
F-37.427135745999976
sg34
g27
sg35
F144.12215301000003
sbsg36
g1141
sg37
Nsg38
g10
sg39
VHepburn Community Wind Park Co-operative Ltd
p1152
sg41
I2012
sg42
g27
sbsVAUS0000221
p1153
g2
(g3
g4
Ntp1154
Rp1155
(dp1156
g8
Nsg9
g10
sg11
g12
((lp1157
tp1158
Rp1159
sg16
F28.0
sg17
VChristmas Creek Iron Ore Mine
p1160
sg19
g210
sg21
g22
sg23
g24
sg25
Nsg26
g27
sg28
g2
(g29
g4
Ntp1161
Rp1162
(dp1163
g33
F-22.398999999999944
sg34
g27
sg35
F119.73200000000008
sbsg36
g1153
sg37
Nsg38
g10
sg39
VContract Power Holdings
p1164
sg41
I2012
sg42
g27
sbsVAUS0000220
p1165
g2
(g3
g4
Ntp1166
Rp1167
(dp1168
g8
Nsg9
g10
sg11
g12
((lp1169
tp1170
Rp1171
sg16
F32.0
sg17
VArgyle Diamond Mine
p1172
sg19
g210
sg21
g22
sg23
g24
sg25
Nsg26
g27
sg28
g2
(g29
g4
Ntp1173
Rp1174
(dp1175
g33
F-16.716156999999953
sg34
g27
sg35
F128.40308000000005
sbsg36
g1165
sg37
Nsg38
g10
sg39
VRio Tinto - Argyle Diamond Mines
p1176
sg41
I2012
sg42
g27
sbsVAUS0000223
p1177
g2
(g3
g4
Ntp1178
Rp1179
(dp1180
g8
Nsg9
g10
sg11
g12
((lp1181
tp1182
Rp1183
sg16
F78.0
sg17
VLeonora (Murrin Murrin Nickel Mine)
p1184
sg19
g20
sg21
g22
sg23
g24
sg25
Nsg26
g27
sg28
g2
(g29
g4
Ntp1185
Rp1186
(dp1187
g33
F-28.923753999999974
sg34
g27
sg35
F121.32929000000001
sbsg36
g1177
sg37
Nsg38
g10
sg39
VMinara Resources
p1188
sg41
I2012
sg42
g27
sbsVAUS0000222
p1189
g2
(g3
g4
Ntp1190
Rp1191
(dp1192
g8
Nsg9
g10
sg11
g12
((lp1193
tp1194
Rp1195
sg16
F21.0
sg17
VJundee Gold Mine
p1196
sg19
g20
sg21
g22
sg23
g24
sg25
Nsg26
g27
sg28
g2
(g29
g4
Ntp1197
Rp1198
(dp1199
g33
F-26.371211999999957
sg34
g27
sg35
F120.57761300000004
sbsg36
g1189
sg37
Nsg38
g10
sg39
VNewmount Australia
p1200
sg41
I2012
sg42
g27
sbsVAUS0000225
p1201
g2
(g3
g4
Ntp1202
Rp1203
(dp1204
g8
Nsg9
g10
sg11
g12
((lp1205
tp1206
Rp1207
sg16
F28.0
sg17
VPlutonic Gold Mine
p1208
sg19
g20
sg21
g22
sg23
g24
sg25
Nsg26
g27
sg28
g2
(g29
g4
Ntp1209
Rp1210
(dp1211
g33
F-25.311001999999974
sg34
g27
sg35
F119.45075700000007
sbsg36
g1201
sg37
Nsg38
g10
sg39
VBarrick Gold of Australia
p1212
sg41
I2012
sg42
g27
sbsVAUS0000224
p1213
g2
(g3
g4
Ntp1214
Rp1215
(dp1216
g8
Nsg9
g10
sg11
g12
((lp1217
tp1218
Rp1219
sg16
F30.0
sg17
VOrd River
p1220
sg19
g63
sg21
g22
sg23
g24
sg25
Nsg26
g27
sg28
g2
(g29
g4
Ntp1221
Rp1222
(dp1223
g33
F-16.120131999999955
sg34
g27
sg35
F128.73832500000003
sbsg36
g1213
sg37
Nsg38
g10
sg39
VPacific Hydro Pty Ltd
p1224
sg41
I2012
sg42
g27
sbsVAUS0000227
p1225
g2
(g3
g4
Ntp1226
Rp1227
(dp1228
g8
Nsg9
g10
sg11
g12
((lp1229
tp1230
Rp1231
sg16
F21.0
sg17
VWiluna Gold Mine
p1232
sg19
g20
sg21
g22
sg23
g24
sg25
Nsg26
g27
sg28
g2
(g29
g4
Ntp1233
Rp1234
(dp1235
g33
F-26.63156799999996
sg34
g27
sg35
F120.25188400000002
sbsg36
g1225
sg37
Nsg38
g10
sg39
VApex Minerals
p1236
sg41
I2012
sg42
g27
sbsVAUS0000226
p1237
g2
(g3
g4
Ntp1238
Rp1239
(dp1240
g8
Nsg9
g10
sg11
g12
((lp1241
tp1242
Rp1243
sg16
F28.4
sg17
VSunrise Dam
p1244
sg19
g20
sg21
g22
sg23
g24
sg25
Nsg26
g27
sg28
g2
(g29
g4
Ntp1245
Rp1246
(dp1247
g33
F-29.09268343599996
sg34
g27
sg35
F122.43928453500007
sbsg36
g1237
sg37
Nsg38
g10
sg39
VEnergy Generation / AngloGold Ashanti
p1248
sg41
I2012
sg42
g27
sbsVAUS0000049
p1249
g2
(g3
g4
Ntp1250
Rp1251
(dp1252
g8
Nsg9
g10
sg11
g12
((lp1253
tp1254
Rp1255
sg16
F1.1
sg17
VAwaba
p1256
sg19
g247
sg21
g22
sg23
g24
sg25
Nsg26
g27
sg28
g2
(g29
g4
Ntp1257
Rp1258
(dp1259
g33
F-33.02502999999996
sg34
g27
sg35
F151.5497190000001
sbsg36
g1249
sg37
Nsg38
g10
sg39
VLMS Energy Generation Pty Ltd
p1260
sg41
I2012
sg42
g27
sbsVAUS0000048
p1261
g2
(g3
g4
Ntp1262
Rp1263
(dp1264
g8
Nsg9
g10
sg11
g12
((lp1265
tp1266
Rp1267
sg16
F27.2
sg17
VBurrinjuck Power Station
p1268
sg19
g63
sg21
g22
sg23
g24
sg25
Nsg26
g27
sg28
g2
(g29
g4
Ntp1269
Rp1270
(dp1271
g33
F-35.00251999999995
sg34
g27
sg35
F148.58339300000011
sbsg36
g1261
sg37
Nsg38
g10
sg39
VEraring Energy
p1272
sg41
I2012
sg42
g27
sbsVAUS0000045
p1273
g2
(g3
g4
Ntp1274
Rp1275
(dp1276
g8
Nsg9
g10
sg11
g12
((lp1277
tp1278
Rp1279
sg16
F5.0
sg17
VEastern Creek
p1280
sg19
g247
sg21
g22
sg23
g24
sg25
Nsg26
g27
sg28
g2
(g29
g4
Ntp1281
Rp1282
(dp1283
g33
F-33.814156999999966
sg34
g27
sg35
F150.8537020000001
sbsg36
g1273
sg37
Nsg38
g10
sg39
VEnergy Developments LFG(NSW) Pty Ltd
p1284
sg41
I2012
sg42
g27
sbsVAUS0000044
p1285
g2
(g3
g4
Ntp1286
Rp1287
(dp1288
g8
Nsg9
g10
sg11
g12
((lp1289
tp1290
Rp1291
sg16
F7.7
sg17
VEastern Creek 2
p1292
sg19
g247
sg21
g22
sg23
g24
sg25
Nsg26
g27
sg28
g2
(g29
g4
Ntp1293
Rp1294
(dp1295
g33
F-33.81251499999996
sg34
g27
sg35
F150.86168300000008
sbsg36
g1285
sg37
Nsg38
g10
sg39
VLMS Energy Generation Pty Ltd
p1296
sg41
I2012
sg42
g27
sbsVAUS0000047
p1297
g2
(g3
g4
Ntp1298
Rp1299
(dp1300
g8
Nsg9
g10
sg11
g12
((lp1301
tp1302
Rp1303
sg16
F140.7
sg17
VCapital Wind Farm
p1304
sg19
g185
sg21
g22
sg23
g24
sg25
Nsg26
g27
sg28
g2
(g29
g4
Ntp1305
Rp1306
(dp1307
g33
F-35.16603062099995
sg34
g27
sg35
F149.51856862600005
sbsg36
g1297
sg37
Nsg38
g10
sg39
VInfigen Energy Pty Ltd
p1308
sg41
I2012
sg42
g27
sbsVAUS0000046
p1309
g2
(g3
g4
Ntp1310
Rp1311
(dp1312
g8
Nsg9
g10
sg11
g12
((lp1313
tp1314
Rp1315
sg16
F4.8
sg17
VCrookwell Wind Farm
p1316
sg19
g185
sg21
g22
sg23
g24
sg25
Nsg26
g27
sg28
g2
(g29
g4
Ntp1317
Rp1318
(dp1319
g33
F-34.51649999999995
sg34
g27
sg35
F149.54248000000007
sbsg36
g1309
sg37
Nsg38
g10
sg39
VEraring Energy
p1320
sg41
I2012
sg42
g27
sbsVAUS0000041
p1321
g2
(g3
g4
Ntp1322
Rp1323
(dp1324
g8
Nsg9
g10
sg11
g12
((lp1325
tp1326
Rp1327
sg16
F1.3
sg17
VGrange Avenue
p1328
sg19
g247
sg21
g22
sg23
g24
sg25
Nsg26
g27
sg28
g2
(g29
g4
Ntp1329
Rp1330
(dp1331
g33
F-33.70293799999996
sg34
g27
sg35
F150.8312330000001
sbsg36
g1321
sg37
Nsg38
g10
sg39
VEnergy Developments LFG (NSW) Pty Ltd
p1332
sg41
I2012
sg42
g27
sbsVAUS0000040
p1333
g2
(g3
g4
Ntp1334
Rp1335
(dp1336
g8
Nsg9
g10
sg11
g12
((lp1337
tp1338
Rp1339
sg16
F46.5
sg17
VGunning
p1340
sg19
g185
sg21
g22
sg23
g24
sg25
Nsg26
g27
sg28
g2
(g29
g4
Ntp1341
Rp1342
(dp1343
g33
F-34.695830899999976
sg34
g27
sg35
F149.3831752110001
sbsg36
g1333
sg37
Nsg38
g10
sg39
VAcciona Energy Australia
p1344
sg41
I2012
sg42
g27
sbsVAUS0000043
p1345
g2
(g3
g4
Ntp1346
Rp1347
(dp1348
g8
Nsg9
g10
sg11
g12
((lp1349
tp1350
Rp1351
sg16
F79.2
sg17
VEmu Downs Wind Farm
p1352
sg19
g185
sg21
g22
sg23
g24
sg25
Nsg26
g27
sg28
g2
(g29
g4
Ntp1353
Rp1354
(dp1355
g33
F-30.488061999999957
sg34
g27
sg35
F115.33700500000009
sbsg36
g1345
sg37
Nsg38
g10
sg39
VGriffin Energy & Stanwell Corporation Ltd
p1356
sg41
I2012
sg42
g27
sbsVAUS0000042
p1357
g2
(g3
g4
Ntp1358
Rp1359
(dp1360
g8
Nsg9
g10
sg11
g12
((lp1361
tp1362
Rp1363
sg16
F3.6
sg17
VEsperance Wind Farm Nine Mile Beach
p1364
sg19
g185
sg21
g22
sg23
g24
sg25
Nsg26
g27
sg28
g2
(g29
g4
Ntp1365
Rp1366
(dp1367
g33
F-33.892709999999965
sg34
g27
sg35
F121.77778
sbsg36
g1357
sg37
Nsg38
g10
sg39
VVerve Energy
p1368
sg41
I2012
sg42
g27
sbsVAUS0000346
p1369
g2
(g3
g4
Ntp1370
Rp1371
(dp1372
g8
Nsg9
g10
sg11
g12
((lp1373
tp1374
Rp1375
sg16
F7.5
sg17
VMaryborough
p1376
sg19
g307
sg21
g22
sg23
g24
sg25
Nsg26
g27
sg28
g2
(g29
g4
Ntp1377
Rp1378
(dp1379
g33
F-25.547588004999966
sg34
g27
sg35
F152.7170960950001
sbsg36
g1369
sg37
Nsg38
g10
sg39
VMSF Sugar
p1380
sg41
I2012
sg42
g27
sbsVAUS0000347
p1381
g2
(g3
g4
Ntp1382
Rp1383
(dp1384
g8
Nsg9
g10
sg11
g12
((lp1385
tp1386
Rp1387
sg16
F4.8
sg17
VStapylton Green Energy
p1388
sg19
g307
sg21
g22
sg23
g24
sg25
Nsg26
g27
sg28
g2
(g29
g4
Ntp1389
Rp1390
(dp1391
g33
F-27.733448959999976
sg34
g27
sg35
F153.24630257800004
sbsg36
g1381
sg37
Nsg38
g10
sg39
VStapylton Green Energy
p1392
sg41
I2012
sg42
g27
sbsVAUS0000403
p1393
g2
(g3
g4
Ntp1394
Rp1395
(dp1396
g8
Nsg9
g10
sg11
g12
((lp1397
tp1398
Rp1399
sg16
F0.4
sg17
VErskine Park
p1400
sg19
g20
sg21
g22
sg23
g24
sg25
Nsg26
g27
sg28
g2
(g29
g4
Ntp1401
Rp1402
(dp1403
g33
F-33.81820658899994
sg34
g27
sg35
F150.80322730700004
sbsg36
g1393
sg37
Nsg38
g10
sg39
VCogent Energy
p1404
sg41
I2012
sg42
g27
sbsVAUS0000402
p1405
g2
(g3
g4
Ntp1406
Rp1407
(dp1408
g8
Nsg9
g10
sg11
g12
((lp1409
tp1410
Rp1411
sg16
F0.8
sg17
VClub Merrylands
p1412
sg19
g210
sg21
g22
sg23
g24
sg25
Nsg26
g27
sg28
g2
(g29
g4
Ntp1413
Rp1414
(dp1415
g33
F-33.83811554999994
sg34
g27
sg35
F150.99050381200004
sbsg36
g1405
sg37
Nsg38
g10
sg39
VClub Merrylands
p1416
sg41
I2012
sg42
g27
sbsVAUS0000348
p1417
g2
(g3
g4
Ntp1418
Rp1419
(dp1420
g8
Nsg9
g10
sg11
g12
((lp1421
tp1422
Rp1423
sg16
F0.6
sg17
VBremer Bay Wind Turbine
p1424
sg19
g185
sg21
g22
sg23
g24
sg25
Nsg26
g27
sg28
g2
(g29
g4
Ntp1425
Rp1426
(dp1427
g33
F-34.399007154999936
sg34
g27
sg35
F119.39148142400006
sbsg36
g1417
sg37
Nsg38
g10
sg39
VVerve Energy
p1428
sg41
I2012
sg42
g27
sbsVAUS0000376
p1429
g2
(g3
g4
Ntp1430
Rp1431
(dp1432
g8
Nsg9
g10
sg11
g12
((lp1433
tp1434
Rp1435
sg16
F0.5
sg17
VBlue Lake Milling Power Plant
p1436
sg19
g210
sg21
g22
sg23
g24
sg25
Nsg26
g27
sg28
g2
(g29
g4
Ntp1437
Rp1438
(dp1439
g33
F-36.31643279399998
sg34
g27
sg35
F140.7574619190001
sbsg36
g1429
sg37
Nsg38
g10
sg39
VVibe Energy Pty Ltd
p1440
sg41
I2012
sg42
g27
sbsVAUS0000349
p1441
g2
(g3
g4
Ntp1442
Rp1443
(dp1444
g8
Nsg9
g10
sg11
g12
((lp1445
tp1446
Rp1447
sg16
F1.3
sg17
VBremer Bay Diesel Backup
p1448
sg19
g210
sg21
g22
sg23
g24
sg25
Nsg26
g27
sg28
g2
(g29
g4
Ntp1449
Rp1450
(dp1451
g33
F-34.40182817799996
sg34
g27
sg35
F119.38880433100007
sbsg36
g1441
sg37
Nsg38
g10
sg39
VVerve Energy
p1452
sg41
I2012
sg42
g27
sbsVAUS0000409
p1453
g2
(g3
g4
Ntp1454
Rp1455
(dp1456
g8
Nsg9
g10
sg11
g12
((lp1457
tp1458
Rp1459
sg16
F4.43
sg17
VLeonora
p1460
sg19
g20
sg21
g22
sg23
g24
sg25
Nsg26
g27
sg28
g2
(g29
g4
Ntp1461
Rp1462
(dp1463
g33
F-28.881076375999953
sg34
g27
sg35
F121.32127466800011
sbsg36
g1453
sg37
Nsg38
g10
sg39
VEnergy Developments
p1464
sg41
I2012
sg42
g27
sbsVAUS0000408
p1465
g2
(g3
g4
Ntp1466
Rp1467
(dp1468
g8
Nsg9
g10
sg11
g12
((lp1469
tp1470
Rp1471
sg16
F2.9
sg17
VMeekatharra
p1472
sg19
g210
sg21
g22
sg23
g24
sg25
Nsg26
g27
sg28
g2
(g29
g4
Ntp1473
Rp1474
(dp1475
g33
F-26.59517155499998
sg34
g27
sg35
F118.48302202900004
sbsg36
g1465
sg37
Nsg38
g10
sg39
VEnergy Developments
p1476
sg41
I2012
sg42
g27
sbsVAUS0000438
p1477
g2
(g3
g4
Ntp1478
Rp1479
(dp1480
g8
Nsg9
g10
sg11
g12
((lp1481
tp1482
Rp1483
sg16
F1.5
sg17
VCSIRO Energy Centre
p1484
sg19
g968
sg21
g22
sg23
g24
sg25
Nsg26
g27
sg28
g2
(g29
g4
Ntp1485
Rp1486
(dp1487
g33
F-32.88347300399994
sg34
g27
sg35
F151.72745249100012
sbsg36
g1477
sg37
Nsg38
g10
sg39
VCSIRO
p1488
sg41
I2012
sg42
g27
sbsVAUS0000439
p1489
g2
(g3
g4
Ntp1490
Rp1491
(dp1492
g8
Nsg9
g10
sg11
g12
((lp1493
tp1494
Rp1495
sg16
F0.67
sg17
VNewington Solar Suburb
p1496
sg19
g968
sg21
g22
sg23
g24
sg25
Nsg26
g27
sg28
g2
(g29
g4
Ntp1497
Rp1498
(dp1499
g33
F-33.841292099999976
sg34
g27
sg35
F151.0538161280001
sbsg36
g1489
sg37
Nsg38
g10
sg39
VPacific Power
p1500
sg41
I2012
sg42
g27
sbsVAUS0000430
p1501
g2
(g3
g4
Ntp1502
Rp1503
(dp1504
g8
Nsg9
g10
sg11
g12
((lp1505
tp1506
Rp1507
sg16
F0.25
sg17
VQueen Victoria Market Solar Array
p1508
sg19
g968
sg21
g22
sg23
g24
sg25
Nsg26
g27
sg28
g2
(g29
g4
Ntp1509
Rp1510
(dp1511
g33
F-37.80694397399998
sg34
g27
sg35
F144.9569437770001
sbsg36
g1501
sg37
Nsg38
g10
sg39
VMelbourne City Council
p1512
sg41
I2012
sg42
g27
sbsVAUS0000431
p1513
g2
(g3
g4
Ntp1514
Rp1515
(dp1516
g8
Nsg9
g10
sg11
g12
((lp1517
tp1518
Rp1519
sg16
F0.3
sg17
VBendigo Solar Park
p1520
sg19
g968
sg21
g22
sg23
g24
sg25
Nsg26
g27
sg28
g2
(g29
g4
Ntp1521
Rp1522
(dp1523
g33
F-36.67475241999995
sg34
g27
sg35
F144.3032389540001
sbsg36
g1513
sg37
Nsg38
g10
sg39
VCentral Victoria Solar City Consortium
p1524
sg41
I2012
sg42
g27
sbsVAUS0000432
p1525
g2
(g3
g4
Ntp1526
Rp1527
(dp1528
g8
Nsg9
g10
sg11
g12
((lp1529
tp1530
Rp1531
sg16
F1.0
sg17
VAdelaide Showgrounds
p1532
sg19
g968
sg21
g22
sg23
g24
sg25
Nsg26
g27
sg28
g2
(g29
g4
Ntp1533
Rp1534
(dp1535
g33
F-34.94528525499993
sg34
g27
sg35
F138.58819351300008
sbsg36
g1525
sg37
Nsg38
g10
sg39
VAdelaide Showgrounds
p1536
sg41
I2012
sg42
g27
sbsVAUS0000370
p1537
g2
(g3
g4
Ntp1538
Rp1539
(dp1540
g8
Nsg9
g10
sg11
g12
((lp1541
tp1542
Rp1543
sg16
F12.4
sg17
VKununurra
p1544
sg19
g210
sg21
g22
sg23
g24
sg25
Nsg26
g27
sg28
g2
(g29
g4
Ntp1545
Rp1546
(dp1547
g33
F-15.779556778999961
sg34
g27
sg35
F128.73946199400007
sbsg36
g1537
sg37
Nsg38
g10
sg39
VHorizon Power
p1548
sg41
I2012
sg42
g27
sbsVAUS0000434
p1549
g2
(g3
g4
Ntp1550
Rp1551
(dp1552
g8
Nsg9
g10
sg11
g12
((lp1553
tp1554
Rp1555
sg16
F0.34
sg17
VTownsville RSL Stadium Solar Array
p1556
sg19
g968
sg21
g22
sg23
g24
sg25
Nsg26
g27
sg28
g2
(g29
g4
Ntp1557
Rp1558
(dp1559
g33
F-19.307861025999955
sg34
g27
sg35
F146.8010542510001
sbsg36
g1549
sg37
Nsg38
g10
sg39
VTownsville RSL Stadium
p1560
sg41
I2012
sg42
g27
sbsVAUS0000435
p1561
g2
(g3
g4
Ntp1562
Rp1563
(dp1564
g8
Nsg9
g10
sg11
g12
((lp1565
tp1566
Rp1567
sg16
F0.4
sg17
VFraser Coast Community Solar Farm
p1568
sg19
g968
sg21
g22
sg23
g24
sg25
Nsg26
g27
sg28
g2
(g29
g4
Ntp1569
Rp1570
(dp1571
g33
F-25.318398602999935
sg34
g27
sg35
F152.7901683220001
sbsg36
g1561
sg37
Nsg38
g10
sg39
VWide Bay Water Corporation
p1572
sg41
I2012
sg42
g27
sbsVAUS0000436
p1573
g2
(g3
g4
Ntp1574
Rp1575
(dp1576
g8
Nsg9
g10
sg11
g12
((lp1577
tp1578
Rp1579
sg16
F0.22
sg17
VMetricon (Gold Coast) Stadium Solar Array
p1580
sg19
g968
sg21
g22
sg23
g24
sg25
Nsg26
g27
sg28
g2
(g29
g4
Ntp1581
Rp1582
(dp1583
g33
F-28.00627412299997
sg34
g27
sg35
F153.36711828600005
sbsg36
g1573
sg37
Nsg38
g10
sg39
VMetricon Stadium
p1584
sg41
I2012
sg42
g27
sbsVAUS0000437
p1585
g2
(g3
g4
Ntp1586
Rp1587
(dp1588
g8
Nsg9
g10
sg11
g12
((lp1589
tp1590
Rp1591
sg16
F0.29
sg17
VCarnarvon Solar Farm
p1592
sg19
g968
sg21
g22
sg23
g24
sg25
Nsg26
g27
sg28
g2
(g29
g4
Ntp1593
Rp1594
(dp1595
g33
F-24.897029118999967
sg34
g27
sg35
F113.6741161000001
sbsg36
g1585
sg37
Nsg38
g10
sg39
VEMC Solar
p1596
sg41
I2012
sg42
g27
sbsVAUS0000382
p1597
g2
(g3
g4
Ntp1598
Rp1599
(dp1600
g8
Nsg9
g10
sg11
g12
((lp1601
tp1602
Rp1603
sg16
F1.3
sg17
VBidyadanga
p1604
sg19
g210
sg21
g22
sg23
g24
sg25
Nsg26
g27
sg28
g2
(g29
g4
Ntp1605
Rp1606
(dp1607
g33
F-18.68162717399997
sg34
g27
sg35
F121.78478093100011
sbsg36
g1597
sg37
Nsg38
g10
sg39
VEnergy Developments Ltd
p1608
sg41
I2012
sg42
g27
sbsVAUS0000276
p1609
g2
(g3
g4
Ntp1610
Rp1611
(dp1612
g8
Nsg9
g10
sg11
g12
((lp1613
tp1614
Rp1615
sg16
F10.0
sg17
VGlennies Creek
p1616
sg19
g20
sg21
g22
sg23
g24
sg25
Nsg26
g27
sg28
g2
(g29
g4
Ntp1617
Rp1618
(dp1619
g33
F-32.45984299999998
sg34
g27
sg35
F151.12862700000005
sbsg36
g1609
sg37
Nsg38
g10
sg39
VEnviroGen Pty Ltd
p1620
sg41
I2012
sg42
g27
sbsVAUS0000380
p1621
g2
(g3
g4
Ntp1622
Rp1623
(dp1624
g8
Nsg9
g10
sg11
g12
((lp1625
tp1626
Rp1627
sg16
F0.7
sg17
VDjarindjin
p1628
sg19
g210
sg21
g22
sg23
g24
sg25
Nsg26
g27
sg28
g2
(g29
g4
Ntp1629
Rp1630
(dp1631
g33
F-16.519907689999968
sg34
g27
sg35
F122.9035895080001
sbsg36
g1621
sg37
Nsg38
g10
sg39
VEnergy Developments Ltd
p1632
sg41
I2012
sg42
g27
sbsVAUS0000381
p1633
g2
(g3
g4
Ntp1634
Rp1635
(dp1636
g8
Nsg9
g10
sg11
g12
((lp1637
tp1638
Rp1639
sg16
F0.7
sg17
VBeagle Bay
p1640
sg19
g210
sg21
g22
sg23
g24
sg25
Nsg26
g27
sg28
g2
(g29
g4
Ntp1641
Rp1642
(dp1643
g33
F-16.993900064999934
sg34
g27
sg35
F122.65850864600009
sbsg36
g1633
sg37
Nsg38
g10
sg39
VEnergy Developments Ltd
p1644
sg41
I2012
sg42
g27
sbsVAUS0000386
p1645
g2
(g3
g4
Ntp1646
Rp1647
(dp1648
g8
Nsg9
g10
sg11
g12
((lp1649
tp1650
Rp1651
sg16
F15.0
sg17
VCarnarvon
p1652
sg19
g20
sg21
g22
sg23
g24
sg25
Nsg26
g27
sg28
g2
(g29
g4
Ntp1653
Rp1654
(dp1655
g33
F-24.86915967899995
sg34
g27
sg35
F113.67537540600006
sbsg36
g1645
sg37
Nsg38
g10
sg39
g27
sg41
I2012
sg42
g27
sbsVAUS0000387
p1656
g2
(g3
g4
Ntp1657
Rp1658
(dp1659
g8
Nsg9
g10
sg11
g12
((lp1660
tp1661
Rp1662
sg16
F18.0
sg17
VMungullah
p1663
sg19
g20
sg21
g22
sg23
g24
sg25
Nsg26
g27
sg28
g2
(g29
g4
Ntp1664
Rp1665
(dp1666
g33
F-24.891051455999957
sg34
g27
sg35
F113.7095328040001
sbsg36
g1656
sg37
Nsg38
g10
sg39
VHorizon Power
p1667
sg41
I2012
sg42
g27
sbsVAUS0000384
p1668
g2
(g3
g4
Ntp1669
Rp1670
(dp1671
g8
Nsg9
g10
sg11
g12
((lp1672
tp1673
Rp1674
sg16
F1.3
sg17
VWiluna
p1675
sg19
g210
sg21
g22
sg23
g24
sg25
Nsg26
g27
sg28
g2
(g29
g4
Ntp1676
Rp1677
(dp1678
g33
F-26.592159892999973
sg34
g27
sg35
F120.21850892600003
sbsg36
g1668
sg37
Nsg38
g10
sg39
VEnergy Developments
p1679
sg41
I2012
sg42
g27
sbsVAUS0000277
p1680
g2
(g3
g4
Ntp1681
Rp1682
(dp1683
g8
Nsg9
g10
sg11
g12
((lp1684
tp1685
Rp1686
sg16
F29.0
sg17
VHunter
p1687
sg19
g210
sg21
g22
sg23
g24
sg25
Nsg26
g27
sg28
g2
(g29
g4
Ntp1688
Rp1689
(dp1690
g33
F-32.83602099999996
sg34
g27
sg35
F151.4504710000001
sbsg36
g1680
sg37
Nsg38
g10
sg39
VInfratil Energy Australia Pty Ltd
p1691
sg41
I2012
sg42
g27
sbsVAUS0000388
p1692
g2
(g3
g4
Ntp1693
Rp1694
(dp1695
g8
Nsg9
g10
sg11
g12
((lp1696
tp1697
Rp1698
sg16
F0.06
sg17
VExmouth Advanced Mini Wind Farm
p1699
sg19
g185
sg21
g22
sg23
g24
sg25
Nsg26
g27
sg28
g2
(g29
g4
Ntp1700
Rp1701
(dp1702
g33
F-21.812631499999952
sg34
g27
sg35
F114.1335056480001
sbsg36
g1692
sg37
Nsg38
g10
sg39
g27
sg41
I2012
sg42
g27
sbsVAUS0000389
p1703
g2
(g3
g4
Ntp1704
Rp1705
(dp1706
g8
Nsg9
g10
sg11
g12
((lp1707
tp1708
Rp1709
sg16
F120.0
sg17
VWorsley
p1710
sg19
g76
sg21
g22
sg23
g24
sg25
Nsg26
g27
sg28
g2
(g29
g4
Ntp1711
Rp1712
(dp1713
g33
F-33.235493273999964
sg34
g27
sg35
F116.06879749400002
sbsg36
g1703
sg37
Nsg38
g10
sg39
VBHP
p1714
sg41
I2012
sg42
g27
sbsVAUS0000265
p1715
g2
(g3
g4
Ntp1716
Rp1717
(dp1718
g8
Nsg9
g10
sg11
g12
((lp1719
tp1720
Rp1721
sg16
F2640.0
sg17
VBayswater
p1722
sg19
g76
sg21
g22
sg23
g24
sg25
Nsg26
g27
sg28
g2
(g29
g4
Ntp1723
Rp1724
(dp1725
g33
F-32.39526999999998
sg34
g27
sg35
F150.94913000000008
sbsg36
g1715
sg37
Nsg38
g10
sg39
VMacquarie Generation
p1726
sg41
I2012
sg42
g27
sbsVAUS0000264
p1727
g2
(g3
g4
Ntp1728
Rp1729
(dp1730
g8
Nsg9
g10
sg11
g12
((lp1731
tp1732
Rp1733
sg16
F59.7
sg17
VAppin (Mine)
p1734
sg19
g20
sg21
g22
sg23
g24
sg25
Nsg26
g27
sg28
g2
(g29
g4
Ntp1735
Rp1736
(dp1737
g33
F-34.20818499999996
sg34
g27
sg35
F150.77218100000005
sbsg36
g1727
sg37
Nsg38
g10
sg39
VEnergy Developments CSM (NSW) Pty Ltd
p1738
sg41
I2012
sg42
g27
sbsVAUS0000267
p1739
g2
(g3
g4
Ntp1740
Rp1741
(dp1742
g8
Nsg9
g10
sg11
g12
((lp1743
tp1744
Rp1745
sg16
F70.0
sg17
VBlowering
p1746
sg19
g63
sg21
g22
sg23
g24
sg25
Nsg26
g27
sg28
g2
(g29
g4
Ntp1747
Rp1748
(dp1749
g33
F-35.39860099999993
sg34
g27
sg35
F148.2462720000001
sbsg36
g1739
sg37
Nsg38
g10
sg39
VSnowy Hydro Ltd
p1750
sg41
I2012
sg42
g27
sbsVAUS0000266
p1751
g2
(g3
g4
Ntp1752
Rp1753
(dp1754
g8
Nsg9
g10
sg11
g12
((lp1755
tp1756
Rp1757
sg16
F80.0
sg17
VBendeela (Shoalhaven Scheme)
p1758
sg19
g63
sg21
g22
sg23
g24
sg25
Nsg26
g27
sg28
g2
(g29
g4
Ntp1759
Rp1760
(dp1761
g33
F-34.73368999999997
sg34
g27
sg35
F150.46687000000009
sbsg36
g1751
sg37
Nsg38
g10
sg39
VOrigin Energy
p1762
sg41
I2012
sg42
g27
sbsVAUS0000261
p1763
g2
(g3
g4
Ntp1764
Rp1765
(dp1766
g8
Nsg9
g10
sg11
g12
((lp1767
tp1768
Rp1769
sg16
F232.0
sg17
VChannel Island
p1770
sg19
g20
sg21
g22
sg23
g24
sg25
Nsg26
g27
sg28
g2
(g29
g4
Ntp1771
Rp1772
(dp1773
g33
F-12.554992999999968
sg34
g27
sg35
F130.8665870000001
sbsg36
g1763
sg37
Nsg38
g10
sg39
VNT Power and Water
p1774
sg41
I2012
sg42
g27
sbsVAUS0000149
p1775
g2
(g3
g4
Ntp1776
Rp1777
(dp1778
g8
Nsg9
g10
sg11
g12
((lp1779
tp1780
Rp1781
sg16
F385.0
sg17
VSwanbank E
p1782
sg19
g20
sg21
g22
sg23
g24
sg25
Nsg26
g27
sg28
g2
(g29
g4
Ntp1783
Rp1784
(dp1785
g33
F-27.655373999999938
sg34
g27
sg35
F152.81793800000003
sbsg36
g1775
sg37
Nsg38
g10
sg39
VCS Energy
p1786
sg41
I2012
sg42
g27
sbsVAUS0000263
p1787
g2
(g3
g4
Ntp1788
Rp1789
(dp1790
g8
Nsg9
g10
sg11
g12
((lp1791
tp1792
Rp1793
sg16
F30.0
sg17
VCondong Sugar Mill
p1794
sg19
g307
sg21
g22
sg23
g24
sg25
Nsg26
g27
sg28
g2
(g29
g4
Ntp1795
Rp1796
(dp1797
g33
F-28.313801999999953
sg34
g27
sg35
F153.43411000000003
sbsg36
g1787
sg37
Nsg38
g10
sg39
VDelta Electricity
p1798
sg41
I2012
sg42
g27
sbsVAUS0000262
p1799
g2
(g3
g4
Ntp1800
Rp1801
(dp1802
g8
Nsg9
g10
sg11
g12
((lp1803
tp1804
Rp1805
sg16
F19.0
sg17
VWarrego
p1806
sg19
g20
sg21
g22
sg23
g24
sg25
Nsg26
g27
sg28
g2
(g29
g4
Ntp1807
Rp1808
(dp1809
g33
F-19.443392999999958
sg34
g27
sg35
F133.8235870000001
sbsg36
g1799
sg37
Nsg38
g10
sg39
g27
sg41
I2012
sg42
g27
sbsVAUS0000144
p1810
g2
(g3
g4
Ntp1811
Rp1812
(dp1813
g8
Nsg9
g10
sg11
g12
((lp1814
tp1815
Rp1816
sg16
F100.0
sg17
VCethana
p1817
sg19
g63
sg21
g22
sg23
g24
sg25
Nsg26
g27
sg28
g2
(g29
g4
Ntp1818
Rp1819
(dp1820
g33
F-41.48023699999993
sg34
g27
sg35
F146.13484900000003
sbsg36
g1810
sg37
Nsg38
g10
sg39
VHydro-Electric Corporation (Tasmania)
p1821
sg41
I2012
sg42
g27
sbsVAUS0000145
p1822
g2
(g3
g4
Ntp1823
Rp1824
(dp1825
g8
Nsg9
g10
sg11
g12
((lp1826
tp1827
Rp1828
sg16
F10.5
sg17
VInkerman Sugar Mill
p1829
sg19
g307
sg21
g22
sg23
g24
sg25
Nsg26
g27
sg28
g2
(g29
g4
Ntp1830
Rp1831
(dp1832
g33
F-19.642154999999946
sg34
g27
sg35
F147.40159100000005
sbsg36
g1822
sg37
Nsg38
g10
sg39
VCSR
p1833
sg41
I2012
sg42
g27
sbsVAUS0000146
p1834
g2
(g3
g4
Ntp1835
Rp1836
(dp1837
g8
Nsg9
g10
sg11
g12
((lp1838
tp1839
Rp1840
sg16
F34.0
sg17
VMackay
p1841
sg19
g20
sg21
g22
sg23
g24
sg25
Nsg26
g27
sg28
g2
(g29
g4
Ntp1842
Rp1843
(dp1844
g33
F-21.14456599999994
sg34
g27
sg35
F149.1590970000001
sbsg36
g1834
sg37
Nsg38
g10
sg39
VStanwell Corporation Ltd
p1845
sg41
I2012
sg42
g27
sbsVAUS0000147
p1846
g2
(g3
g4
Ntp1847
Rp1848
(dp1849
g8
Nsg9
g10
sg11
g12
((lp1850
tp1851
Rp1852
sg16
F80.0
sg17
VRoma
p1853
sg19
g20
sg21
g22
sg23
g24
sg25
Nsg26
g27
sg28
g2
(g29
g4
Ntp1854
Rp1855
(dp1856
g33
F-26.577200999999945
sg34
g27
sg35
F148.8401990000001
sbsg36
g1846
sg37
Nsg38
g10
sg39
VOrigin Energy
p1857
sg41
I2012
sg42
g27
sbsVAUS0000269
p1858
g2
(g3
g4
Ntp1859
Rp1860
(dp1861
g8
Nsg9
g10
sg11
g12
((lp1862
tp1863
Rp1864
sg16
F5.4
sg17
VBrown Mountain
p1865
sg19
g63
sg21
g22
sg23
g24
sg25
Nsg26
g27
sg28
g2
(g29
g4
Ntp1866
Rp1867
(dp1868
g33
F-36.595144999999945
sg34
g27
sg35
F149.47410700000012
sbsg36
g1858
sg37
Nsg38
g10
sg39
VEraring Energy
p1869
sg41
I2012
sg42
g27
sbsVAUS0000141
p1870
g2
(g3
g4
Ntp1871
Rp1872
(dp1873
g8
Nsg9
g10
sg11
g12
((lp1874
tp1875
Rp1876
sg16
F238.0
sg17
VReece
p1877
sg19
g63
sg21
g22
sg23
g24
sg25
Nsg26
g27
sg28
g2
(g29
g4
Ntp1878
Rp1879
(dp1880
g33
F-41.723769999999945
sg34
g27
sg35
F145.1359480000001
sbsg36
g1870
sg37
Nsg38
g10
sg39
VHydro-Electric Corporation (Tasmania)
p1881
sg41
I2012
sg42
g27
sbsVAUS0000142
p1882
g2
(g3
g4
Ntp1883
Rp1884
(dp1885
g8
Nsg9
g10
sg11
g12
((lp1886
tp1887
Rp1888
sg16
F81.0
sg17
VMackintosh
p1889
sg19
g63
sg21
g22
sg23
g24
sg25
Nsg26
g27
sg28
g2
(g29
g4
Ntp1890
Rp1891
(dp1892
g33
F-41.69974999999994
sg34
g27
sg35
F145.6461190000001
sbsg36
g1882
sg37
Nsg38
g10
sg39
VHydro-Electric Corporation (Tasmania)
p1893
sg41
I2012
sg42
g27
sbsVAUS0000143
p1894
g2
(g3
g4
Ntp1895
Rp1896
(dp1897
g8
Nsg9
g10
sg11
g12
((lp1898
tp1899
Rp1900
sg16
F432.0
sg17
VGordon
p1901
sg19
g63
sg21
g22
sg23
g24
sg25
Nsg26
g27
sg28
g2
(g29
g4
Ntp1902
Rp1903
(dp1904
g33
F-42.73864199999997
sg34
g27
sg35
F145.98116500000003
sbsg36
g1894
sg37
Nsg38
g10
sg39
VHydro-Electric Corporation (Tasmania)
p1905
sg41
I2012
sg42
g27
sbsVAUS0000176
p1906
g2
(g3
g4
Ntp1907
Rp1908
(dp1909
g8
Nsg9
g10
sg11
g12
((lp1910
tp1911
Rp1912
sg16
F900.0
sg17
VCallide C
p1913
sg19
g76
sg21
g22
sg23
g24
sg25
Nsg26
g27
sg28
g2
(g29
g4
Ntp1914
Rp1915
(dp1916
g33
F-24.344945999999936
sg34
g27
sg35
F150.61818100000005
sbsg36
g1906
sg37
Nsg38
g10
sg39
VCS Energy
p1917
sg41
I2012
sg42
g27
sbsVAUS0000319
p1918
g2
(g3
g4
Ntp1919
Rp1920
(dp1921
g8
Nsg9
g10
sg11
g12
((lp1922
tp1923
Rp1924
sg16
F0.8
sg17
VUniversity of New South Wales
p1925
sg19
g20
sg21
g22
sg23
g24
sg25
Nsg26
g27
sg28
g2
(g29
g4
Ntp1926
Rp1927
(dp1928
g33
F-33.916704281999955
sg34
g27
sg35
F151.23535272300012
sbsg36
g1918
sg37
Nsg38
g10
sg39
VCogent Energy
p1929
sg41
I2012
sg42
g27
sbsVAUS0000318
p1930
g2
(g3
g4
Ntp1931
Rp1932
(dp1933
g8
Nsg9
g10
sg11
g12
((lp1934
tp1935
Rp1936
sg16
F1.5
sg17
VSt George Leagues Club
p1937
sg19
g210
sg21
g22
sg23
g24
sg25
Nsg26
g27
sg28
g2
(g29
g4
Ntp1938
Rp1939
(dp1940
g33
F-33.97481738299996
sg34
g27
sg35
F151.1293810090001
sbsg36
g1930
sg37
Nsg38
g10
sg39
VSt George Leagues Club
p1941
sg41
I2012
sg42
g27
sbsVAUS0000177
p1942
g2
(g3
g4
Ntp1943
Rp1944
(dp1945
g8
Nsg9
g10
sg11
g12
((lp1946
tp1947
Rp1948
sg16
F700.0
sg17
VCallide B
p1949
sg19
g76
sg21
g22
sg23
g24
sg25
Nsg26
g27
sg28
g2
(g29
g4
Ntp1950
Rp1951
(dp1952
g33
F-24.344879999999932
sg34
g27
sg35
F150.61974900000007
sbsg36
g1942
sg37
Nsg38
g10
sg39
VCS Energy
p1953
sg41
I2012
sg42
g27
sbsVAUS0000311
p1954
g2
(g3
g4
Ntp1955
Rp1956
(dp1957
g8
Nsg9
g10
sg11
g12
((lp1958
tp1959
Rp1960
sg16
F17.0
sg17
VProserpine Sugar Mill
p1961
sg19
g307
sg21
g22
sg23
g24
sg25
Nsg26
g27
sg28
g2
(g29
g4
Ntp1962
Rp1963
(dp1964
g33
F-20.398544758999947
sg34
g27
sg35
F148.57971634900002
sbsg36
g1954
sg37
Nsg38
g10
sg39
VSucrogen
p1965
sg41
I2012
sg42
g27
sbsVAUS0000310
p1966
g2
(g3
g4
Ntp1967
Rp1968
(dp1969
g8
Nsg9
g10
sg11
g12
((lp1970
tp1971
Rp1972
sg16
F21.4
sg17
VTully Sugar Mill
p1973
sg19
g307
sg21
g22
sg23
g24
sg25
Nsg26
g27
sg28
g2
(g29
g4
Ntp1974
Rp1975
(dp1976
g33
F-17.937317647999976
sg34
g27
sg35
F145.92665248700007
sbsg36
g1966
sg37
Nsg38
g10
sg39
VCOFCO
p1977
sg41
I2012
sg42
g27
sbsVAUS0000313
p1978
g2
(g3
g4
Ntp1979
Rp1980
(dp1981
g8
Nsg9
g10
sg11
g12
((lp1982
tp1983
Rp1984
sg16
F0.8
sg17
VSydney
p1985
sg19
g20
sg21
g22
sg23
g24
sg25
Nsg26
g27
sg28
g2
(g29
g4
Ntp1986
Rp1987
(dp1988
g33
F-33.87154700199994
sg34
g27
sg35
F151.20910002800008
sbsg36
g1978
sg37
Nsg38
g10
sg39
VCogent Energy
p1989
sg41
I2012
sg42
g27
sbsVAUS0000312
p1990
g2
(g3
g4
Ntp1991
Rp1992
(dp1993
g8
Nsg9
g10
sg11
g12
((lp1994
tp1995
Rp1996
sg16
F0.8
sg17
VNorth Sydney
p1997
sg19
g20
sg21
g22
sg23
g24
sg25
Nsg26
g27
sg28
g2
(g29
g4
Ntp1998
Rp1999
(dp2000
g33
F-33.83838156099995
sg34
g27
sg35
F151.20539424000003
sbsg36
g1990
sg37
Nsg38
g10
sg39
VCogent Energy
p2001
sg41
I2012
sg42
g27
sbsVAUS0000315
p2002
g2
(g3
g4
Ntp2003
Rp2004
(dp2005
g8
Nsg9
g10
sg11
g12
((lp2006
tp2007
Rp2008
sg16
F0.8
sg17
VBlackmores
p2009
sg19
g20
sg21
g22
sg23
g24
sg25
Nsg26
g27
sg28
g2
(g29
g4
Ntp2010
Rp2011
(dp2012
g33
F-33.67777002999998
sg34
g27
sg35
F151.29080465200002
sbsg36
g2002
sg37
Nsg38
g10
sg39
VCogent Energy
p2013
sg41
I2012
sg42
g27
sbsVAUS0000314
p2014
g2
(g3
g4
Ntp2015
Rp2016
(dp2017
g8
Nsg9
g10
sg11
g12
((lp2018
tp2019
Rp2020
sg16
F2.4
sg17
VNorth Sydney
p2021
sg19
g20
sg21
g22
sg23
g24
sg25
Nsg26
g27
sg28
g2
(g29
g4
Ntp2022
Rp2023
(dp2024
g33
F-33.83981188699994
sg34
g27
sg35
F151.20692819700002
sbsg36
g2014
sg37
Nsg38
g10
sg39
VCogent Energy
p2025
sg41
I2012
sg42
g27
sbsVAUS0000317
p2026
g2
(g3
g4
Ntp2027
Rp2028
(dp2029
g8
Nsg9
g10
sg11
g12
((lp2030
tp2031
Rp2032
sg16
F2.5
sg17
VRevesby Workers Club
p2033
sg19
g210
sg21
g22
sg23
g24
sg25
Nsg26
g27
sg28
g2
(g29
g4
Ntp2034
Rp2035
(dp2036
g33
F-33.95343975199995
sg34
g27
sg35
F151.013733214
sbsg36
g2026
sg37
Nsg38
g10
sg39
VRevesby Workers Club
p2037
sg41
I2012
sg42
g27
sbsVAUS0000316
p2038
g2
(g3
g4
Ntp2039
Rp2040
(dp2041
g8
Nsg9
g10
sg11
g12
((lp2042
tp2043
Rp2044
sg16
F3.2
sg17
VNine Network
p2045
sg19
g210
sg21
g22
sg23
g24
sg25
Nsg26
g27
sg28
g2
(g29
g4
Ntp2046
Rp2047
(dp2048
g33
F-33.81096412699998
sg34
g27
sg35
F151.1966227370001
sbsg36
g2038
sg37
Nsg38
g10
sg39
VNine Network
p2049
sg41
I2012
sg42
g27
sbsVAUS0000089
p2050
g2
(g3
g4
Ntp2051
Rp2052
(dp2053
g8
Nsg9
g10
sg11
g12
((lp2054
tp2055
Rp2056
sg16
F228.0
sg17
VJeeralang B
p2057
sg19
g20
sg21
g22
sg23
g24
sg25
Nsg26
g27
sg28
g2
(g29
g4
Ntp2058
Rp2059
(dp2060
g33
F-38.274625999999955
sg34
g27
sg35
F146.42492300000004
sbsg36
g2050
sg37
Nsg38
g10
sg39
VIndustry Funds Management Nominees Ltd
p2061
sg41
I2012
sg42
g27
sbsVAUS0000127
p2062
g2
(g3
g4
Ntp2063
Rp2064
(dp2065
g8
Nsg9
g10
sg11
g12
((lp2066
tp2067
Rp2068
sg16
F12.2
sg17
VButlers Gorge
p2069
sg19
g63
sg21
g22
sg23
g24
sg25
Nsg26
g27
sg28
g2
(g29
g4
Ntp2070
Rp2071
(dp2072
g33
F-42.26689799999997
sg34
g27
sg35
F146.2617580000001
sbsg36
g2062
sg37
Nsg38
g10
sg39
VHydro-Electric Corporation (Tasmania)
p2073
sg41
I2012
sg42
g27
sbsVAUS0000034
p2074
g2
(g3
g4
Ntp2075
Rp2076
(dp2077
g8
Nsg9
g10
sg11
g12
((lp2078
tp2079
Rp2080
sg16
F3.5
sg17
VMugga Lane
p2081
sg19
g247
sg21
g22
sg23
g24
sg25
Nsg26
g27
sg28
g2
(g29
g4
Ntp2082
Rp2083
(dp2084
g33
F-35.39530399999995
sg34
g27
sg35
F149.14582000000007
sbsg36
g2074
sg37
Nsg38
g10
sg39
VEnergy Developments LFG (ACT) Pty Ltd
p2085
sg41
I2012
sg42
g27
sbsVAUS0000035
p2086
g2
(g3
g4
Ntp2087
Rp2088
(dp2089
g8
Nsg9
g10
sg11
g12
((lp2090
tp2091
Rp2092
sg16
F4.12
sg17
VLucas Heights III
p2093
sg19
g247
sg21
g22
sg23
g24
sg25
Nsg26
g27
sg28
g2
(g29
g4
Ntp2094
Rp2095
(dp2096
g33
F-34.048145999999974
sg34
g27
sg35
F150.97388200000012
sbsg36
g2086
sg37
Nsg38
g10
sg39
VEnergy Developments LFG (NSW) Pty Ltd
p2097
sg41
I2012
sg42
g27
sbsVAUS0000036
p2098
g2
(g3
g4
Ntp2099
Rp2100
(dp2101
g8
Nsg9
g10
sg11
g12
((lp2102
tp2103
Rp2104
sg16
F11.33
sg17
VLucas Heights II
p2105
sg19
g247
sg21
g22
sg23
g24
sg25
Nsg26
g27
sg28
g2
(g29
g4
Ntp2106
Rp2107
(dp2108
g33
F-34.048145999999974
sg34
g27
sg35
F150.97388200000012
sbsg36
g2098
sg37
Nsg38
g10
sg39
VEnergy Developments LFG (NSW) Pty Ltd
p2109
sg41
I2012
sg42
g27
sbsVAUS0000037
p2110
g2
(g3
g4
Ntp2111
Rp2112
(dp2113
g8
Nsg9
g10
sg11
g12
((lp2114
tp2115
Rp2116
sg16
F5.39
sg17
VLucas Heights I
p2117
sg19
g247
sg21
g22
sg23
g24
sg25
Nsg26
g27
sg28
g2
(g29
g4
Ntp2118
Rp2119
(dp2120
g33
F-34.02930199999997
sg34
g27
sg35
F151.0020720000001
sbsg36
g2110
sg37
Nsg38
g10
sg39
VEnergy Developments LFG (NSW) Pty Ltd
p2121
sg41
I2012
sg42
g27
sbsVAUS0000030
p2122
g2
(g3
g4
Ntp2123
Rp2124
(dp2125
g8
Nsg9
g10
sg11
g12
((lp2126
tp2127
Rp2128
sg16
F1.0
sg17
VWest Nowra (Shoalhaven)
p2129
sg19
g247
sg21
g22
sg23
g24
sg25
Nsg26
g27
sg28
g2
(g29
g4
Ntp2130
Rp2131
(dp2132
g33
F-34.88197799999995
sg34
g27
sg35
F150.55148500000007
sbsg36
g2122
sg37
Nsg38
g10
sg39
VAGL Energy Pty Ltd
p2133
sg41
I2012
sg42
g27
sbsVAUS0000031
p2134
g2
(g3
g4
Ntp2135
Rp2136
(dp2137
g8
Nsg9
g10
sg11
g12
((lp2138
tp2139
Rp2140
sg16
F1500.0
sg17
VTumut 3
p2141
sg19
g63
sg21
g22
sg23
g24
sg25
Nsg26
g27
sg28
g2
(g29
g4
Ntp2142
Rp2143
(dp2144
g33
F-35.61121799999995
sg34
g27
sg35
F148.29168500000003
sbsg36
g2134
sg37
Nsg38
g10
sg39
VSnowy Hydro Ltd
p2145
sg41
I2012
sg42
g27
sbsVAUS0000032
p2146
g2
(g3
g4
Ntp2147
Rp2148
(dp2149
g8
Nsg9
g10
sg11
g12
((lp2150
tp2151
Rp2152
sg16
F95.8
sg17
VTrevallyn
p2153
sg19
g63
sg21
g22
sg23
g24
sg25
Nsg26
g27
sg28
g2
(g29
g4
Ntp2154
Rp2155
(dp2156
g33
F-41.423141999999984
sg34
g27
sg35
F147.11283000000003
sbsg36
g2146
sg37
Nsg38
g10
sg39
VHydro-Electric Corporation (Tasmania)
p2157
sg41
I2012
sg42
g27
sbsVAUS0000033
p2158
g2
(g3
g4
Ntp2159
Rp2160
(dp2161
g8
Nsg9
g10
sg11
g12
((lp2162
tp2163
Rp2164
sg16
F2.2
sg17
VSummerhill
p2165
sg19
g247
sg21
g22
sg23
g24
sg25
Nsg26
g27
sg28
g2
(g29
g4
Ntp2166
Rp2167
(dp2168
g33
F-32.88853299999994
sg34
g27
sg35
F151.64295400000003
sbsg36
g2158
sg37
Nsg38
g10
sg39
VLMS Energy Generation Pty Ltd
p2169
sg41
I2012
sg42
g27
sbsVAUS0000118
p2170
g2
(g3
g4
Ntp2171
Rp2172
(dp2173
g8
Nsg9
g10
sg11
g12
((lp2174
tp2175
Rp2176
sg16
F1.7
sg17
VTods Corner
p2177
sg19
g63
sg21
g22
sg23
g24
sg25
Nsg26
g27
sg28
g2
(g29
g4
Ntp2178
Rp2179
(dp2180
g33
F-41.97073199999994
sg34
g27
sg35
F146.79378500000007
sbsg36
g2170
sg37
Nsg38
g10
sg39
VHydro-Electric Corporation (Tasmania)
p2181
sg41
I2012
sg42
g27
sbsVAUS0000038
p2182
g2
(g3
g4
Ntp2183
Rp2184
(dp2185
g8
Nsg9
g10
sg11
g12
((lp2186
tp2187
Rp2188
sg16
F14.4
sg17
VJounama
p2189
sg19
g63
sg21
g22
sg23
g24
sg25
Nsg26
g27
sg28
g2
(g29
g4
Ntp2190
Rp2191
(dp2192
g33
F-35.56196499999993
sg34
g27
sg35
F148.305517
sbsg36
g2182
sg37
Nsg38
g10
sg39
VSnowy Hydro Ltd
p2193
sg41
I2012
sg42
g27
sbsVAUS0000039
p2194
g2
(g3
g4
Ntp2195
Rp2196
(dp2197
g8
Nsg9
g10
sg11
g12
((lp2198
tp2199
Rp2200
sg16
F2.3
sg17
VJacks Gully
p2201
sg19
g247
sg21
g22
sg23
g24
sg25
Nsg26
g27
sg28
g2
(g29
g4
Ntp2202
Rp2203
(dp2204
g33
F-34.07343999999995
sg34
g27
sg35
F150.74268900000004
sbsg36
g2194
sg37
Nsg38
g10
sg39
VEnergy Developments LFG (NSW) Pty Ltd
p2205
sg41
I2012
sg42
g27
sbsVAUS0000128
p2206
g2
(g3
g4
Ntp2207
Rp2208
(dp2209
g8
Nsg9
g10
sg11
g12
((lp2210
tp2211
Rp2212
sg16
F84.0
sg17
VTribute
p2213
sg19
g63
sg21
g22
sg23
g24
sg25
Nsg26
g27
sg28
g2
(g29
g4
Ntp2214
Rp2215
(dp2216
g33
F-41.811804999999936
sg34
g27
sg35
F145.65356700000007
sbsg36
g2206
sg37
Nsg38
g10
sg39
VHydro-Electric Corporation (Tasmania)
p2217
sg41
I2012
sg42
g27
sbsVAUS0000129
p2218
g2
(g3
g4
Ntp2219
Rp2220
(dp2221
g8
Nsg9
g10
sg11
g12
((lp2222
tp2223
Rp2224
sg16
F10.5
sg17
VRowallan
p2225
sg19
g63
sg21
g22
sg23
g24
sg25
Nsg26
g27
sg28
g2
(g29
g4
Ntp2226
Rp2227
(dp2228
g33
F-41.72952299999997
sg34
g27
sg35
F146.21759300000008
sbsg36
g2218
sg37
Nsg38
g10
sg39
VHydro-Electric Corporation (Tasmania)
p2229
sg41
I2012
sg42
g27
sbsVAUS0000113
p2230
g2
(g3
g4
Ntp2231
Rp2232
(dp2233
g8
Nsg9
g10
sg11
g12
((lp2234
tp2235
Rp2236
sg16
F2.0
sg17
VBallarat Base Hospital
p2237
sg19
g20
sg21
g22
sg23
g24
sg25
Nsg26
g27
sg28
g2
(g29
g4
Ntp2238
Rp2239
(dp2240
g33
F-37.55960699999997
sg34
g27
sg35
F143.84691800000007
sbsg36
g2230
sg37
Nsg38
g10
sg39
VBallarat Base Hospital
p2241
sg41
I2012
sg42
g27
sbsVAUS0000112
p2242
g2
(g3
g4
Ntp2243
Rp2244
(dp2245
g8
Nsg9
g10
sg11
g12
((lp2246
tp2247
Rp2248
sg16
F22.0
sg17
VCape Nelson North Wind Farm
p2249
sg19
g185
sg21
g22
sg23
g24
sg25
Nsg26
g27
sg28
g2
(g29
g4
Ntp2250
Rp2251
(dp2252
g33
F-38.367636999999945
sg34
g27
sg35
F141.5429590000001
sbsg36
g2242
sg37
Nsg38
g10
sg39
VPacific Hydro Pty Ltd
p2253
sg41
I2012
sg42
g27
sbsVAUS0000108
p2254
g2
(g3
g4
Ntp2255
Rp2256
(dp2257
g8
Nsg9
g10
sg11
g12
((lp2258
tp2259
Rp2260
sg16
F566.0
sg17
VMortlake
p2261
sg19
g20
sg21
g22
sg23
g24
sg25
Nsg26
g27
sg28
g2
(g29
g4
Ntp2262
Rp2263
(dp2264
g33
F-38.063169321999965
sg34
g27
sg35
F142.6674789110001
sbsg36
g2254
sg37
Nsg38
g10
sg39
VOrigin Energy
p2265
sg41
I2012
sg42
g27
sbsVAUS0000109
p2266
g2
(g3
g4
Ntp2267
Rp2268
(dp2269
g8
Nsg9
g10
sg11
g12
((lp2270
tp2271
Rp2272
sg16
F185.0
sg17
VDartmouth (Mount Beauty Hydro Scheme)
p2273
sg19
g63
sg21
g22
sg23
g24
sg25
Nsg26
g27
sg28
g2
(g29
g4
Ntp2274
Rp2275
(dp2276
g33
F-36.55642899999998
sg34
g27
sg35
F147.5205800000001
sbsg36
g2266
sg37
Nsg38
g10
sg39
VAGL Energy Pty Ltd
p2277
sg41
I2012
sg42
g27
sbsVAUS0000100
p2278
g2
(g3
g4
Ntp2279
Rp2280
(dp2281
g8
Nsg9
g10
sg11
g12
((lp2282
tp2283
Rp2284
sg16
F1480.0
sg17
VYallourn
p2285
sg19
g76
sg21
g22
sg23
g24
sg25
Nsg26
g27
sg28
g2
(g29
g4
Ntp2286
Rp2287
(dp2288
g33
F-38.17701499999998
sg34
g27
sg35
F146.34278300000005
sbsg36
g2278
sg37
Nsg38
g10
sg39
VTRUenergy
p2289
sg41
I2012
sg42
g27
sbsVAUS0000101
p2290
g2
(g3
g4
Ntp2291
Rp2292
(dp2293
g8
Nsg9
g10
sg11
g12
((lp2294
tp2295
Rp2296
sg16
F9.5
sg17
VYarrawonga
p2297
sg19
g63
sg21
g22
sg23
g24
sg25
Nsg26
g27
sg28
g2
(g29
g4
Ntp2298
Rp2299
(dp2300
g33
F-36.009387999999944
sg34
g27
sg35
F145.9994660000001
sbsg36
g2290
sg37
Nsg38
g10
sg39
VAGL Energy Pty Ltd
p2301
sg41
I2012
sg42
g27
sbsVAUS0000102
p2302
g2
(g3
g4
Ntp2303
Rp2304
(dp2305
g8
Nsg9
g10
sg11
g12
((lp2306
tp2307
Rp2308
sg16
F140.0
sg17
VBogong (Mount Beauty Hydro Scheme)
p2309
sg19
g63
sg21
g22
sg23
g24
sg25
Nsg26
g27
sg28
g2
(g29
g4
Ntp2310
Rp2311
(dp2312
g33
F-36.80546099999998
sg34
g27
sg35
F147.2280340000001
sbsg36
g2302
sg37
Nsg38
g10
sg39
VAGL Energy Pty Ltd
p2313
sg41
I2012
sg42
g27
sbsVAUS0000103
p2314
g2
(g3
g4
Ntp2315
Rp2316
(dp2317
g8
Nsg9
g10
sg11
g12
((lp2318
tp2319
Rp2320
sg16
F29.0
sg17
VClover
p2321
sg19
g63
sg21
g22
sg23
g24
sg25
Nsg26
g27
sg28
g2
(g29
g4
Ntp2322
Rp2323
(dp2324
g33
F-36.78528099999994
sg34
g27
sg35
F147.2204660000001
sbsg36
g2314
sg37
Nsg38
g10
sg39
VAGL Energy Pty Ltd
p2325
sg41
I2012
sg42
g27
sbsVAUS0000104
p2326
g2
(g3
g4
Ntp2327
Rp2328
(dp2329
g8
Nsg9
g10
sg11
g12
((lp2330
tp2331
Rp2332
sg16
F150.0
sg17
VMcKay Creek (Mount Beauty Hydro Scheme)
p2333
sg19
g63
sg21
g22
sg23
g24
sg25
Nsg26
g27
sg28
g2
(g29
g4
Ntp2334
Rp2335
(dp2336
g33
F-36.858393999999976
sg34
g27
sg35
F147.23454200000003
sbsg36
g2326
sg37
Nsg38
g10
sg39
VAGL Energy Pty Ltd
p2337
sg41
I2012
sg42
g27
sbsVAUS0000105
p2338
g2
(g3
g4
Ntp2339
Rp2340
(dp2341
g8
Nsg9
g10
sg11
g12
((lp2342
tp2343
Rp2344
sg16
F60.0
sg17
VWest Kiewa (Mount Beauty Hydro Scheme)
p2345
sg19
g63
sg21
g22
sg23
g24
sg25
Nsg26
g27
sg28
g2
(g29
g4
Ntp2346
Rp2347
(dp2348
g33
F-36.76006599999994
sg34
g27
sg35
F147.18604800000003
sbsg36
g2338
sg37
Nsg38
g10
sg39
VAGL Energy Pty Ltd
p2349
sg41
I2012
sg42
g27
sbsVAUS0000106
p2350
g2
(g3
g4
Ntp2351
Rp2352
(dp2353
g8
Nsg9
g10
sg11
g12
((lp2354
tp2355
Rp2356
sg16
F552.0
sg17
VMurray 2
p2357
sg19
g63
sg21
g22
sg23
g24
sg25
Nsg26
g27
sg28
g2
(g29
g4
Ntp2358
Rp2359
(dp2360
g33
F-36.242343999999946
sg34
g27
sg35
F148.13624700000003
sbsg36
g2350
sg37
Nsg38
g10
sg39
VSnowy Hydro Ltd
p2361
sg41
I2012
sg42
g27
sbsVAUS0000107
p2362
g2
(g3
g4
Ntp2363
Rp2364
(dp2365
g8
Nsg9
g10
sg11
g12
((lp2366
tp2367
Rp2368
sg16
F950.0
sg17
VMurray 1
p2369
sg19
g63
sg21
g22
sg23
g24
sg25
Nsg26
g27
sg28
g2
(g29
g4
Ntp2370
Rp2371
(dp2372
g33
F-36.24671299999994
sg34
g27
sg35
F148.19009500000004
sbsg36
g2362
sg37
Nsg38
g10
sg39
VSnowy Hydro Ltd
p2373
sg41
I2012
sg42
g27
sbsVAUS0000463
p2374
g2
(g3
g4
Ntp2375
Rp2376
(dp2377
g8
Nsg9
g10
sg11
g12
((lp2378
tp2379
Rp2380
sg16
F0.01
sg17
VErnabella
p2381
sg19
g210
sg21
g22
sg23
g24
sg25
Nsg26
g27
sg28
g2
(g29
g4
Ntp2382
Rp2383
(dp2384
g33
F-26.277960621999966
sg34
g27
sg35
F132.1313709970001
sbsg36
g2374
sg37
Nsg38
g10
sg39
VAnanga Pitjantjatjara Council
p2385
sg41
I2012
sg42
g27
sbsVAUS0000462
p2386
g2
(g3
g4
Ntp2387
Rp2388
(dp2389
g8
Nsg9
g10
sg11
g12
((lp2390
tp2391
Rp2392
sg16
F120.0
sg17
VCape Lambert
p2393
sg19
g20
sg21
g22
sg23
g24
sg25
Nsg26
g27
sg28
g2
(g29
g4
Ntp2394
Rp2395
(dp2396
g33
F-20.648770635999938
sg34
g27
sg35
F117.14073131500004
sbsg36
g2386
sg37
Nsg38
g10
sg39
VRio Tinto Australia Pty Ltd
p2397
sg41
I2014
sg42
g27
sbsVAUS0000461
p2398
g2
(g3
g4
Ntp2399
Rp2400
(dp2401
g8
Nsg9
g10
sg11
g12
((lp2402
tp2403
Rp2404
sg16
F33.0
sg17
VBulwer Island
p2405
sg19
g20
sg21
g22
sg23
g24
sg25
Nsg26
g27
sg28
g2
(g29
g4
Ntp2406
Rp2407
(dp2408
g33
F-27.40357955299993
sg34
g27
sg35
F153.13628579200008
sbsg36
g2398
sg37
Nsg38
g10
sg39
VATCO and Origin Energy
p2409
sg41
Nsg42
g27
sbsVAUS0000460
p2410
g2
(g3
g4
Ntp2411
Rp2412
(dp2413
g8
Nsg9
g10
sg11
g12
((lp2414
tp2415
Rp2416
sg16
F60.0
sg17
VLeichhardt
p2417
sg19
g20
sg21
g22
sg23
g24
sg25
Nsg26
g27
sg28
g2
(g29
g4
Ntp2418
Rp2419
(dp2420
g33
F-20.783335197999975
sg34
g27
sg35
F139.48622070400006
sbsg36
g2410
sg37
Nsg38
g10
sg39
VAPA Group and AGL Energy Ltd
p2421
sg41
Nsg42
g27
sbsVAUS0000467
p2422
g2
(g3
g4
Ntp2423
Rp2424
(dp2425
g8
Nsg9
g10
sg11
g12
((lp2426
tp2427
Rp2428
sg16
F0.13
sg17
VWindorah
p2429
sg19
g968
sg21
g22
sg23
g24
sg25
Nsg26
g27
sg28
g2
(g29
g4
Ntp2430
Rp2431
(dp2432
g33
F-25.412664425999935
sg34
g27
sg35
F142.66076150300012
sbsg36
g2422
sg37
Nsg38
g10
sg39
VErgon Energy
p2433
sg41
I2014
sg42
g27
sbsVAUS0000466
p2434
g2
(g3
g4
Ntp2435
Rp2436
(dp2437
g8
Nsg9
g10
sg11
g12
((lp2438
tp2439
Rp2440
sg16
F0.29
sg17
VLajamanu
p2441
sg19
g968
sg21
g22
sg23
g24
sg25
Nsg26
g27
sg28
g2
(g29
g4
Ntp2442
Rp2443
(dp2444
g33
F-18.32650366699994
sg34
g27
sg35
F130.62948965300006
sbsg36
g2434
sg37
Nsg38
g10
sg39
VPower and Water Corporation
p2445
sg41
I2014
sg42
g27
sbsVAUS0000465
p2446
g2
(g3
g4
Ntp2447
Rp2448
(dp2449
g8
Nsg9
g10
sg11
g12
((lp2450
tp2451
Rp2452
sg16
F0.24
sg17
VYuendumu
p2453
sg19
g968
sg21
g22
sg23
g24
sg25
Nsg26
g27
sg28
g2
(g29
g4
Ntp2454
Rp2455
(dp2456
g33
F-22.242590623999945
sg34
g27
sg35
F131.79314572300007
sbsg36
g2446
sg37
Nsg38
g10
sg39
VPower and Water Corporation
p2457
sg41
I2014
sg42
g27
sbsVAUS0000464
p2458
g2
(g3
g4
Ntp2459
Rp2460
(dp2461
g8
Nsg9
g10
sg11
g12
((lp2462
tp2463
Rp2464
sg16
F0.35
sg17
VUmuwa
p2465
sg19
g968
sg21
g22
sg23
g24
sg25
Nsg26
g27
sg28
g2
(g29
g4
Ntp2466
Rp2467
(dp2468
g33
F-26.47355590099994
sg34
g27
sg35
F132.01465681700006
sbsg36
g2458
sg37
Nsg38
g10
sg39
VSilex Systems
p2469
sg41
I2012
sg42
g27
sbsVAUS0000469
p2470
g2
(g3
g4
Ntp2471
Rp2472
(dp2473
g8
Nsg9
g10
sg11
g12
((lp2474
tp2475
Rp2476
sg16
F0.24
sg17
VAlice Springs Airport
p2477
sg19
g968
sg21
g22
sg23
g24
sg25
Nsg26
g27
sg28
g2
(g29
g4
Ntp2478
Rp2479
(dp2480
g33
F-23.796569829999953
sg34
g27
sg35
F133.89712081200003
sbsg36
g2470
sg37
Nsg38
g10
sg39
VAlice Springs Airport
p2481
sg41
I2014
sg42
g27
sbsVAUS0000468
p2482
g2
(g3
g4
Ntp2483
Rp2484
(dp2485
g8
Nsg9
g10
sg11
g12
((lp2486
tp2487
Rp2488
sg16
F0.3
sg17
VDoubleTree by Hilton Hotel
p2489
sg19
g968
sg21
g22
sg23
g24
sg25
Nsg26
g27
sg28
g2
(g29
g4
Ntp2490
Rp2491
(dp2492
g33
F-23.714967607999938
sg34
g27
sg35
F133.87945391000005
sbsg36
g2482
sg37
Nsg38
g10
sg39
VDoubleTree by Hilton Hotel (was Alice Springs Crowne Plaza)
p2493
sg41
I2014
sg42
g27
sbsVAUS0000355
p2494
g2
(g3
g4
Ntp2495
Rp2496
(dp2497
g8
Nsg9
g10
sg11
g12
((lp2498
tp2499
Rp2500
sg16
F3.2
sg17
VHenderson
p2501
sg19
g247
sg21
g22
sg23
g24
sg25
Nsg26
g27
sg28
g2
(g29
g4
Ntp2502
Rp2503
(dp2504
g33
F-32.16502101899994
sg34
g27
sg35
F115.80080012300004
sbsg36
g2494
sg37
Nsg38
g10
sg39
VWaste Gas Resources
p2505
sg41
I2012
sg42
g27
sbsVAUS0000354
p2506
g2
(g3
g4
Ntp2507
Rp2508
(dp2509
g8
Nsg9
g10
sg11
g12
((lp2510
tp2511
Rp2512
sg16
F1.8
sg17
VWoodman Point
p2513
sg19
g247
sg21
g22
sg23
g24
sg25
Nsg26
g27
sg28
g2
(g29
g4
Ntp2514
Rp2515
(dp2516
g33
F-32.14241985999996
sg34
g27
sg35
F115.77130495800009
sbsg36
g2506
sg37
Nsg38
g10
sg39
VWater Corporation
p2517
sg41
I2012
sg42
g27
sbsVAUS0000357
p2518
g2
(g3
g4
Ntp2519
Rp2520
(dp2521
g8
Nsg9
g10
sg11
g12
((lp2522
tp2523
Rp2524
sg16
F1.3
sg17
VMandurah
p2525
sg19
g247
sg21
g22
sg23
g24
sg25
Nsg26
g27
sg28
g2
(g29
g4
Ntp2526
Rp2527
(dp2528
g33
F-32.50791826999995
sg34
g27
sg35
F115.75895724000009
sbsg36
g2518
sg37
Nsg38
g10
sg39
g27
sg41
I2012
sg42
g27
sbsVAUS0000356
p2529
g2
(g3
g4
Ntp2530
Rp2531
(dp2532
g8
Nsg9
g10
sg11
g12
((lp2533
tp2534
Rp2535
sg16
F4.65
sg17
VTamala Park
p2536
sg19
g247
sg21
g22
sg23
g24
sg25
Nsg26
g27
sg28
g2
(g29
g4
Ntp2537
Rp2538
(dp2539
g33
F-31.707786128999942
sg34
g27
sg35
F115.72664485300004
sbsg36
g2529
sg37
Nsg38
g10
sg39
VLandfill Gas and Power Pty Ltd
p2540
sg41
I2012
sg42
g27
sbsVAUS0000218
p2541
g2
(g3
g4
Ntp2542
Rp2543
(dp2544
g8
Nsg9
g10
sg11
g12
((lp2545
tp2546
Rp2547
sg16
F180.0
sg17
VYurralyi Maya (Karratha Seven Mile)
p2548
sg19
g20
sg21
g22
sg23
g24
sg25
Nsg26
g27
sg28
g2
(g29
g4
Ntp2549
Rp2550
(dp2551
g33
F-20.761999999999944
sg34
g27
sg35
F116.74200000000008
sbsg36
g2541
sg37
Nsg38
g10
sg39
VRio Tinto Australia Pty Ltd
p2552
sg41
I2012
sg42
g27
sbsVAUS0000219
p2553
g2
(g3
g4
Ntp2554
Rp2555
(dp2556
g8
Nsg9
g10
sg11
g12
((lp2557
tp2558
Rp2559
sg16
F30.6
sg17
VLaverton (Granny Smith Gold Mine)
p2560
sg19
g210
sg21
g22
sg23
g24
sg25
Nsg26
g27
sg28
g2
(g29
g4
Ntp2561
Rp2562
(dp2563
g33
F-28.80964899999998
sg34
g27
sg35
F122.41502900000012
sbsg36
g2553
sg37
Nsg38
g10
sg39
VBarrick Gold of Australia
p2564
sg41
I2012
sg42
g27
sbsVAUS0000353
p2565
g2
(g3
g4
Ntp2566
Rp2567
(dp2568
g8
Nsg9
g10
sg11
g12
((lp2569
tp2570
Rp2571
sg16
F1.6
sg17
VDenham Diesel Backup
p2572
sg19
g210
sg21
g22
sg23
g24
sg25
Nsg26
g27
sg28
g2
(g29
g4
Ntp2573
Rp2574
(dp2575
g33
F-25.916724838999983
sg34
g27
sg35
F113.5339545280001
sbsg36
g2565
sg37
Nsg38
g10
sg39
VVerve Energy
p2576
sg41
I2012
sg42
g27
sbsVAUS0000352
p2577
g2
(g3
g4
Ntp2578
Rp2579
(dp2580
g8
Nsg9
g10
sg11
g12
((lp2581
tp2582
Rp2583
sg16
F0.92
sg17
VDenham Wind Turbines
p2584
sg19
g185
sg21
g22
sg23
g24
sg25
Nsg26
g27
sg28
g2
(g29
g4
Ntp2585
Rp2586
(dp2587
g33
F-25.91152386799996
sg34
g27
sg35
F113.54931095000006
sbsg36
g2577
sg37
Nsg38
g10
sg39
VVerve Energy
p2588
sg41
I2012
sg42
g27
sbsVAUS0000214
p2589
g2
(g3
g4
Ntp2590
Rp2591
(dp2592
g8
Nsg9
g10
sg11
g12
((lp2593
tp2594
Rp2595
sg16
F400.0
sg17
VMuja C
p2596
sg19
g76
sg21
g22
sg23
g24
sg25
Nsg26
g27
sg28
g2
(g29
g4
Ntp2597
Rp2598
(dp2599
g33
F-33.445810999999935
sg34
g27
sg35
F116.30601200000001
sbsg36
g2589
sg37
Nsg38
g10
sg39
VVerve Energy
p2600
sg41
I2012
sg42
g27
sbsVAUS0000215
p2601
g2
(g3
g4
Ntp2602
Rp2603
(dp2604
g8
Nsg9
g10
sg11
g12
((lp2605
tp2606
Rp2607
sg16
F454.0
sg17
VMuja D
p2608
sg19
g76
sg21
g22
sg23
g24
sg25
Nsg26
g27
sg28
g2
(g29
g4
Ntp2609
Rp2610
(dp2611
g33
F-33.44615999999996
sg34
g27
sg35
F116.30721300000005
sbsg36
g2601
sg37
Nsg38
g10
sg39
VVerve Energy
p2612
sg41
I2012
sg42
g27
sbsVAUS0000216
p2613
g2
(g3
g4
Ntp2614
Rp2615
(dp2616
g8
Nsg9
g10
sg11
g12
((lp2617
tp2618
Rp2619
sg16
F112.0
sg17
VMungarra
p2620
sg19
g20
sg21
g22
sg23
g24
sg25
Nsg26
g27
sg28
g2
(g29
g4
Ntp2621
Rp2622
(dp2623
g33
F-28.889321999999936
sg34
g27
sg35
F115.1179380000001
sbsg36
g2613
sg37
Nsg38
g10
sg39
VVerve Energy
p2624
sg41
I2012
sg42
g27
sbsVAUS0000217
p2625
g2
(g3
g4
Ntp2626
Rp2627
(dp2628
g8
Nsg9
g10
sg11
g12
((lp2629
tp2630
Rp2631
sg16
F106.0
sg17
VWorsley Cogeneration
p2632
sg19
g20
sg21
g22
sg23
g24
sg25
Nsg26
g27
sg28
g2
(g29
g4
Ntp2633
Rp2634
(dp2635
g33
F-33.23654589699993
sg34
g27
sg35
F116.06373772800009
sbsg36
g2625
sg37
Nsg38
g10
sg39
VWorsley Alumina Pty Ltd
p2636
sg41
I2012
sg42
g27
sbsVAUS0000210
p2637
g2
(g3
g4
Ntp2638
Rp2639
(dp2640
g8
Nsg9
g10
sg11
g12
((lp2641
tp2642
Rp2643
sg16
F42.0
sg17
VKambalda
p2644
sg19
g20
sg21
g22
sg23
g24
sg25
Nsg26
g27
sg28
g2
(g29
g4
Ntp2645
Rp2646
(dp2647
g33
F-31.191934793999962
sg34
g27
sg35
F121.67408425000008
sbsg36
g2637
sg37
Nsg38
g10
sg39
VSouthern Cross Energy
p2648
sg41
I2012
sg42
g27
sbsVAUS0000211
p2649
g2
(g3
g4
Ntp2650
Rp2651
(dp2652
g8
Nsg9
g10
sg11
g12
((lp2653
tp2654
Rp2655
sg16
F310.0
sg17
VKemerton
p2656
sg19
g20
sg21
g22
sg23
g24
sg25
Nsg26
g27
sg28
g2
(g29
g4
Ntp2657
Rp2658
(dp2659
g33
F-33.16324999999995
sg34
g27
sg35
F115.78054000000009
sbsg36
g2649
sg37
Nsg38
g10
sg39
VTransfield Services Infrastructure Fund
p2660
sg41
I2012
sg42
g27
sbsVAUS0000212
p2661
g2
(g3
g4
Ntp2662
Rp2663
(dp2664
g8
Nsg9
g10
sg11
g12
((lp2665
tp2666
Rp2667
sg16
F59.0
sg17
VLeinster Nickel Mine
p2668
sg19
g20
sg21
g22
sg23
g24
sg25
Nsg26
g27
sg28
g2
(g29
g4
Ntp2669
Rp2670
(dp2671
g33
F-27.814121499999942
sg34
g27
sg35
F120.69899650000002
sbsg36
g2661
sg37
Nsg38
g10
sg39
VSouthern Cross Energy
p2672
sg41
I2012
sg42
g27
sbsVAUS0000213
p2673
g2
(g3
g4
Ntp2674
Rp2675
(dp2676
g8
Nsg9
g10
sg11
g12
((lp2677
tp2678
Rp2679
sg16
F112.0
sg17
VMount Keith Nickel Mine
p2680
sg19
g20
sg21
g22
sg23
g24
sg25
Nsg26
g27
sg28
g2
(g29
g4
Ntp2681
Rp2682
(dp2683
g33
F-27.214582999999948
sg34
g27
sg35
F120.54797900000005
sbsg36
g2673
sg37
Nsg38
g10
sg39
VSouthern Cross Energy
p2684
sg41
I2012
sg42
g27
sbsVAUS0000070
p2685
g2
(g3
g4
Ntp2686
Rp2687
(dp2688
g8
Nsg9
g10
sg11
g12
((lp2689
tp2690
Rp2691
sg16
F3.3
sg17
VTi Tree Bioenergy
p2692
sg19
g247
sg21
g22
sg23
g24
sg25
Nsg26
g27
sg28
g2
(g29
g4
Ntp2693
Rp2694
(dp2695
g33
F-27.680163999999934
sg34
g27
sg35
F152.65929500000004
sbsg36
g2685
sg37
Nsg38
g10
sg39
VVeolia Environmental Services (Aust) Pty Ltd
p2696
sg41
I2012
sg42
g27
sbsVAUS0000071
p2697
g2
(g3
g4
Ntp2698
Rp2699
(dp2700
g8
Nsg9
g10
sg11
g12
((lp2701
tp2702
Rp2703
sg16
F4.12
sg17
VSpringvale
p2704
sg19
g247
sg21
g22
sg23
g24
sg25
Nsg26
g27
sg28
g2
(g29
g4
Ntp2705
Rp2706
(dp2707
g33
F-37.973296999999945
sg34
g27
sg35
F145.1396350000001
sbsg36
g2697
sg37
Nsg38
g10
sg39
VEnergy Developments LFG (Victoria) Pty Ltd
p2708
sg41
I2012
sg42
g27
sbsVAUS0000072
p2709
g2
(g3
g4
Ntp2710
Rp2711
(dp2712
g8
Nsg9
g10
sg11
g12
((lp2713
tp2714
Rp2715
sg16
F1.0
sg17
VRoghan Road
p2716
sg19
g247
sg21
g22
sg23
g24
sg25
Nsg26
g27
sg28
g2
(g29
g4
Ntp2717
Rp2718
(dp2719
g33
F-27.33876799999996
sg34
g27
sg35
F153.03435000000002
sbsg36
g2709
sg37
Nsg38
g10
sg39
VEnergy Developments LFG (Qld) Pty Ltd
p2720
sg41
I2012
sg42
g27
sbsVAUS0000073
p2721
g2
(g3
g4
Ntp2722
Rp2723
(dp2724
g8
Nsg9
g10
sg11
g12
((lp2725
tp2726
Rp2727
sg16
F4.2
sg17
VRochedale
p2728
sg19
g247
sg21
g22
sg23
g24
sg25
Nsg26
g27
sg28
g2
(g29
g4
Ntp2729
Rp2730
(dp2731
g33
F-27.559116999999958
sg34
g27
sg35
F153.12363400000004
sbsg36
g2721
sg37
Nsg38
g10
sg39
VLMS Energy Generation Pty Ltd
p2732
sg41
I2012
sg42
g27
sbsVAUS0000074
p2733
g2
(g3
g4
Ntp2734
Rp2735
(dp2736
g8
Nsg9
g10
sg11
g12
((lp2737
tp2738
Rp2739
sg16
F14.0
sg17
VPlane Creek Sugar Mill
p2740
sg19
g307
sg21
g22
sg23
g24
sg25
Nsg26
g27
sg28
g2
(g29
g4
Ntp2741
Rp2742
(dp2743
g33
F-21.428222999999946
sg34
g27
sg35
F149.21591200000012
sbsg36
g2733
sg37
Nsg38
g10
sg39
VSucrogen (Plane Creek Mill) Pty Ltd
p2744
sg41
I2012
sg42
g27
sbsVAUS0000075
p2745
g2
(g3
g4
Ntp2746
Rp2747
(dp2748
g8
Nsg9
g10
sg11
g12
((lp2749
tp2750
Rp2751
sg16
F1000.0
sg17
VLoy Yang B
p2752
sg19
g76
sg21
g22
sg23
g24
sg25
Nsg26
g27
sg28
g2
(g29
g4
Ntp2753
Rp2754
(dp2755
g33
F-38.25644699999998
sg34
g27
sg35
F146.5863700000001
sbsg36
g2745
sg37
Nsg38
g10
sg39
VIPM Australia Limited
p2756
sg41
I2012
sg42
g27
sbsVAUS0000076
p2757
g2
(g3
g4
Ntp2758
Rp2759
(dp2760
g8
Nsg9
g10
sg11
g12
((lp2761
tp2762
Rp2763
sg16
F58.0
sg17
VHume
p2764
sg19
g63
sg21
g22
sg23
g24
sg25
Nsg26
g27
sg28
g2
(g29
g4
Ntp2765
Rp2766
(dp2767
g33
F-36.10661899999997
sg34
g27
sg35
F147.03262200000006
sbsg36
g2757
sg37
Nsg38
g10
sg39
VEraring Energy
p2768
sg41
I2012
sg42
g27
sbsVAUS0000077
p2769
g2
(g3
g4
Ntp2770
Rp2771
(dp2772
g8
Nsg9
g10
sg11
g12
((lp2773
tp2774
Rp2775
sg16
F6.7
sg17
VHallam Road
p2776
sg19
g247
sg21
g22
sg23
g24
sg25
Nsg26
g27
sg28
g2
(g29
g4
Ntp2777
Rp2778
(dp2779
g33
F-38.053342999999984
sg34
g27
sg35
F145.26985600000012
sbsg36
g2769
sg37
Nsg38
g10
sg39
VLMS Energy Generation Pty Ltd
p2780
sg41
I2012
sg42
g27
sbsVAUS0000078
p2781
g2
(g3
g4
Ntp2782
Rp2783
(dp2784
g8
Nsg9
g10
sg11
g12
((lp2785
tp2786
Rp2787
sg16
F2.2
sg17
VBrowns Plains
p2788
sg19
g247
sg21
g22
sg23
g24
sg25
Nsg26
g27
sg28
g2
(g29
g4
Ntp2789
Rp2790
(dp2791
g33
F-27.67213099999998
sg34
g27
sg35
F153.06634600000007
sbsg36
g2781
sg37
Nsg38
g10
sg39
VEnergy Developments LFG (Qld) Pty Ltd
p2792
sg41
I2012
sg42
g27
sbsVAUS0000079
p2793
g2
(g3
g4
Ntp2794
Rp2795
(dp2796
g8
Nsg9
g10
sg11
g12
((lp2797
tp2798
Rp2799
sg16
F2.8
sg17
VBrooklyn
p2800
sg19
g247
sg21
g22
sg23
g24
sg25
Nsg26
g27
sg28
g2
(g29
g4
Ntp2801
Rp2802
(dp2803
g33
F-37.81796699999995
sg34
g27
sg35
F144.83187600000008
sbsg36
g2793
sg37
Nsg38
g10
sg39
VEnergy Developments LFG (Victoria) Pty Ltd
p2804
sg41
I2012
sg42
g27
sbsVAUS0000238
p2805
g2
(g3
g4
Ntp2806
Rp2807
(dp2808
g8
Nsg9
g10
sg11
g12
((lp2809
tp2810
Rp2811
sg16
F73.5
sg17
VPort Lincoln
p2812
sg19
g210
sg21
g22
sg23
g24
sg25
Nsg26
g27
sg28
g2
(g29
g4
Ntp2813
Rp2814
(dp2815
g33
F-34.700189999999964
sg34
g27
sg35
F135.80472800000007
sbsg36
g2805
sg37
Nsg38
g10
sg39
VSynergen Power
p2816
sg41
I2012
sg42
g27
sbsVAUS0000330
p2817
g2
(g3
g4
Ntp2818
Rp2819
(dp2820
g8
Nsg9
g10
sg11
g12
((lp2821
tp2822
Rp2823
sg16
F4.0
sg17
VCanning Vale
p2824
sg19
g247
sg21
g22
sg23
g24
sg25
Nsg26
g27
sg28
g2
(g29
g4
Ntp2825
Rp2826
(dp2827
g33
F-32.073898749999955
sg34
g27
sg35
F115.89140569100005
sbsg36
g2817
sg37
Nsg38
g10
sg39
VLandfill Gas and Power Pty Ltd
p2828
sg41
I2012
sg42
g27
sbsVAUS0000416
p2829
g2
(g3
g4
Ntp2830
Rp2831
(dp2832
g8
Nsg9
g10
sg11
g12
((lp2833
tp2834
Rp2835
sg16
F150.0
sg17
VBuronga
p2836
sg19
g20
sg21
g22
sg23
g24
sg25
Nsg26
g27
sg28
g2
(g29
g4
Ntp2837
Rp2838
(dp2839
g33
F-34.10134192299995
sg34
g27
sg35
F142.26166023300004
sbsg36
g2829
sg37
Nsg38
g10
sg39
VInternational Power Pty Ltd
p2840
sg41
I2012
sg42
g27
sbsVAUS0000417
p2841
g2
(g3
g4
Ntp2842
Rp2843
(dp2844
g8
Nsg9
g10
sg11
g12
((lp2845
tp2846
Rp2847
sg16
F420.0
sg17
VMacarthur Wind Farm
p2848
sg19
g185
sg21
g22
sg23
g24
sg25
Nsg26
g27
sg28
g2
(g29
g4
Ntp2849
Rp2850
(dp2851
g33
F-38.00752684299994
sg34
g27
sg35
F142.18651013700003
sbsg36
g2841
sg37
Nsg38
g10
sg39
VAGL Energy Pty Ltd
p2852
sg41
I2012
sg42
g27
sbsVAUS0000429
p2853
g2
(g3
g4
Ntp2854
Rp2855
(dp2856
g8
Nsg9
g10
sg11
g12
((lp2857
tp2858
Rp2859
sg16
F0.18
sg17
VMonash University (Clayton Campus) Solar Array
p2860
sg19
g968
sg21
g22
sg23
g24
sg25
Nsg26
g27
sg28
g2
(g29
g4
Ntp2861
Rp2862
(dp2863
g33
F-37.91178734799996
sg34
g27
sg35
F145.13299610500007
sbsg36
g2853
sg37
Nsg38
g10
sg39
VMonash University
p2864
sg41
I2012
sg42
g27
sbsVAUS0000428
p2865
g2
(g3
g4
Ntp2866
Rp2867
(dp2868
g8
Nsg9
g10
sg11
g12
((lp2869
tp2870
Rp2871
sg16
F0.14
sg17
VBridgewater Solar
p2872
sg19
g968
sg21
g22
sg23
g24
sg25
Nsg26
g27
sg28
g2
(g29
g4
Ntp2873
Rp2874
(dp2875
g33
F-36.61349914099998
sg34
g27
sg35
F143.9528805340001
sbsg36
g2865
sg37
Nsg38
g10
sg39
VSilex Systems
p2876
sg41
I2012
sg42
g27
sbsVAUS0000427
p2877
g2
(g3
g4
Ntp2878
Rp2879
(dp2880
g8
Nsg9
g10
sg11
g12
((lp2881
tp2882
Rp2883
sg16
F0.24
sg17
VTulla Calder Interchange Solar Array
p2884
sg19
g968
sg21
g22
sg23
g24
sg25
Nsg26
g27
sg28
g2
(g29
g4
Ntp2885
Rp2886
(dp2887
g33
F-37.73527874299998
sg34
g27
sg35
F144.894816826
sbsg36
g2877
sg37
Nsg38
g10
sg39
VTullamarine Calder Alliance
p2888
sg41
I2012
sg42
g27
sbsVAUS0000426
p2889
g2
(g3
g4
Ntp2890
Rp2891
(dp2892
g8
Nsg9
g10
sg11
g12
((lp2893
tp2894
Rp2895
sg16
F2.37
sg17
VPerth Zoo
p2896
sg19
g968
sg21
g22
sg23
g24
sg25
Nsg26
g27
sg28
g2
(g29
g4
Ntp2897
Rp2898
(dp2899
g33
F-31.976662782999938
sg34
g27
sg35
F115.85478006900007
sbsg36
g2889
sg37
Nsg38
g10
sg39
VPerth Zoo
p2900
sg41
I2012
sg42
g27
sbsVAUS0000425
p2901
g2
(g3
g4
Ntp2902
Rp2903
(dp2904
g8
Nsg9
g10
sg11
g12
((lp2905
tp2906
Rp2907
sg16
F1.2
sg17
VUniversity of Queensland (St Lucia Campus) Solar Array
p2908
sg19
g968
sg21
g22
sg23
g24
sg25
Nsg26
g27
sg28
g2
(g29
g4
Ntp2909
Rp2910
(dp2911
g33
F-27.494958560999976
sg34
g27
sg35
F153.01013752400002
sbsg36
g2901
sg37
Nsg38
g10
sg39
VUniversity of Queensland
p2912
sg41
I2012
sg42
g27
sbsVAUS0000424
p2913
g2
(g3
g4
Ntp2914
Rp2915
(dp2916
g8
Nsg9
g10
sg11
g12
((lp2917
tp2918
Rp2919
sg16
F20.9
sg17
VMcArthur River Mine
p2920
sg19
g20
sg21
g22
sg23
g24
sg25
Nsg26
g27
sg28
g2
(g29
g4
Ntp2921
Rp2922
(dp2923
g33
F-16.433498250999946
sg34
g27
sg35
F136.09345945200005
sbsg36
g2913
sg37
Nsg38
g10
sg39
VEnergy Developments Ltd
p2924
sg41
I2012
sg42
g27
sbsVAUS0000230
p2925
g2
(g3
g4
Ntp2926
Rp2927
(dp2928
g8
Nsg9
g10
sg11
g12
((lp2929
tp2930
Rp2931
sg16
F159.0
sg17
VTelfer Gold Mine
p2932
sg19
g20
sg21
g22
sg23
g24
sg25
Nsg26
g27
sg28
g2
(g29
g4
Ntp2933
Rp2934
(dp2935
g33
F-21.712910999999963
sg34
g27
sg35
F122.20910300000003
sbsg36
g2925
sg37
Nsg38
g10
sg39
VNewcrest Mining Ltd
p2936
sg41
I2012
sg42
g27
sbsVAUS0000421
p2937
g2
(g3
g4
Ntp2938
Rp2939
(dp2940
g8
Nsg9
g10
sg11
g12
((lp2941
tp2942
Rp2943
sg16
F0.24
sg17
VKings Canyon
p2944
sg19
g968
sg21
g22
sg23
g24
sg25
Nsg26
g27
sg28
g2
(g29
g4
Ntp2945
Rp2946
(dp2947
g33
F-24.25091958799993
sg34
g27
sg35
F131.50064981900005
sbsg36
g2937
sg37
Nsg38
g10
sg39
VPower and Water Corporation
p2948
sg41
I2012
sg42
g27
sbsVAUS0000420
p2949
g2
(g3
g4
Ntp2950
Rp2951
(dp2952
g8
Nsg9
g10
sg11
g12
((lp2953
tp2954
Rp2955
sg16
F168.0
sg17
VMusselroe
p2956
sg19
g185
sg21
g22
sg23
g24
sg25
Nsg26
g27
sg28
g2
(g29
g4
Ntp2957
Rp2958
(dp2959
g33
F-40.779757995999944
sg34
g27
sg35
F148.00975916900006
sbsg36
g2949
sg37
Nsg38
g10
sg39
VHydro Tasmania Wind Operations Pty Ltd
p2960
sg41
I2013
sg42
g27
sbsVAUS0000258
p2961
g2
(g3
g4
Ntp2962
Rp2963
(dp2964
g8
Nsg9
g10
sg11
g12
((lp2965
tp2966
Rp2967
sg16
F34.76
sg17
VPine Creek
p2968
sg19
g20
sg21
g22
sg23
g24
sg25
Nsg26
g27
sg28
g2
(g29
g4
Ntp2969
Rp2970
(dp2971
g33
F-13.785609999999963
sg34
g27
sg35
F131.86236200000008
sbsg36
g2961
sg37
Nsg38
g10
sg39
VNGD (NT) / Cosmo Power
p2972
sg41
I2012
sg42
g27
sbsVAUS0000259
p2973
g2
(g3
g4
Ntp2974
Rp2975
(dp2976
g8
Nsg9
g10
sg11
g12
((lp2977
tp2978
Rp2979
sg16
F21.0
sg17
VKatherine
p2980
sg19
g20
sg21
g22
sg23
g24
sg25
Nsg26
g27
sg28
g2
(g29
g4
Ntp2981
Rp2982
(dp2983
g33
F-14.458692999999926
sg34
g27
sg35
F132.24450600000011
sbsg36
g2973
sg37
Nsg38
g10
sg39
VNT Power and Water
p2984
sg41
I2012
sg42
g27
sbsVAUS0000393
p2985
g2
(g3
g4
Ntp2986
Rp2987
(dp2988
g8
Nsg9
g10
sg11
g12
((lp2989
tp2990
Rp2991
sg16
F120.0
sg17
VMuja A
p2992
sg19
g76
sg21
g22
sg23
g24
sg25
Nsg26
g27
sg28
g2
(g29
g4
Ntp2993
Rp2994
(dp2995
g33
F-33.44667107299995
sg34
g27
sg35
F116.30810859200005
sbsg36
g2985
sg37
Nsg38
g10
sg39
VVerve Energy
p2996
sg41
I2012
sg42
g27
sbsVAUS0000231
p2997
g2
(g3
g4
Ntp2998
Rp2999
(dp3000
g8
Nsg9
g10
sg11
g12
((lp3001
tp3002
Rp3003
sg16
F4.0
sg17
VAmcor Gawler
p3004
sg19
g210
sg21
g22
sg23
g24
sg25
Nsg26
g27
sg28
g2
(g29
g4
Ntp3005
Rp3006
(dp3007
g33
F-34.55085699999995
sg34
g27
sg35
F138.76586400000008
sbsg36
g2997
sg37
Nsg38
g10
sg39
VEnergy Response
p3008
sg41
I2012
sg42
g27
sbsVAUS0000395
p3009
g2
(g3
g4
Ntp3010
Rp3011
(dp3012
g8
Nsg9
g10
sg11
g12
((lp3013
tp3014
Rp3015
sg16
F200.0
sg17
VBen Lomond
p3016
sg19
g185
sg21
g22
sg23
g24
sg25
Nsg26
g27
sg28
g2
(g29
g4
Ntp3017
Rp3018
(dp3019
g33
F-29.962256424999964
sg34
g27
sg35
F151.65852993400006
sbsg36
g3009
sg37
Nsg38
g10
sg39
VAGL Energy
p3020
sg41
I2012
sg42
g27
sbsVAUS0000394
p3021
g2
(g3
g4
Ntp3022
Rp3023
(dp3024
g8
Nsg9
g10
sg11
g12
((lp3025
tp3026
Rp3027
sg16
F270.0
sg17
VBoco Rock
p3028
sg19
g185
sg21
g22
sg23
g24
sg25
Nsg26
g27
sg28
g2
(g29
g4
Ntp3029
Rp3030
(dp3031
g33
F-36.591414215999976
sg34
g27
sg35
F149.12967511600004
sbsg36
g3021
sg37
Nsg38
g10
sg39
VBoco Rock Wind Farm Pty Ltd
p3032
sg41
I2012
sg42
g27
sbsVAUS0000397
p3033
g2
(g3
g4
Ntp3034
Rp3035
(dp3036
g8
Nsg9
g10
sg11
g12
((lp3037
tp3038
Rp3039
sg16
F320.0
sg17
VBamarang
p3040
sg19
g20
sg21
g22
sg23
g24
sg25
Nsg26
g27
sg28
g2
(g29
g4
Ntp3041
Rp3042
(dp3043
g33
F-34.902981058999956
sg34
g27
sg35
F150.52582206400007
sbsg36
g3033
sg37
Nsg38
g10
sg39
VInfratil Energy Australia Pty Ltd
p3044
sg41
I2012
sg42
g27
sbsVAUS0000396
p3045
g2
(g3
g4
Ntp3046
Rp3047
(dp3048
g8
Nsg9
g10
sg11
g12
((lp3049
tp3050
Rp3051
sg16
F600.0
sg17
VBannaby
p3052
sg19
g20
sg21
g22
sg23
g24
sg25
Nsg26
g27
sg28
g2
(g29
g4
Ntp3053
Rp3054
(dp3055
g33
F-34.43176223299997
sg34
g27
sg35
F150.05305831200008
sbsg36
g3045
sg37
Nsg38
g10
sg39
VSnowy Hydro Ltd
p3056
sg41
I2012
sg42
g27
sbsVAUS0000250
p3057
g2
(g3
g4
Ntp3058
Rp3059
(dp3060
g8
Nsg9
g10
sg11
g12
((lp3061
tp3062
Rp3063
sg16
F228.3
sg17
VHallett
p3064
sg19
g20
sg21
g22
sg23
g24
sg25
Nsg26
g27
sg28
g2
(g29
g4
Ntp3065
Rp3066
(dp3067
g33
F-33.34865199999996
sg34
g27
sg35
F138.75165900000002
sbsg36
g3057
sg37
Nsg38
g10
sg39
VTRUenergy
p3068
sg41
I2012
sg42
g27
sbsVAUS0000251
p3069
g2
(g3
g4
Ntp3070
Rp3071
(dp3072
g8
Nsg9
g10
sg11
g12
((lp3073
tp3074
Rp3075
sg16
F10.0
sg17
VBerrimah
p3076
sg19
g20
sg21
g22
sg23
g24
sg25
Nsg26
g27
sg28
g2
(g29
g4
Ntp3077
Rp3078
(dp3079
g33
F-12.426175999999941
sg34
g27
sg35
F130.91947600000003
sbsg36
g3069
sg37
Nsg38
g10
sg39
VNT Power and Water
p3080
sg41
I2012
sg42
g27
sbsVAUS0000252
p3081
g2
(g3
g4
Ntp3082
Rp3083
(dp3084
g8
Nsg9
g10
sg11
g12
((lp3085
tp3086
Rp3087
sg16
F1.1
sg17
VLandfill Management Services Shoal Bay
p3088
sg19
g247
sg21
g22
sg23
g24
sg25
Nsg26
g27
sg28
g2
(g29
g4
Ntp3089
Rp3090
(dp3091
g33
F-12.389173999999969
sg34
g27
sg35
F130.92540800000006
sbsg36
g3081
sg37
Nsg38
g10
sg39
VLMS Energy Generation Pty Ltd
p3092
sg41
I2012
sg42
g27
sbsVAUS0000253
p3093
g2
(g3
g4
Ntp3094
Rp3095
(dp3096
g8
Nsg9
g10
sg11
g12
((lp3097
tp3098
Rp3099
sg16
F18.2
sg17
VTennant Creek
p3100
sg19
g20
sg21
g22
sg23
g24
sg25
Nsg26
g27
sg28
g2
(g29
g4
Ntp3101
Rp3102
(dp3103
g33
F-19.65492999999998
sg34
g27
sg35
F134.17528500000003
sbsg36
g3093
sg37
Nsg38
g10
sg39
VNT Power and Water
p3104
sg41
I2012
sg42
g27
sbsVAUS0000254
p3105
g2
(g3
g4
Ntp3106
Rp3107
(dp3108
g8
Nsg9
g10
sg11
g12
((lp3109
tp3110
Rp3111
sg16
F59.6
sg17
VRon Goodin
p3112
sg19
g20
sg21
g22
sg23
g24
sg25
Nsg26
g27
sg28
g2
(g29
g4
Ntp3113
Rp3114
(dp3115
g33
F-23.709108999999955
sg34
g27
sg35
F133.8911750000001
sbsg36
g3105
sg37
Nsg38
g10
sg39
VNT Power and Water
p3116
sg41
I2012
sg42
g27
sbsVAUS0000255
p3117
g2
(g3
g4
Ntp3118
Rp3119
(dp3120
g8
Nsg9
g10
sg11
g12
((lp3121
tp3122
Rp3123
sg16
F36.7
sg17
VOwen Springs
p3124
sg19
g20
sg21
g22
sg23
g24
sg25
Nsg26
g27
sg28
g2
(g29
g4
Ntp3125
Rp3126
(dp3127
g33
F-23.863610999999935
sg34
g27
sg35
F133.82548700000007
sbsg36
g3117
sg37
Nsg38
g10
sg39
VNT Power and Water
p3128
sg41
I2012
sg42
g27
sbsVAUS0000256
p3129
g2
(g3
g4
Ntp3130
Rp3131
(dp3132
g8
Nsg9
g10
sg11
g12
((lp3133
tp3134
Rp3135
sg16
F8.5
sg17
VBrewer
p3136
sg19
g20
sg21
g22
sg23
g24
sg25
Nsg26
g27
sg28
g2
(g29
g4
Ntp3137
Rp3138
(dp3139
g33
F-23.88169799999997
sg34
g27
sg35
F133.82814300000007
sbsg36
g3129
sg37
Nsg38
g10
sg39
VCentral Energy Power
p3140
sg41
I2012
sg42
g27
sbsVAUS0000257
p3141
g2
(g3
g4
Ntp3142
Rp3143
(dp3144
g8
Nsg9
g10
sg11
g12
((lp3145
tp3146
Rp3147
sg16
F4.5
sg17
VYulara
p3148
sg19
g20
sg21
g22
sg23
g24
sg25
Nsg26
g27
sg28
g2
(g29
g4
Ntp3149
Rp3150
(dp3151
g33
F-25.232312999999976
sg34
g27
sg35
F130.9911810000001
sbsg36
g3141
sg37
Nsg38
g10
sg39
VNT Power and Water
p3152
sg41
I2012
sg42
g27
sbsVAUS0000153
p3153
g2
(g3
g4
Ntp3154
Rp3155
(dp3156
g8
Nsg9
g10
sg11
g12
((lp3157
tp3158
Rp3159
sg16
F519.0
sg17
VBraemar 2
p3160
sg19
g20
sg21
g22
sg23
g24
sg25
Nsg26
g27
sg28
g2
(g29
g4
Ntp3161
Rp3162
(dp3163
g33
F-27.112811267999973
sg34
g27
sg35
F150.90487826100002
sbsg36
g3153
sg37
Nsg38
g10
sg39
VArrow Energy
p3164
sg41
I2013
sg42
g27
sbsVAUS0000152
p3165
g2
(g3
g4
Ntp3166
Rp3167
(dp3168
g8
Nsg9
g10
sg11
g12
((lp3169
tp3170
Rp3171
sg16
F504.0
sg17
VBraemar 1
p3172
sg19
g20
sg21
g22
sg23
g24
sg25
Nsg26
g27
sg28
g2
(g29
g4
Ntp3173
Rp3174
(dp3175
g33
F-27.11093399999993
sg34
g27
sg35
F150.90533700000003
sbsg36
g3165
sg37
Nsg38
g10
sg39
VAlinta Energy
p3176
sg41
I2012
sg42
g27
sbsVAUS0000151
p3177
g2
(g3
g4
Ntp3178
Rp3179
(dp3180
g8
Nsg9
g10
sg11
g12
((lp3181
tp3182
Rp3183
sg16
F66.0
sg17
VBarron Gorge
p3184
sg19
g63
sg21
g22
sg23
g24
sg25
Nsg26
g27
sg28
g2
(g29
g4
Ntp3185
Rp3186
(dp3187
g33
F-16.850198999999975
sg34
g27
sg35
F145.64649500000007
sbsg36
g3177
sg37
Nsg38
g10
sg39
VStanwell Corporation Ltd
p3188
sg41
I2012
sg42
g27
sbsVAUS0000099
p3189
g2
(g3
g4
Ntp3190
Rp3191
(dp3192
g8
Nsg9
g10
sg11
g12
((lp3193
tp3194
Rp3195
sg16
F1.8
sg17
VLake William Hovell
p3196
sg19
g63
sg21
g22
sg23
g24
sg25
Nsg26
g27
sg28
g2
(g29
g4
Ntp3197
Rp3198
(dp3199
g33
F-36.91317699999996
sg34
g27
sg35
F146.3915720000001
sbsg36
g3189
sg37
Nsg38
g10
sg39
VPacific Hydro Investments Pty Ltd
p3200
sg41
I2012
sg42
g27
sbsVAUS0000157
p3201
g2
(g3
g4
Ntp3202
Rp3203
(dp3204
g8
Nsg9
g10
sg11
g12
((lp3205
tp3206
Rp3207
sg16
F31.8
sg17
VGerman Creek
p3208
sg19
g20
sg21
g22
sg23
g24
sg25
Nsg26
g27
sg28
g2
(g29
g4
Ntp3209
Rp3210
(dp3211
g33
F-22.928146999999967
sg34
g27
sg35
F148.55149700000004
sbsg36
g3201
sg37
Nsg38
g10
sg39
VEnergy Developments CSM (Qld) Pty Ltd
p3212
sg41
I2012
sg42
g27
sbsVAUS0000156
p3213
g2
(g3
g4
Ntp3214
Rp3215
(dp3216
g8
Nsg9
g10
sg11
g12
((lp3217
tp3218
Rp3219
sg16
F644.0
sg17
VDarling Downs
p3220
sg19
g20
sg21
g22
sg23
g24
sg25
Nsg26
g27
sg28
g2
(g29
g4
Ntp3221
Rp3222
(dp3223
g33
F-27.116891412999962
sg34
g27
sg35
F150.89421701800006
sbsg36
g3213
sg37
Nsg38
g10
sg39
VOrigin Energy
p3224
sg41
I2012
sg42
g27
sbsVAUS0000155
p3225
g2
(g3
g4
Ntp3226
Rp3227
(dp3228
g8
Nsg9
g10
sg11
g12
((lp3229
tp3230
Rp3231
sg16
F30.0
sg17
VDaandine
p3232
sg19
g20
sg21
g22
sg23
g24
sg25
Nsg26
g27
sg28
g2
(g29
g4
Ntp3233
Rp3234
(dp3235
g33
F-27.08631996699995
sg34
g27
sg35
F150.94300545900012
sbsg36
g3225
sg37
Nsg38
g10
sg39
VEnergy Infrastructure Investments Pty Ltd
p3236
sg41
I2012
sg42
g27
sbsVAUS0000154
p3237
g2
(g3
g4
Ntp3238
Rp3239
(dp3240
g8
Nsg9
g10
sg11
g12
((lp3241
tp3242
Rp3243
sg16
F144.0
sg17
VCondamine A
p3244
sg19
g20
sg21
g22
sg23
g24
sg25
Nsg26
g27
sg28
g2
(g29
g4
Ntp3245
Rp3246
(dp3247
g33
F-26.668222211999932
sg34
g27
sg35
F150.27001446500003
sbsg36
g3237
sg37
Nsg38
g10
sg39
VQueensland Gas Company
p3248
sg41
I2012
sg42
g27
sbsVAUS0000092
p3249
g2
(g3
g4
Ntp3250
Rp3251
(dp3252
g8
Nsg9
g10
sg11
g12
((lp3253
tp3254
Rp3255
sg16
F2180.0
sg17
VLoy Yang A
p3256
sg19
g76
sg21
g22
sg23
g24
sg25
Nsg26
g27
sg28
g2
(g29
g4
Ntp3257
Rp3258
(dp3259
g33
F-38.25359999999995
sg34
g27
sg35
F146.5745690000001
sbsg36
g3249
sg37
Nsg38
g10
sg39
VGEAC Great Energy Alliance Corporation
p3260
sg41
I2012
sg42
g27
sbsVAUS0000093
p3261
g2
(g3
g4
Ntp3262
Rp3263
(dp3264
g8
Nsg9
g10
sg11
g12
((lp3265
tp3266
Rp3267
sg16
F0.8
sg17
VMornington
p3268
sg19
g247
sg21
g22
sg23
g24
sg25
Nsg26
g27
sg28
g2
(g29
g4
Ntp3269
Rp3270
(dp3271
g33
F-38.39163099999996
sg34
g27
sg35
F144.85532200000011
sbsg36
g3261
sg37
Nsg38
g10
sg39
VLMS Generation Pty Ltd
p3272
sg41
I2012
sg42
g27
sbsVAUS0000090
p3273
g2
(g3
g4
Ntp3274
Rp3275
(dp3276
g8
Nsg9
g10
sg11
g12
((lp3277
tp3278
Rp3279
sg16
F312.0
sg17
VLaverton North
p3280
sg19
g20
sg21
g22
sg23
g24
sg25
Nsg26
g27
sg28
g2
(g29
g4
Ntp3281
Rp3282
(dp3283
g33
F-37.841579999999965
sg34
g27
sg35
F144.78871100000003
sbsg36
g3273
sg37
Nsg38
g10
sg39
VSnowy Hydro Ltd
p3284
sg41
I2012
sg42
g27
sbsVAUS0000091
p3285
g2
(g3
g4
Ntp3286
Rp3287
(dp3288
g8
Nsg9
g10
sg11
g12
((lp3289
tp3290
Rp3291
sg16
F31.8
sg17
VLongford
p3292
sg19
g20
sg21
g22
sg23
g24
sg25
Nsg26
g27
sg28
g2
(g29
g4
Ntp3293
Rp3294
(dp3295
g33
F-38.16399999999993
sg34
g27
sg35
F147.0870000000001
sbsg36
g3285
sg37
Nsg38
g10
sg39
VTRUenergy
p3296
sg41
I2012
sg42
g27
sbsVAUS0000096
p3297
g2
(g3
g4
Ntp3298
Rp3299
(dp3300
g8
Nsg9
g10
sg11
g12
((lp3301
tp3302
Rp3303
sg16
F160.0
sg17
VSomerton
p3304
sg19
g20
sg21
g22
sg23
g24
sg25
Nsg26
g27
sg28
g2
(g29
g4
Ntp3305
Rp3306
(dp3307
g33
F-37.63182199999994
sg34
g27
sg35
F144.95307700000012
sbsg36
g3297
sg37
Nsg38
g10
sg39
VAGL Energy Pty Ltd
p3308
sg41
I2012
sg42
g27
sbsVAUS0000097
p3309
g2
(g3
g4
Ntp3310
Rp3311
(dp3312
g8
Nsg9
g10
sg11
g12
((lp3313
tp3314
Rp3315
sg16
F5.9
sg17
VSymex Port Melbourne
p3316
sg19
g20
sg21
g22
sg23
g24
sg25
Nsg26
g27
sg28
g2
(g29
g4
Ntp3317
Rp3318
(dp3319
g33
F-37.829793999999936
sg34
g27
sg35
F144.94436500000006
sbsg36
g3309
sg37
Nsg38
g10
sg39
VSymex Holding Ltd
p3320
sg41
I2012
sg42
g27
sbsVAUS0000094
p3321
g2
(g3
g4
Ntp3322
Rp3323
(dp3324
g8
Nsg9
g10
sg11
g12
((lp3325
tp3326
Rp3327
sg16
F500.0
sg17
VNewport
p3328
sg19
g20
sg21
g22
sg23
g24
sg25
Nsg26
g27
sg28
g2
(g29
g4
Ntp3329
Rp3330
(dp3331
g33
F-37.84146199999998
sg34
g27
sg35
F144.89419700000008
sbsg36
g3321
sg37
Nsg38
g10
sg39
VIndustry Funds Management
p3332
sg41
I2012
sg42
g27
sbsVAUS0000095
p3333
g2
(g3
g4
Ntp3334
Rp3335
(dp3336
g8
Nsg9
g10
sg11
g12
((lp3337
tp3338
Rp3339
sg16
F9.6
sg17
VRubicon
p3340
sg19
g63
sg21
g22
sg23
g24
sg25
Nsg26
g27
sg28
g2
(g29
g4
Ntp3341
Rp3342
(dp3343
g33
F-37.327219999999954
sg34
g27
sg35
F145.86052000000007
sbsg36
g3333
sg37
Nsg38
g10
sg39
VAGL Energy Pty Ltd
p3344
sg41
I2012
sg42
g27
sbsVAUS0000418
p3345
g2
(g3
g4
Ntp3346
Rp3347
(dp3348
g8
Nsg9
g10
sg11
g12
((lp3349
tp3350
Rp3351
sg16
F1.6
sg17
VGlenorchy
p3352
sg19
g247
sg21
g22
sg23
g24
sg25
Nsg26
g27
sg28
g2
(g29
g4
Ntp3353
Rp3354
(dp3355
g33
F-42.84146316999994
sg34
g27
sg35
F147.25504660000001
sbsg36
g3345
sg37
Nsg38
g10
sg39
VAGL Energy Pty Ltd
p3356
sg41
I2012
sg42
g27
sbsVAUS0000419
p3357
g2
(g3
g4
Ntp3358
Rp3359
(dp3360
g8
Nsg9
g10
sg11
g12
((lp3361
tp3362
Rp3363
sg16
F1.0
sg17
VHobart
p3364
sg19
g247
sg21
g22
sg23
g24
sg25
Nsg26
g27
sg28
g2
(g29
g4
Ntp3365
Rp3366
(dp3367
g33
F-42.88825951299998
sg34
g27
sg35
F147.28882975800002
sbsg36
g3357
sg37
Nsg38
g10
sg39
VAGL Energy Pty Ltd
p3368
sg41
I2012
sg42
g27
sbsVAUS0000458
p3369
g2
(g3
g4
Ntp3370
Rp3371
(dp3372
g8
Nsg9
g10
sg11
g12
((lp3373
tp3374
Rp3375
sg16
F125.0
sg17
VSolomon Iron Ore Mine
p3376
sg19
g20
sg21
g22
sg23
g24
sg25
Nsg26
g27
sg28
g2
(g29
g4
Ntp3377
Rp3378
(dp3379
g33
F-22.158138793999967
sg34
g27
sg35
F117.98486380600002
sbsg36
g3369
sg37
Nsg38
g10
sg39
g27
sg41
Nsg42
g27
sbsVAUS0000459
p3380
g2
(g3
g4
Ntp3381
Rp3382
(dp3383
g8
Nsg9
g10
sg11
g12
((lp3384
tp3385
Rp3386
sg16
F242.0
sg17
VDiamantina
p3387
sg19
g20
sg21
g22
sg23
g24
sg25
Nsg26
g27
sg28
g2
(g29
g4
Ntp3388
Rp3389
(dp3390
g33
F-20.78374957699998
sg34
g27
sg35
F139.48326740100003
sbsg36
g3380
sg37
Nsg38
g10
sg39
VAPA Group and AGL Energy Ltd
p3391
sg41
Nsg42
g27
sbsVAUS0000452
p3392
g2
(g3
g4
Ntp3393
Rp3394
(dp3395
g8
Nsg9
g10
sg11
g12
((lp3396
tp3397
Rp3398
sg16
F40.0
sg17
VCannington Mine
p3399
sg19
g20
sg21
g22
sg23
g24
sg25
Nsg26
g27
sg28
g2
(g29
g4
Ntp3400
Rp3401
(dp3402
g33
F-21.86013328799993
sg34
g27
sg35
F140.91576749900003
sbsg36
g3392
sg37
Nsg38
g10
sg39
VBHP Billiton
p3403
sg41
Nsg42
g27
sbsVAUS0000453
p3404
g2
(g3
g4
Ntp3405
Rp3406
(dp3407
g8
Nsg9
g10
sg11
g12
((lp3408
tp3409
Rp3410
sg16
F94.5
sg17
VHallett 1 Brown Hill  Wind Farm
p3411
sg19
g185
sg21
g22
sg23
g24
sg25
Nsg26
g27
sg28
g2
(g29
g4
Ntp3412
Rp3413
(dp3414
g33
F-33.39496020399997
sg34
g27
sg35
F138.7299433710001
sbsg36
g3404
sg37
Nsg38
g10
sg39
VAGL Energy Pty Ltd
p3415
sg41
I2012
sg42
g27
sbsVAUS0000450
p3416
g2
(g3
g4
Ntp3417
Rp3418
(dp3419
g8
Nsg9
g10
sg11
g12
((lp3420
tp3421
Rp3422
sg16
F82.0
sg17
VMerredin
p3423
sg19
g20
sg21
g22
sg23
g24
sg25
Nsg26
g27
sg28
g2
(g29
g4
Ntp3424
Rp3425
(dp3426
g33
F-31.542313845999956
sg34
g27
sg35
F118.22699785900011
sbsg36
g3416
sg37
Nsg38
g10
sg39
g27
sg41
Nsg42
g27
sbsVAUS0000451
p3427
g2
(g3
g4
Ntp3428
Rp3429
(dp3430
g8
Nsg9
g10
sg11
g12
((lp3431
tp3432
Rp3433
sg16
F86.0
sg17
VWest Angelas Mine
p3434
sg19
g20
sg21
g22
sg23
g24
sg25
Nsg26
g27
sg28
g2
(g29
g4
Ntp3435
Rp3436
(dp3437
g33
F-23.154648546999965
sg34
g27
sg35
F118.72452167400002
sbsg36
g3427
sg37
Nsg38
g10
sg39
VRio Tinto
p3438
sg41
Nsg42
g27
sbsVAUS0000456
p3439
g2
(g3
g4
Ntp3440
Rp3441
(dp3442
g8
Nsg9
g10
sg11
g12
((lp3443
tp3444
Rp3445
sg16
F98.7
sg17
VSnowtown Wind Farm Stage 2
p3446
sg19
g185
sg21
g22
sg23
g24
sg25
Nsg26
g27
sg28
g2
(g29
g4
Ntp3447
Rp3448
(dp3449
g33
F-33.83008204299995
sg34
g27
sg35
F138.11841139700005
sbsg36
g3439
sg37
Nsg38
g10
sg39
VTrustPower Ltd
p3450
sg41
I2012
sg42
g27
sbsVAUS0000201
p3451
g2
(g3
g4
Ntp3452
Rp3453
(dp3454
g8
Nsg9
g10
sg11
g12
((lp3455
tp3456
Rp3457
sg16
F280.0
sg17
VPinjarra Bauxite Mine and Alumina Refinery
p3458
sg19
g20
sg21
g22
sg23
g24
sg25
Nsg26
g27
sg28
g2
(g29
g4
Ntp3459
Rp3460
(dp3461
g33
F-32.647302999999965
sg34
g27
sg35
F115.94689400000004
sbsg36
g3451
sg37
Nsg38
g10
sg39
VAlinta Energy
p3462
sg41
I2012
sg42
g27
sbsVAUS0000454
p3463
g2
(g3
g4
Ntp3464
Rp3465
(dp3466
g8
Nsg9
g10
sg11
g12
((lp3467
tp3468
Rp3469
sg16
F94.5
sg17
VHallett 5 The Bluff  Wind Farm
p3470
sg19
g185
sg21
g22
sg23
g24
sg25
Nsg26
g27
sg28
g2
(g29
g4
Ntp3471
Rp3472
(dp3473
g33
F-33.385546259999956
sg34
g27
sg35
F138.79283152200003
sbsg36
g3463
sg37
Nsg38
g10
sg39
VAGL Energy Pty Ltd
p3474
sg41
I2012
sg42
g27
sbsVAUS0000422
p3475
g2
(g3
g4
Ntp3476
Rp3477
(dp3478
g8
Nsg9
g10
sg11
g12
((lp3479
tp3480
Rp3481
sg16
F100.0
sg17
VBodangora Wind Farm
p3482
sg19
g185
sg21
g22
sg23
g24
sg25
Nsg26
g27
sg28
g2
(g29
g4
Ntp3483
Rp3484
(dp3485
g33
F-32.41367217299995
sg34
g27
sg35
F149.05896359300004
sbsg36
g3475
sg37
Nsg38
g10
sg39
VInfigen Energy
p3486
sg41
I2012
sg42
g27
sbsVAUS0000200
p3487
g2
(g3
g4
Ntp3488
Rp3489
(dp3490
g8
Nsg9
g10
sg11
g12
((lp3491
tp3492
Rp3493
sg16
F584.0
sg17
VPinjar
p3494
sg19
g20
sg21
g22
sg23
g24
sg25
Nsg26
g27
sg28
g2
(g29
g4
Ntp3495
Rp3496
(dp3497
g33
F-31.557681354999943
sg34
g27
sg35
F115.82041110400007
sbsg36
g3487
sg37
Nsg38
g10
sg39
VVerve Energy
p3498
sg41
I2012
sg42
g27
sbsVAUS0000328
p3499
g2
(g3
g4
Ntp3500
Rp3501
(dp3502
g8
Nsg9
g10
sg11
g12
((lp3503
tp3504
Rp3505
sg16
F1.0
sg17
VShenton Park WMRC Project
p3506
sg19
g247
sg21
g22
sg23
g24
sg25
Nsg26
g27
sg28
g2
(g29
g4
Ntp3507
Rp3508
(dp3509
g33
F-31.957666655999958
sg34
g27
sg35
F115.79244349800001
sbsg36
g3499
sg37
Nsg38
g10
sg39
VAnaeCo Ltd
p3510
sg41
I2012
sg42
g27
sbsVAUS0000329
p3511
g2
(g3
g4
Ntp3512
Rp3513
(dp3514
g8
Nsg9
g10
sg11
g12
((lp3515
tp3516
Rp3517
sg16
F1.3
sg17
VKalamunda
p3518
sg19
g210
sg21
g22
sg23
g24
sg25
Nsg26
g27
sg28
g2
(g29
g4
Ntp3519
Rp3520
(dp3521
g33
F-31.976778615999933
sg34
g27
sg35
F115.99879332700004
sbsg36
g3511
sg37
Nsg38
g10
sg39
VLandfill Gas and Power Pty Ltd
p3522
sg41
I2012
sg42
g27
sbsVAUS0000324
p3523
g2
(g3
g4
Ntp3524
Rp3525
(dp3526
g8
Nsg9
g10
sg11
g12
((lp3527
tp3528
Rp3529
sg16
F36.0
sg17
VCloudbreak
p3530
sg19
g210
sg21
g22
sg23
g24
sg25
Nsg26
g27
sg28
g2
(g29
g4
Ntp3531
Rp3532
(dp3533
g33
F-22.324710271999948
sg34
g27
sg35
F119.40401695100002
sbsg36
g3523
sg37
Nsg38
g10
sg39
VContract Power
p3534
sg41
I2012
sg42
g27
sbsVAUS0000325
p3535
g2
(g3
g4
Ntp3536
Rp3537
(dp3538
g8
Nsg9
g10
sg11
g12
((lp3539
tp3540
Rp3541
sg16
F84.0
sg17
VPort Hedland
p3542
sg19
g20
sg21
g22
sg23
g24
sg25
Nsg26
g27
sg28
g2
(g29
g4
Ntp3543
Rp3544
(dp3545
g33
F-20.378178960999946
sg34
g27
sg35
F118.53837434500008
sbsg36
g3535
sg37
Nsg38
g10
sg39
VAlinta Energy
p3546
sg41
I2012
sg42
g27
sbsVAUS0000326
p3547
g2
(g3
g4
Ntp3548
Rp3549
(dp3550
g8
Nsg9
g10
sg11
g12
((lp3551
tp3552
Rp3553
sg16
F1.1
sg17
VNoranda
p3554
sg19
g247
sg21
g22
sg23
g24
sg25
Nsg26
g27
sg28
g2
(g29
g4
Ntp3555
Rp3556
(dp3557
g33
F-31.86538940199995
sg34
g27
sg35
F115.87732708800002
sbsg36
g3547
sg37
Nsg38
g10
sg39
VLMS Energy Generation Pty Ltd
p3558
sg41
I2012
sg42
g27
sbsVAUS0000327
p3559
g2
(g3
g4
Ntp3560
Rp3561
(dp3562
g8
Nsg9
g10
sg11
g12
((lp3563
tp3564
Rp3565
sg16
F3.65
sg17
VRed Hill
p3566
sg19
g247
sg21
g22
sg23
g24
sg25
Nsg26
g27
sg28
g2
(g29
g4
Ntp3567
Rp3568
(dp3569
g33
F-31.83165058299994
sg34
g27
sg35
F116.09923967700001
sbsg36
g3559
sg37
Nsg38
g10
sg39
VLandfill Gas and Power Pty Ltd
p3570
sg41
I2012
sg42
g27
sbsVAUS0000320
p3571
g2
(g3
g4
Ntp3572
Rp3573
(dp3574
g8
Nsg9
g10
sg11
g12
((lp3575
tp3576
Rp3577
sg16
F9.0
sg17
VNorseman Mine
p3578
sg19
g210
sg21
g22
sg23
g24
sg25
Nsg26
g27
sg28
g2
(g29
g4
Ntp3579
Rp3580
(dp3581
g33
F-32.19626480499994
sg34
g27
sg35
F121.79433384300012
sbsg36
g3571
sg37
Nsg38
g10
sg39
g27
sg41
I2012
sg42
g27
sbsVAUS0000321
p3582
g2
(g3
g4
Ntp3583
Rp3584
(dp3585
g8
Nsg9
g10
sg11
g12
((lp3586
tp3587
Rp3588
sg16
F11.7
sg17
VDarlot Gold Mine
p3589
sg19
g20
sg21
g22
sg23
g24
sg25
Nsg26
g27
sg28
g2
(g29
g4
Ntp3590
Rp3591
(dp3592
g33
F-27.897207160999983
sg34
g27
sg35
F121.26976610500003
sbsg36
g3582
sg37
Nsg38
g10
sg39
VBarrick Gold
p3593
sg41
I2012
sg42
g27
sbsVAUS0000322
p3594
g2
(g3
g4
Ntp3595
Rp3596
(dp3597
g8
Nsg9
g10
sg11
g12
((lp3598
tp3599
Rp3600
sg16
F23.7
sg17
VWindimurra Vanadium Mine
p3601
sg19
g20
sg21
g22
sg23
g24
sg25
Nsg26
g27
sg28
g2
(g29
g4
Ntp3602
Rp3603
(dp3604
g33
F-28.29331302099996
sg34
g27
sg35
F118.53714696400004
sbsg36
g3594
sg37
Nsg38
g10
sg39
VAtlantic Ltd
p3605
sg41
I2012
sg42
g27
sbsVAUS0000323
p3606
g2
(g3
g4
Ntp3607
Rp3608
(dp3609
g8
Nsg9
g10
sg11
g12
((lp3610
tp3611
Rp3612
sg16
F0.6
sg17
VRottnest Island Wind Turbine
p3613
sg19
g185
sg21
g22
sg23
g24
sg25
Nsg26
g27
sg28
g2
(g29
g4
Ntp3614
Rp3615
(dp3616
g33
F-31.993751991999943
sg34
g27
sg35
F115.52891392800007
sbsg36
g3606
sg37
Nsg38
g10
sg39
VVerve Energy
p3617
sg41
I2012
sg42
g27
sbsVAUS0000391
p3618
g2
(g3
g4
Ntp3619
Rp3620
(dp3621
g8
Nsg9
g10
sg11
g12
((lp3622
tp3623
Rp3624
sg16
F2.03
sg17
VEsperance Wind Farm Ten Mile Lagoon
p3625
sg19
g185
sg21
g22
sg23
g24
sg25
Nsg26
g27
sg28
g2
(g29
g4
Ntp3626
Rp3627
(dp3628
g33
F-33.88016906299998
sg34
g27
sg35
F121.76903887500009
sbsg36
g3618
sg37
Nsg38
g10
sg39
VVerve Energy
p3629
sg41
I2012
sg42
g27
sbsVAUS0000390
p3630
g2
(g3
g4
Ntp3631
Rp3632
(dp3633
g8
Nsg9
g10
sg11
g12
((lp3634
tp3635
Rp3636
sg16
F0.02
sg17
VKalbarri PV System
p3637
sg19
g968
sg21
g22
sg23
g24
sg25
Nsg26
g27
sg28
g2
(g29
g4
Ntp3638
Rp3639
(dp3640
g33
F-27.71524694699997
sg34
g27
sg35
F114.16969177900012
sbsg36
g3630
sg37
Nsg38
g10
sg39
VVerve Energy
p3641
sg41
I2012
sg42
g27
sbsVAUS0000392
p3642
g2
(g3
g4
Ntp3643
Rp3644
(dp3645
g8
Nsg9
g10
sg11
g12
((lp3646
tp3647
Rp3648
sg16
F120.0
sg17
VMuja B
p3649
sg19
g76
sg21
g22
sg23
g24
sg25
Nsg26
g27
sg28
g2
(g29
g4
Ntp3650
Rp3651
(dp3652
g33
F-33.446806831999936
sg34
g27
sg35
F116.30871950900007
sbsg36
g3642
sg37
Nsg38
g10
sg39
VVerve Energy
p3653
sg41
I2012
sg42
g27
sbsVAUS0000209
p3654
g2
(g3
g4
Ntp3655
Rp3656
(dp3657
g8
Nsg9
g10
sg11
g12
((lp3658
tp3659
Rp3660
sg16
F37.0
sg17
VKalgoorlie Nickel Smelter
p3661
sg19
g20
sg21
g22
sg23
g24
sg25
Nsg26
g27
sg28
g2
(g29
g4
Ntp3662
Rp3663
(dp3664
g33
F-30.87366899999995
sg34
g27
sg35
F121.48418800000002
sbsg36
g3654
sg37
Nsg38
g10
sg39
VSouthern Cross Energy
p3665
sg41
I2012
sg42
g27
sbsVAUS0000208
p3666
g2
(g3
g4
Ntp3667
Rp3668
(dp3669
g8
Nsg9
g10
sg11
g12
((lp3670
tp3671
Rp3672
sg16
F340.0
sg17
VCollie A
p3673
sg19
g76
sg21
g22
sg23
g24
sg25
Nsg26
g27
sg28
g2
(g29
g4
Ntp3674
Rp3675
(dp3676
g33
F-33.34218099999998
sg34
g27
sg35
F116.261165
sbsg36
g3666
sg37
Nsg38
g10
sg39
VVerve Energy
p3677
sg41
I2012
sg42
g27
sbsVAUS0000399
p3678
g2
(g3
g4
Ntp3679
Rp3680
(dp3681
g8
Nsg9
g10
sg11
g12
((lp3682
tp3683
Rp3684
sg16
F2.1
sg17
VBankstown Sports Club
p3685
sg19
g210
sg21
g22
sg23
g24
sg25
Nsg26
g27
sg28
g2
(g29
g4
Ntp3686
Rp3687
(dp3688
g33
F-33.919699597999966
sg34
g27
sg35
F151.03324363800004
sbsg36
g3678
sg37
Nsg38
g10
sg39
VBankstown Sports Club
p3689
sg41
I2012
sg42
g27
sbsVAUS0000398
p3690
g2
(g3
g4
Ntp3691
Rp3692
(dp3693
g8
Nsg9
g10
sg11
g12
((lp3694
tp3695
Rp3696
sg16
F200.0
sg17
VBango Wind Farm
p3697
sg19
g185
sg21
g22
sg23
g24
sg25
Nsg26
g27
sg28
g2
(g29
g4
Ntp3698
Rp3699
(dp3700
g33
F-34.60577781699993
sg34
g27
sg35
F148.86955733900004
sbsg36
g3690
sg37
Nsg38
g10
sg39
VBango Wind Farm Pty Ltd
p3701
sg41
I2012
sg42
g27
sbsVAUS0000050
p3702
g2
(g3
g4
Ntp3703
Rp3704
(dp3705
g8
Nsg9
g10
sg11
g12
((lp3706
tp3707
Rp3708
sg16
F111.0
sg17
VWaterloo Wind Farm
p3709
sg19
g185
sg21
g22
sg23
g24
sg25
Nsg26
g27
sg28
g2
(g29
g4
Ntp3710
Rp3711
(dp3712
g33
F-34.000357623999946
sg34
g27
sg35
F138.91531889200007
sbsg36
g3702
sg37
Nsg38
g10
sg39
VTRUenergy
p3713
sg41
I2012
sg42
g27
sbsVAUS0000180
p3714
g2
(g3
g4
Ntp3715
Rp3716
(dp3717
g8
Nsg9
g10
sg11
g12
((lp3718
tp3719
Rp3720
sg16
F39.6
sg17
VBroome
p3721
sg19
g20
sg21
g22
sg23
g24
sg25
Nsg26
g27
sg28
g2
(g29
g4
Ntp3722
Rp3723
(dp3724
g33
F-17.981026999999926
sg34
g27
sg35
F122.20460200000002
sbsg36
g3714
sg37
Nsg38
g10
sg39
VEnergy Developments Ltd
p3725
sg41
I2012
sg42
g27
sbsVAUS0000181
p3726
g2
(g3
g4
Ntp3727
Rp3728
(dp3729
g8
Nsg9
g10
sg11
g12
((lp3730
tp3731
Rp3732
sg16
F240.0
sg17
VBurrup Peninsula (Karratha Gas Plant)
p3733
sg19
g20
sg21
g22
sg23
g24
sg25
Nsg26
g27
sg28
g2
(g29
g4
Ntp3734
Rp3735
(dp3736
g33
F-20.62864899999994
sg34
g27
sg35
F116.78214700000001
sbsg36
g3726
sg37
Nsg38
g10
sg39
VWoodside Pty Ltd
p3737
sg41
I2012
sg42
g27
sbsVAUS0000182
p3738
g2
(g3
g4
Ntp3739
Rp3740
(dp3741
g8
Nsg9
g10
sg11
g12
((lp3742
tp3743
Rp3744
sg16
F160.0
sg17
VBurrup Peninsula (Pluto Phase 1)
p3745
sg19
g20
sg21
g22
sg23
g24
sg25
Nsg26
g27
sg28
g2
(g29
g4
Ntp3746
Rp3747
(dp3748
g33
F-20.59367999999995
sg34
g27
sg35
F116.78015000000005
sbsg36
g3738
sg37
Nsg38
g10
sg39
VWoodside Pty Ltd
p3749
sg41
I2012
sg42
g27
sbsVAUS0000183
p3750
g2
(g3
g4
Ntp3751
Rp3752
(dp3753
g8
Nsg9
g10
sg11
g12
((lp3754
tp3755
Rp3756
sg16
F240.0
sg17
VCockburn
p3757
sg19
g20
sg21
g22
sg23
g24
sg25
Nsg26
g27
sg28
g2
(g29
g4
Ntp3758
Rp3759
(dp3760
g33
F-32.20011899999997
sg34
g27
sg35
F115.77367900000002
sbsg36
g3750
sg37
Nsg38
g10
sg39
VVerve Energy
p3761
sg41
I2012
sg42
g27
sbsVAUS0000184
p3762
g2
(g3
g4
Ntp3763
Rp3764
(dp3765
g8
Nsg9
g10
sg11
g12
((lp3766
tp3767
Rp3768
sg16
F416.0
sg17
VCollie (Bluewaters)
p3769
sg19
g76
sg21
g22
sg23
g24
sg25
Nsg26
g27
sg28
g2
(g29
g4
Ntp3770
Rp3771
(dp3772
g33
F-33.33099999999996
sg34
g27
sg35
F116.22900000000004
sbsg36
g3762
sg37
Nsg38
g10
sg39
VGriffin Energy
p3773
sg41
I2012
sg42
g27
sbsVAUS0000185
p3774
g2
(g3
g4
Ntp3775
Rp3776
(dp3777
g8
Nsg9
g10
sg11
g12
((lp3778
tp3779
Rp3780
sg16
F120.0
sg17
VDampier
p3781
sg19
g20
sg21
g22
sg23
g24
sg25
Nsg26
g27
sg28
g2
(g29
g4
Ntp3782
Rp3783
(dp3784
g33
F-20.64798499999995
sg34
g27
sg35
F116.72190400000011
sbsg36
g3774
sg37
Nsg38
g10
sg39
VRio Tinto Australia Pty Ltd
p3785
sg41
I2012
sg42
g27
sbsVAUS0000186
p3786
g2
(g3
g4
Ntp3787
Rp3788
(dp3789
g8
Nsg9
g10
sg11
g12
((lp3790
tp3791
Rp3792
sg16
F39.0
sg17
VEsperance
p3793
sg19
g20
sg21
g22
sg23
g24
sg25
Nsg26
g27
sg28
g2
(g29
g4
Ntp3794
Rp3795
(dp3796
g33
F-33.87619999999998
sg34
g27
sg35
F121.89980000000003
sbsg36
g3786
sg37
Nsg38
g10
sg39
VInfrastructure Capital Group
p3797
sg41
I2012
sg42
g27
sbsVAUS0000187
p3798
g2
(g3
g4
Ntp3799
Rp3800
(dp3801
g8
Nsg9
g10
sg11
g12
((lp3802
tp3803
Rp3804
sg16
F21.0
sg17
VGeraldton
p3805
sg19
g20
sg21
g22
sg23
g24
sg25
Nsg26
g27
sg28
g2
(g29
g4
Ntp3806
Rp3807
(dp3808
g33
F-28.77010699999994
sg34
g27
sg35
F114.64848200000006
sbsg36
g3798
sg37
Nsg38
g10
sg39
VVerve Energy
p3809
sg41
I2012
sg42
g27
sbsVAUS0000188
p3810
g2
(g3
g4
Ntp3811
Rp3812
(dp3813
g8
Nsg9
g10
sg11
g12
((lp3814
tp3815
Rp3816
sg16
F110.0
sg17
VKalgoorlie (Parkeston)
p3817
sg19
g20
sg21
g22
sg23
g24
sg25
Nsg26
g27
sg28
g2
(g29
g4
Ntp3818
Rp3819
(dp3820
g33
F-30.737809999999968
sg34
g27
sg35
F121.50654300000008
sbsg36
g3810
sg37
Nsg38
g10
sg39
VNewmount Australia / Transalta
p3821
sg41
I2012
sg42
g27
sbsVAUS0000189
p3822
g2
(g3
g4
Ntp3823
Rp3824
(dp3825
g8
Nsg9
g10
sg11
g12
((lp3826
tp3827
Rp3828
sg16
F86.0
sg17
VKarratha
p3829
sg19
g20
sg21
g22
sg23
g24
sg25
Nsg26
g27
sg28
g2
(g29
g4
Ntp3830
Rp3831
(dp3832
g33
F-20.762566999999933
sg34
g27
sg35
F116.83747300000005
sbsg36
g3822
sg37
Nsg38
g10
sg39
VATCO Power
p3833
sg41
I2012
sg42
g27
sbsVAUS0000021
p3834
g2
(g3
g4
Ntp3835
Rp3836
(dp3837
g8
Nsg9
g10
sg11
g12
((lp3838
tp3839
Rp3840
sg16
F1.1
sg17
VJindabyne Dam Mini Hydro
p3841
sg19
g63
sg21
g22
sg23
g24
sg25
Nsg26
g27
sg28
g2
(g29
g4
Ntp3842
Rp3843
(dp3844
g33
F-36.435149999999965
sg34
g27
sg35
F148.6332500000001
sbsg36
g3834
sg37
Nsg38
g10
sg39
VSnowy Hydro Ltd
p3845
sg41
I2012
sg42
g27
sbsVAUS0000020
p3846
g2
(g3
g4
Ntp3847
Rp3848
(dp3849
g8
Nsg9
g10
sg11
g12
((lp3850
tp3851
Rp3852
sg16
F30.0
sg17
VYambuk Wind Farm
p3853
sg19
g185
sg21
g22
sg23
g24
sg25
Nsg26
g27
sg28
g2
(g29
g4
Ntp3854
Rp3855
(dp3856
g33
F-38.30835520699998
sg34
g27
sg35
F142.0100325850001
sbsg36
g3846
sg37
Nsg38
g10
sg39
VEnergy Pacific (Victoria) Pty Ltd
p3857
sg41
I2012
sg42
g27
sbsVAUS0000027
p3858
g2
(g3
g4
Ntp3859
Rp3860
(dp3861
g8
Nsg9
g10
sg11
g12
((lp3862
tp3863
Rp3864
sg16
F9.9
sg17
VBlayney Wind Farm
p3865
sg19
g185
sg21
g22
sg23
g24
sg25
Nsg26
g27
sg28
g2
(g29
g4
Ntp3866
Rp3867
(dp3868
g33
F-33.62188999999995
sg34
g27
sg35
F149.19821000000002
sbsg36
g3858
sg37
Nsg38
g10
sg39
VEraring Energy
p3869
sg41
I2012
sg42
g27
sbsVAUS0000026
p3870
g2
(g3
g4
Ntp3871
Rp3872
(dp3873
g8
Nsg9
g10
sg11
g12
((lp3874
tp3875
Rp3876
sg16
F20.0
sg17
VWyangala A
p3877
sg19
g63
sg21
g22
sg23
g24
sg25
Nsg26
g27
sg28
g2
(g29
g4
Ntp3878
Rp3879
(dp3880
g33
F-33.980988999999965
sg34
g27
sg35
F148.94730600000003
sbsg36
g3870
sg37
Nsg38
g10
sg39
VCountry Energy
p3881
sg41
I2012
sg42
g27
sbsVAUS0000025
p3882
g2
(g3
g4
Ntp3883
Rp3884
(dp3885
g8
Nsg9
g10
sg11
g12
((lp3886
tp3887
Rp3888
sg16
F56.7
sg17
VClements Gap Wind Farm
p3889
sg19
g185
sg21
g22
sg23
g24
sg25
Nsg26
g27
sg28
g2
(g29
g4
Ntp3890
Rp3891
(dp3892
g33
F-33.508567708999976
sg34
g27
sg35
F138.11917519200006
sbsg36
g3882
sg37
Nsg38
g10
sg39
VPacific Hydro Pty Ltd
p3893
sg41
I2012
sg42
g27
sbsVAUS0000024
p3894
g2
(g3
g4
Ntp3895
Rp3896
(dp3897
g8
Nsg9
g10
sg11
g12
((lp3898
tp3899
Rp3900
sg16
F132.3
sg17
VHallett 4 North Brown Hill  Wind Farm
p3901
sg19
g185
sg21
g22
sg23
g24
sg25
Nsg26
g27
sg28
g2
(g29
g4
Ntp3902
Rp3903
(dp3904
g33
F-33.30925994199998
sg34
g27
sg35
F138.72959554200008
sbsg36
g3894
sg37
Nsg38
g10
sg39
VAGL Energy Pty Ltd
p3905
sg41
I2012
sg42
g27
sbsVAUS0000051
p3906
g2
(g3
g4
Ntp3907
Rp3908
(dp3909
g8
Nsg9
g10
sg11
g12
((lp3910
tp3911
Rp3912
sg16
F12.0
sg17
VWindy Hill Wind Farm
p3913
sg19
g185
sg21
g22
sg23
g24
sg25
Nsg26
g27
sg28
g2
(g29
g4
Ntp3914
Rp3915
(dp3916
g33
F-17.592199999999934
sg34
g27
sg35
F145.53060000000005
sbsg36
g3906
sg37
Nsg38
g10
sg39
VRATCH-Australia
p3917
sg41
I2012
sg42
g27
sbsVAUS0000098
p3918
g2
(g3
g4
Ntp3919
Rp3920
(dp3921
g8
Nsg9
g10
sg11
g12
((lp3922
tp3923
Rp3924
sg16
F300.0
sg17
VValley (Peaking Facility)
p3925
sg19
g20
sg21
g22
sg23
g24
sg25
Nsg26
g27
sg28
g2
(g29
g4
Ntp3926
Rp3927
(dp3928
g33
F-38.25362199999995
sg34
g27
sg35
F146.5891660000001
sbsg36
g3918
sg37
Nsg38
g10
sg39
VSnowy Hydro Ltd
p3929
sg41
I2012
sg42
g27
sbsVAUS0000150
p3930
g2
(g3
g4
Ntp3931
Rp3932
(dp3933
g8
Nsg9
g10
sg11
g12
((lp3934
tp3935
Rp3936
sg16
F500.0
sg17
VWivenhoe Hydroelectric
p3937
sg19
g63
sg21
g22
sg23
g24
sg25
Nsg26
g27
sg28
g2
(g29
g4
Ntp3938
Rp3939
(dp3940
g33
F-27.372220999999968
sg34
g27
sg35
F152.6320280000001
sbsg36
g3930
sg37
Nsg38
g10
sg39
VCS Energy
p3941
sg41
I2012
sg42
g27
sbsVAUS0000159
p3942
g2
(g3
g4
Ntp3943
Rp3944
(dp3945
g8
Nsg9
g10
sg11
g12
((lp3946
tp3947
Rp3948
sg16
F25.0
sg17
VIsis Central Sugar Mill
p3949
sg19
g307
sg21
g22
sg23
g24
sg25
Nsg26
g27
sg28
g2
(g29
g4
Ntp3950
Rp3951
(dp3952
g33
F-25.19398599999994
sg34
g27
sg35
F152.20855600000004
sbsg36
g3942
sg37
Nsg38
g10
sg39
VAGL Energy Pty Ltd
p3953
sg41
I2012
sg42
g27
sbsVAUS0000294
p3954
g2
(g3
g4
Ntp3955
Rp3956
(dp3957
g8
Nsg9
g10
sg11
g12
((lp3958
tp3959
Rp3960
sg16
F664.0
sg17
VUranquinty
p3961
sg19
g20
sg21
g22
sg23
g24
sg25
Nsg26
g27
sg28
g2
(g29
g4
Ntp3962
Rp3963
(dp3964
g33
F-35.17939499999994
sg34
g27
sg35
F147.2156920000001
sbsg36
g3954
sg37
Nsg38
g10
sg39
VOrigin Energy
p3965
sg41
I2012
sg42
g27
sbsVAUS0000295
p3966
g2
(g3
g4
Ntp3967
Rp3968
(dp3969
g8
Nsg9
g10
sg11
g12
((lp3970
tp3971
Rp3972
sg16
F1320.0
sg17
VVales Point B
p3973
sg19
g76
sg21
g22
sg23
g24
sg25
Nsg26
g27
sg28
g2
(g29
g4
Ntp3974
Rp3975
(dp3976
g33
F-33.16074499999996
sg34
g27
sg35
F151.5431460000001
sbsg36
g3966
sg37
Nsg38
g10
sg39
VDelta Electricity
p3977
sg41
I2012
sg42
g27
sbsVAUS0000296
p3978
g2
(g3
g4
Ntp3979
Rp3980
(dp3981
g8
Nsg9
g10
sg11
g12
((lp3982
tp3983
Rp3984
sg16
F1000.0
sg17
VWallerawang C
p3985
sg19
g76
sg21
g22
sg23
g24
sg25
Nsg26
g27
sg28
g2
(g29
g4
Ntp3986
Rp3987
(dp3988
g33
F-33.40282399999995
sg34
g27
sg35
F150.08334500000012
sbsg36
g3978
sg37
Nsg38
g10
sg39
VTRUenergy
p3989
sg41
I2012
sg42
g27
sbsVAUS0000297
p3990
g2
(g3
g4
Ntp3991
Rp3992
(dp3993
g8
Nsg9
g10
sg11
g12
((lp3994
tp3995
Rp3996
sg16
F50.0
sg17
VWarragamba
p3997
sg19
g63
sg21
g22
sg23
g24
sg25
Nsg26
g27
sg28
g2
(g29
g4
Ntp3998
Rp3999
(dp4000
g33
F-33.88324199999994
sg34
g27
sg35
F150.59654100000012
sbsg36
g3990
sg37
Nsg38
g10
sg39
VEraring Energy
p4001
sg41
I2012
sg42
g27
sbsVAUS0000290
p4002
g2
(g3
g4
Ntp4003
Rp4004
(dp4005
g8
Nsg9
g10
sg11
g12
((lp4006
tp4007
Rp4008
sg16
F810.0
sg17
VTomago Aluminium Smelter
p4009
sg19
g20
sg21
g22
sg23
g24
sg25
Nsg26
g27
sg28
g2
(g29
g4
Ntp4010
Rp4011
(dp4012
g33
F-32.821650999999974
sg34
g27
sg35
F151.7178090000001
sbsg36
g4002
sg37
Nsg38
g10
sg39
VTomago Aluminium
p4013
sg41
I2012
sg42
g27
sbsVAUS0000291
p4014
g2
(g3
g4
Ntp4015
Rp4016
(dp4017
g8
Nsg9
g10
sg11
g12
((lp4018
tp4019
Rp4020
sg16
F41.2
sg17
VTower Mine
p4021
sg19
g20
sg21
g22
sg23
g24
sg25
Nsg26
g27
sg28
g2
(g29
g4
Ntp4022
Rp4023
(dp4024
g33
F-34.22069199999993
sg34
g27
sg35
F150.7179410000001
sbsg36
g4014
sg37
Nsg38
g10
sg39
VEnergy Developments Ltd
p4025
sg41
I2012
sg42
g27
sbsVAUS0000292
p4026
g2
(g3
g4
Ntp4027
Rp4028
(dp4029
g8
Nsg9
g10
sg11
g12
((lp4030
tp4031
Rp4032
sg16
F384.0
sg17
VTumut 1 (Upper Tumut)
p4033
sg19
g63
sg21
g22
sg23
g24
sg25
Nsg26
g27
sg28
g2
(g29
g4
Ntp4034
Rp4035
(dp4036
g33
F-35.95172899999994
sg34
g27
sg35
F148.36371000000008
sbsg36
g4026
sg37
Nsg38
g10
sg39
VSnowy Hydro Ltd
p4037
sg41
I2012
sg42
g27
sbsVAUS0000293
p4038
g2
(g3
g4
Ntp4039
Rp4040
(dp4041
g8
Nsg9
g10
sg11
g12
((lp4042
tp4043
Rp4044
sg16
F336.0
sg17
VTumut 2 (Upper Tumut)
p4045
sg19
g63
sg21
g22
sg23
g24
sg25
Nsg26
g27
sg28
g2
(g29
g4
Ntp4046
Rp4047
(dp4048
g33
F-35.881290999999976
sg34
g27
sg35
F148.36725200000012
sbsg36
g4038
sg37
Nsg38
g10
sg39
VSnowy Hydro Ltd
p4049
sg41
I2012
sg42
g27
sbsVAUS0000117
p4050
g2
(g3
g4
Ntp4051
Rp4052
(dp4053
g8
Nsg9
g10
sg11
g12
((lp4054
tp4055
Rp4056
sg16
F125.0
sg17
VTungatinah
p4057
sg19
g63
sg21
g22
sg23
g24
sg25
Nsg26
g27
sg28
g2
(g29
g4
Ntp4058
Rp4059
(dp4060
g33
F-42.29667099999995
sg34
g27
sg35
F146.456543
sbsg36
g4050
sg37
Nsg38
g10
sg39
VHydro-Electric Corporation (Tasmania)
p4061
sg41
I2012
sg42
g27
sbsVAUS0000116
p4062
g2
(g3
g4
Ntp4063
Rp4064
(dp4065
g8
Nsg9
g10
sg11
g12
((lp4066
tp4067
Rp4068
sg16
F38.3
sg17
VWayatinah
p4069
sg19
g63
sg21
g22
sg23
g24
sg25
Nsg26
g27
sg28
g2
(g29
g4
Ntp4070
Rp4071
(dp4072
g33
F-42.427175999999974
sg34
g27
sg35
F146.53470900000002
sbsg36
g4062
sg37
Nsg38
g10
sg39
VHydro-Electric Corporation (Tasmania)
p4073
sg41
I2012
sg42
g27
sbsVAUS0000115
p4074
g2
(g3
g4
Ntp4075
Rp4076
(dp4077
g8
Nsg9
g10
sg11
g12
((lp4078
tp4079
Rp4080
sg16
F2.2
sg17
VRemount
p4081
sg19
g247
sg21
g22
sg23
g24
sg25
Nsg26
g27
sg28
g2
(g29
g4
Ntp4082
Rp4083
(dp4084
g33
F-41.39504899999997
sg34
g27
sg35
F147.15542500000004
sbsg36
g4074
sg37
Nsg38
g10
sg39
VLMS Energy Generation Pty Ltd
p4085
sg41
I2012
sg42
g27
sbsVAUS0000114
p4086
g2
(g3
g4
Ntp4087
Rp4088
(dp4089
g8
Nsg9
g10
sg11
g12
((lp4090
tp4091
Rp4092
sg16
F150.0
sg17
VAnglesea
p4093
sg19
g76
sg21
g22
sg23
g24
sg25
Nsg26
g27
sg28
g2
(g29
g4
Ntp4094
Rp4095
(dp4096
g33
F-38.38605599999994
sg34
g27
sg35
F144.18278900000007
sbsg36
g4086
sg37
Nsg38
g10
sg39
VAlcoa of Australia Ltd
p4097
sg41
I2012
sg42
g27
sbsVAUS0000298
p4098
g2
(g3
g4
Ntp4099
Rp4100
(dp4101
g8
Nsg9
g10
sg11
g12
((lp4102
tp4103
Rp4104
sg16
F1.0
sg17
VWest Illawarra Leagues Club
p4105
sg19
g210
sg21
g22
sg23
g24
sg25
Nsg26
g27
sg28
g2
(g29
g4
Ntp4106
Rp4107
(dp4108
g33
F-34.45153699999997
sg34
g27
sg35
F150.84290700000008
sbsg36
g4098
sg37
Nsg38
g10
sg39
VWest Illawarra Leagues Club
p4109
sg41
I2012
sg42
g27
sbsVAUS0000299
p4110
g2
(g3
g4
Ntp4111
Rp4112
(dp4113
g8
Nsg9
g10
sg11
g12
((lp4114
tp4115
Rp4116
sg16
F1.3
sg17
VWestern Suburbs Leagues Club (Campbelltown)
p4117
sg19
g210
sg21
g22
sg23
g24
sg25
Nsg26
g27
sg28
g2
(g29
g4
Ntp4118
Rp4119
(dp4120
g33
F-34.05132599999996
sg34
g27
sg35
F150.8328600000001
sbsg36
g4110
sg37
Nsg38
g10
sg39
VWestern Suburbs Leagues Club (Campbelltown)
p4121
sg41
I2012
sg42
g27
sbsVAUS0000111
p4122
g2
(g3
g4
Ntp4123
Rp4124
(dp4125
g8
Nsg9
g10
sg11
g12
((lp4126
tp4127
Rp4128
sg16
F44.0
sg17
VCape Nelson South Wind Farm
p4129
sg19
g185
sg21
g22
sg23
g24
sg25
Nsg26
g27
sg28
g2
(g29
g4
Ntp4130
Rp4131
(dp4132
g33
F-38.41199999999998
sg34
g27
sg35
F141.54300000000012
sbsg36
g4122
sg37
Nsg38
g10
sg39
VPacific Hydro Pty Ltd
p4133
sg41
I2012
sg42
g27
sbsVAUS0000110
p4134
g2
(g3
g4
Ntp4135
Rp4136
(dp4137
g8
Nsg9
g10
sg11
g12
((lp4138
tp4139
Rp4140
sg16
F54.0
sg17
VCape Sir William Grant Wind Farm
p4141
sg19
g185
sg21
g22
sg23
g24
sg25
Nsg26
g27
sg28
g2
(g29
g4
Ntp4142
Rp4143
(dp4144
g33
F-38.39759299999997
sg34
g27
sg35
F141.62085000000002
sbsg36
g4134
sg37
Nsg38
g10
sg39
VPacific Hydro Pty Ltd
p4145
sg41
I2012
sg42
g27
sbsVAUS0000368
p4146
g2
(g3
g4
Ntp4147
Rp4148
(dp4149
g8
Nsg9
g10
sg11
g12
((lp4150
tp4151
Rp4152
sg16
F3.69
sg17
VHalls Creek
p4153
sg19
g20
sg21
g22
sg23
g24
sg25
Nsg26
g27
sg28
g2
(g29
g4
Ntp4154
Rp4155
(dp4156
g33
F-18.232751479999934
sg34
g27
sg35
F127.66189702200006
sbsg36
g4146
sg37
Nsg38
g10
sg39
VEnergy Developments Ltd
p4157
sg41
I2012
sg42
g27
sbsVAUS0000369
p4158
g2
(g3
g4
Ntp4159
Rp4160
(dp4161
g8
Nsg9
g10
sg11
g12
((lp4162
tp4163
Rp4164
sg16
F1.3
sg17
VWarmun
p4165
sg19
g210
sg21
g22
sg23
g24
sg25
Nsg26
g27
sg28
g2
(g29
g4
Ntp4166
Rp4167
(dp4168
g33
F-17.025883502999932
sg34
g27
sg35
F128.21131963900007
sbsg36
g4158
sg37
Nsg38
g10
sg39
VEnergy Developments Ltd
p4169
sg41
I2012
sg42
g27
sbsVAUS0000414
p4170
g2
(g3
g4
Ntp4171
Rp4172
(dp4173
g8
Nsg9
g10
sg11
g12
((lp4174
tp4175
Rp4176
sg16
F1.04
sg17
VCamballin
p4177
sg19
g20
sg21
g22
sg23
g24
sg25
Nsg26
g27
sg28
g2
(g29
g4
Ntp4178
Rp4179
(dp4180
g33
F-18.027757491999978
sg34
g27
sg35
F124.16208514900006
sbsg36
g4170
sg37
Nsg38
g10
sg39
VEnergy Developments Ltd
p4181
sg41
I2012
sg42
g27
sbsVAUS0000415
p4182
g2
(g3
g4
Ntp4183
Rp4184
(dp4185
g8
Nsg9
g10
sg11
g12
((lp4186
tp4187
Rp4188
sg16
F16.5
sg17
VCawse Nickel Mine
p4189
sg19
g20
sg21
g22
sg23
g24
sg25
Nsg26
g27
sg28
g2
(g29
g4
Ntp4190
Rp4191
(dp4192
g33
F-30.380805807999934
sg34
g27
sg35
F121.16348091600003
sbsg36
g4182
sg37
Nsg38
g10
sg39
g27
sg41
I2012
sg42
g27
sbsVAUS0000412
p4193
g2
(g3
g4
Ntp4194
Rp4195
(dp4196
g8
Nsg9
g10
sg11
g12
((lp4197
tp4198
Rp4199
sg16
F1.3
sg17
VHopetoun Diesel Backup
p4200
sg19
g210
sg21
g22
sg23
g24
sg25
Nsg26
g27
sg28
g2
(g29
g4
Ntp4201
Rp4202
(dp4203
g33
F-33.90504892299998
sg34
g27
sg35
F120.12993402100005
sbsg36
g4193
sg37
Nsg38
g10
sg39
VVerve Energy
p4204
sg41
I2012
sg42
g27
sbsVAUS0000413
p4205
g2
(g3
g4
Ntp4206
Rp4207
(dp4208
g8
Nsg9
g10
sg11
g12
((lp4209
tp4210
Rp4211
sg16
F1.2
sg17
VHopetoun Wind Turbines
p4212
sg19
g185
sg21
g22
sg23
g24
sg25
Nsg26
g27
sg28
g2
(g29
g4
Ntp4213
Rp4214
(dp4215
g33
F-33.90776359299997
sg34
g27
sg35
F120.1296811840001
sbsg36
g4205
sg37
Nsg38
g10
sg39
VVerve Energy
p4216
sg41
I2012
sg42
g27
sbsVAUS0000410
p4217
g2
(g3
g4
Ntp4218
Rp4219
(dp4220
g8
Nsg9
g10
sg11
g12
((lp4221
tp4222
Rp4223
sg16
F0.3
sg17
VMenzies
p4224
sg19
g210
sg21
g22
sg23
g24
sg25
Nsg26
g27
sg28
g2
(g29
g4
Ntp4225
Rp4226
(dp4227
g33
F-29.690601898999944
sg34
g27
sg35
F121.0251779460001
sbsg36
g4217
sg37
Nsg38
g10
sg39
g27
sg41
I2012
sg42
g27
sbsVAUS0000411
p4228
g2
(g3
g4
Ntp4229
Rp4230
(dp4231
g8
Nsg9
g10
sg11
g12
((lp4232
tp4233
Rp4234
sg16
F3.6
sg17
VOnslow
p4235
sg19
g20
sg21
g22
sg23
g24
sg25
Nsg26
g27
sg28
g2
(g29
g4
Ntp4236
Rp4237
(dp4238
g33
F-21.65822155199993
sg34
g27
sg35
F115.09902478800007
sbsg36
g4228
sg37
Nsg38
g10
sg39
g27
sg41
I2012
sg42
g27
sbsVAUS0000360
p4239
g2
(g3
g4
Ntp4240
Rp4241
(dp4242
g8
Nsg9
g10
sg11
g12
((lp4243
tp4244
Rp4245
sg16
F0.8
sg17
VCue
p4246
sg19
g210
sg21
g22
sg23
g24
sg25
Nsg26
g27
sg28
g2
(g29
g4
Ntp4247
Rp4248
(dp4249
g33
F-27.421247747999928
sg34
g27
sg35
F117.88948432200004
sbsg36
g4239
sg37
Nsg38
g10
sg39
VEnergy Developments
p4250
sg41
I2012
sg42
g27
sbsVAUS0000361
p4251
g2
(g3
g4
Ntp4252
Rp4253
(dp4254
g8
Nsg9
g10
sg11
g12
((lp4255
tp4256
Rp4257
sg16
F0.4
sg17
VSandstone
p4258
sg19
g210
sg21
g22
sg23
g24
sg25
Nsg26
g27
sg28
g2
(g29
g4
Ntp4259
Rp4260
(dp4261
g33
F-27.985269348999964
sg34
g27
sg35
F119.29495929900008
sbsg36
g4251
sg37
Nsg38
g10
sg39
VEnergy Developments
p4262
sg41
I2012
sg42
g27
sbsVAUS0000362
p4263
g2
(g3
g4
Ntp4264
Rp4265
(dp4266
g8
Nsg9
g10
sg11
g12
((lp4267
tp4268
Rp4269
sg16
F0.2
sg17
VNullagine Solar Farm
p4270
sg19
g968
sg21
g22
sg23
g24
sg25
Nsg26
g27
sg28
g2
(g29
g4
Ntp4271
Rp4272
(dp4273
g33
F-21.87950110099996
sg34
g27
sg35
F120.11172335900005
sbsg36
g4263
sg37
Nsg38
g10
sg39
VHorizon Power
p4274
sg41
I2012
sg42
g27
sbsVAUS0000363
p4275
g2
(g3
g4
Ntp4276
Rp4277
(dp4278
g8
Nsg9
g10
sg11
g12
((lp4279
tp4280
Rp4281
sg16
F0.96
sg17
VNullagine Diesel Backup
p4282
sg19
g210
sg21
g22
sg23
g24
sg25
Nsg26
g27
sg28
g2
(g29
g4
Ntp4283
Rp4284
(dp4285
g33
F-21.87944414599997
sg34
g27
sg35
F120.112862457
sbsg36
g4275
sg37
Nsg38
g10
sg39
VHorizon Power
p4286
sg41
I2012
sg42
g27
sbsVAUS0000364
p4287
g2
(g3
g4
Ntp4288
Rp4289
(dp4290
g8
Nsg9
g10
sg11
g12
((lp4291
tp4292
Rp4293
sg16
F0.3
sg17
VMarble Bar Solar Farm
p4294
sg19
g968
sg21
g22
sg23
g24
sg25
Nsg26
g27
sg28
g2
(g29
g4
Ntp4295
Rp4296
(dp4297
g33
F-21.164344633999974
sg34
g27
sg35
F119.7412000060001
sbsg36
g4287
sg37
Nsg38
g10
sg39
VHorizon Power
p4298
sg41
I2012
sg42
g27
sbsVAUS0000365
p4299
g2
(g3
g4
Ntp4300
Rp4301
(dp4302
g8
Nsg9
g10
sg11
g12
((lp4303
tp4304
Rp4305
sg16
F1.28
sg17
VMarble Bar Diesel Backup
p4306
sg19
g210
sg21
g22
sg23
g24
sg25
Nsg26
g27
sg28
g2
(g29
g4
Ntp4307
Rp4308
(dp4309
g33
F-21.164922926999964
sg34
g27
sg35
F119.74185150000005
sbsg36
g4299
sg37
Nsg38
g10
sg39
VHorizon Power
p4310
sg41
I2012
sg42
g27
sbsVAUS0000366
p4311
g2
(g3
g4
Ntp4312
Rp4313
(dp4314
g8
Nsg9
g10
sg11
g12
((lp4315
tp4316
Rp4317
sg16
F12.53
sg17
VDerby
p4318
sg19
g20
sg21
g22
sg23
g24
sg25
Nsg26
g27
sg28
g2
(g29
g4
Ntp4319
Rp4320
(dp4321
g33
F-17.31414106999995
sg34
g27
sg35
F123.64414998000007
sbsg36
g4311
sg37
Nsg38
g10
sg39
VEnergy Developments Ltd
p4322
sg41
I2012
sg42
g27
sbsVAUS0000367
p4323
g2
(g3
g4
Ntp4324
Rp4325
(dp4326
g8
Nsg9
g10
sg11
g12
((lp4327
tp4328
Rp4329
sg16
F4.06
sg17
VFitzroy Crossing
p4330
sg19
g20
sg21
g22
sg23
g24
sg25
Nsg26
g27
sg28
g2
(g29
g4
Ntp4331
Rp4332
(dp4333
g33
F-18.195575047999967
sg34
g27
sg35
F125.55971118500008
sbsg36
g4323
sg37
Nsg38
g10
sg39
VEnergy Developments Ltd
p4334
sg41
I2012
sg42
g27
sbsVAUS0000203
p4335
g2
(g3
g4
Ntp4336
Rp4337
(dp4338
g8
Nsg9
g10
sg11
g12
((lp4339
tp4340
Rp4341
sg16
F98.0
sg17
VWagerup Bauxite Mine and Alumina Refinery
p4342
sg19
g20
sg21
g22
sg23
g24
sg25
Nsg26
g27
sg28
g2
(g29
g4
Ntp4343
Rp4344
(dp4345
g33
F-32.91449499999993
sg34
g27
sg35
F115.91699500000004
sbsg36
g4335
sg37
Nsg38
g10
sg39
VAlcoa of Australia Ltd
p4346
sg41
I2012
sg42
g27
sbsVAUS0000202
p4347
g2
(g3
g4
Ntp4348
Rp4349
(dp4350
g8
Nsg9
g10
sg11
g12
((lp4351
tp4352
Rp4353
sg16
F56.0
sg17
VRavensthorpe
p4354
sg19
g210
sg21
g22
sg23
g24
sg25
Nsg26
g27
sg28
g2
(g29
g4
Ntp4355
Rp4356
(dp4357
g33
F-33.60999999999996
sg34
g27
sg35
F120.36000000000001
sbsg36
g4347
sg37
Nsg38
g10
sg39
VFirst Quantum Minerals
p4358
sg41
I2012
sg42
g27
sbsVAUS0000168
p4359
g2
(g3
g4
Ntp4360
Rp4361
(dp4362
g8
Nsg9
g10
sg11
g12
((lp4363
tp4364
Rp4365
sg16
F1460.0
sg17
VStanwell
p4366
sg19
g76
sg21
g22
sg23
g24
sg25
Nsg26
g27
sg28
g2
(g29
g4
Ntp4367
Rp4368
(dp4369
g33
F-23.50971999999996
sg34
g27
sg35
F150.31946600000003
sbsg36
g4359
sg37
Nsg38
g10
sg39
VStanwell Corporation Ltd
p4370
sg41
I2012
sg42
g27
sbsVAUS0000169
p4371
g2
(g3
g4
Ntp4372
Rp4373
(dp4374
g8
Nsg9
g10
sg11
g12
((lp4375
tp4376
Rp4377
sg16
F15.0
sg17
VTarong
p4378
sg19
g210
sg21
g22
sg23
g24
sg25
Nsg26
g27
sg28
g2
(g29
g4
Ntp4379
Rp4380
(dp4381
g33
F-26.785766999999964
sg34
g27
sg35
F151.91716400000007
sbsg36
g4371
sg37
Nsg38
g10
sg39
VTarong Energy Corporation
p4382
sg41
I2012
sg42
g27
sbsVAUS0000207
p4383
g2
(g3
g4
Ntp4384
Rp4385
(dp4386
g8
Nsg9
g10
sg11
g12
((lp4387
tp4388
Rp4389
sg16
F1.9
sg17
VMount Magnet
p4390
sg19
g20
sg21
g22
sg23
g24
sg25
Nsg26
g27
sg28
g2
(g29
g4
Ntp4391
Rp4392
(dp4393
g33
F-28.087084337999954
sg34
g27
sg35
F117.83271097700003
sbsg36
g4383
sg37
Nsg38
g10
sg39
g27
sg41
I2012
sg42
g27
sbsVAUS0000206
p4394
g2
(g3
g4
Ntp4395
Rp4396
(dp4397
g8
Nsg9
g10
sg11
g12
((lp4398
tp4399
Rp4400
sg16
F126.0
sg17
VPort Hedland
p4401
sg19
g20
sg21
g22
sg23
g24
sg25
Nsg26
g27
sg28
g2
(g29
g4
Ntp4402
Rp4403
(dp4404
g33
F-20.42829999999998
sg34
g27
sg35
F118.54980000000012
sbsg36
g4394
sg37
Nsg38
g10
sg39
VAlinta Energy
p4405
sg41
I2012
sg42
g27
sbsVAUS0000205
p4406
g2
(g3
g4
Ntp4407
Rp4408
(dp4409
g8
Nsg9
g10
sg11
g12
((lp4410
tp4411
Rp4412
sg16
F60.0
sg17
VWest Kalgoorlie
p4413
sg19
g210
sg21
g22
sg23
g24
sg25
Nsg26
g27
sg28
g2
(g29
g4
Ntp4414
Rp4415
(dp4416
g33
F-30.78063499999996
sg34
g27
sg35
F121.42335500000002
sbsg36
g4406
sg37
Nsg38
g10
sg39
VVerve Energy
p4417
sg41
I2012
sg42
g27
sbsVAUS0000204
p4418
g2
(g3
g4
Ntp4419
Rp4420
(dp4421
g8
Nsg9
g10
sg11
g12
((lp4422
tp4423
Rp4424
sg16
F380.0
sg17
VWagerup
p4425
sg19
g20
sg21
g22
sg23
g24
sg25
Nsg26
g27
sg28
g2
(g29
g4
Ntp4426
Rp4427
(dp4428
g33
F-32.916016999999954
sg34
g27
sg35
F115.91864700000008
sbsg36
g4418
sg37
Nsg38
g10
sg39
VAlinta Energy
p4429
sg41
I2012
sg42
g27
sbsVAUS0000162
p4430
g2
(g3
g4
Ntp4431
Rp4432
(dp4433
g8
Nsg9
g10
sg11
g12
((lp4434
tp4435
Rp4436
sg16
F744.0
sg17
VKogan Creek
p4437
sg19
g76
sg21
g22
sg23
g24
sg25
Nsg26
g27
sg28
g2
(g29
g4
Ntp4438
Rp4439
(dp4440
g33
F-26.917683332999957
sg34
g27
sg35
F150.7492833330001
sbsg36
g4430
sg37
Nsg38
g10
sg39
VCS Energy
p4441
sg41
I2013
sg42
g27
sbsVAUS0000163
p4442
g2
(g3
g4
Ntp4443
Rp4444
(dp4445
g8
Nsg9
g10
sg11
g12
((lp4446
tp4447
Rp4448
sg16
F856.0
sg17
VMillmerran
p4449
sg19
g76
sg21
g22
sg23
g24
sg25
Nsg26
g27
sg28
g2
(g29
g4
Ntp4450
Rp4451
(dp4452
g33
F-27.96154199999995
sg34
g27
sg35
F151.278949
sbsg36
g4442
sg37
Nsg38
g10
sg39
VIntergen
p4453
sg41
I2012
sg42
g27
sbsVAUS0000160
p4454
g2
(g3
g4
Ntp4455
Rp4456
(dp4457
g8
Nsg9
g10
sg11
g12
((lp4458
tp4459
Rp4460
sg16
F9.0
sg17
VKalamia Sugar Mill
p4461
sg19
g307
sg21
g22
sg23
g24
sg25
Nsg26
g27
sg28
g2
(g29
g4
Ntp4462
Rp4463
(dp4464
g33
F-19.52233899999993
sg34
g27
sg35
F147.41523700000005
sbsg36
g4454
sg37
Nsg38
g10
sg39
VSucrogen (Kalamia) Pty ltd
p4465
sg41
I2012
sg42
g27
sbsVAUS0000161
p4466
g2
(g3
g4
Ntp4467
Rp4468
(dp4469
g8
Nsg9
g10
sg11
g12
((lp4470
tp4471
Rp4472
sg16
F88.0
sg17
VKareeya
p4473
sg19
g63
sg21
g22
sg23
g24
sg25
Nsg26
g27
sg28
g2
(g29
g4
Ntp4474
Rp4475
(dp4476
g33
F-17.767001999999934
sg34
g27
sg35
F145.5778650000001
sbsg36
g4466
sg37
Nsg38
g10
sg39
VStanwell Corporation Ltd
p4477
sg41
I2012
sg42
g27
sbsVAUS0000166
p4478
g2
(g3
g4
Ntp4479
Rp4480
(dp4481
g8
Nsg9
g10
sg11
g12
((lp4482
tp4483
Rp4484
sg16
F282.0
sg17
VOakey
p4485
sg19
g20
sg21
g22
sg23
g24
sg25
Nsg26
g27
sg28
g2
(g29
g4
Ntp4486
Rp4487
(dp4488
g33
F-27.418361999999945
sg34
g27
sg35
F151.67976700000008
sbsg36
g4478
sg37
Nsg38
g10
sg39
VOakey Power Pty Ltd
p4489
sg41
I2012
sg42
g27
sbsVAUS0000167
p4490
g2
(g3
g4
Ntp4491
Rp4492
(dp4493
g8
Nsg9
g10
sg11
g12
((lp4494
tp4495
Rp4496
sg16
F20.0
sg17
VOaky Creek
p4497
sg19
g20
sg21
g22
sg23
g24
sg25
Nsg26
g27
sg28
g2
(g29
g4
Ntp4498
Rp4499
(dp4500
g33
F-22.98777599999994
sg34
g27
sg35
F148.58170200000006
sbsg36
g4490
sg37
Nsg38
g10
sg39
VEnvironGen (Oaky) Pty Ltd
p4501
sg41
I2012
sg42
g27
sbsVAUS0000164
p4502
g2
(g3
g4
Ntp4503
Rp4504
(dp4505
g8
Nsg9
g10
sg11
g12
((lp4506
tp4507
Rp4508
sg16
F12.0
sg17
VMoranbah
p4509
sg19
g20
sg21
g22
sg23
g24
sg25
Nsg26
g27
sg28
g2
(g29
g4
Ntp4510
Rp4511
(dp4512
g33
F-21.98513020799993
sg34
g27
sg35
F148.02464716200006
sbsg36
g4502
sg37
Nsg38
g10
sg39
VEnergy Developments Ltd
p4513
sg41
I2012
sg42
g27
sbsVAUS0000165
p4514
g2
(g3
g4
Ntp4515
Rp4516
(dp4517
g8
Nsg9
g10
sg11
g12
((lp4518
tp4519
Rp4520
sg16
F424.0
sg17
VMount Stuart
p4521
sg19
g210
sg21
g22
sg23
g24
sg25
Nsg26
g27
sg28
g2
(g29
g4
Ntp4522
Rp4523
(dp4524
g33
F-19.33799799999997
sg34
g27
sg35
F146.85117100000002
sbsg36
g4514
sg37
Nsg38
g10
sg39
VOrigin Energy
p4525
sg41
I2012
sg42
g27
sbsVAUS0000067
p4526
g2
(g3
g4
Ntp4527
Rp4528
(dp4529
g8
Nsg9
g10
sg11
g12
((lp4530
tp4531
Rp4532
sg16
F4.4
sg17
VWollert
p4533
sg19
g247
sg21
g22
sg23
g24
sg25
Nsg26
g27
sg28
g2
(g29
g4
Ntp4534
Rp4535
(dp4536
g33
F-37.582956999999965
sg34
g27
sg35
F145.04870400000004
sbsg36
g4526
sg37
Nsg38
g10
sg39
VLMS Energy Generation Pty Ltd
p4537
sg41
I2012
sg42
g27
sbsVAUS0000066
p4538
g2
(g3
g4
Ntp4539
Rp4540
(dp4541
g8
Nsg9
g10
sg11
g12
((lp4542
tp4543
Rp4544
sg16
F1.1
sg17
VWyndham
p4545
sg19
g247
sg21
g22
sg23
g24
sg25
Nsg26
g27
sg28
g2
(g29
g4
Ntp4546
Rp4547
(dp4548
g33
F-37.93748799999997
sg34
g27
sg35
F144.59017900000003
sbsg36
g4538
sg37
Nsg38
g10
sg39
VLMS Energy
p4549
sg41
I2012
sg42
g27
sbsVAUS0000065
p4550
g2
(g3
g4
Ntp4551
Rp4552
(dp4553
g8
Nsg9
g10
sg11
g12
((lp4554
tp4555
Rp4556
sg16
F21.6
sg17
VAlbany Wind Farm
p4557
sg19
g185
sg21
g22
sg23
g24
sg25
Nsg26
g27
sg28
g2
(g29
g4
Ntp4558
Rp4559
(dp4560
g33
F-35.064146999999934
sg34
g27
sg35
F117.79769500000009
sbsg36
g4550
sg37
Nsg38
g10
sg39
VVerve Energy
p4561
sg41
I2012
sg42
g27
sbsVAUS0000064
p4562
g2
(g3
g4
Ntp4563
Rp4564
(dp4565
g8
Nsg9
g10
sg11
g12
((lp4566
tp4567
Rp4568
sg16
F46.0
sg17
VCanunda Wind Farm
p4569
sg19
g185
sg21
g22
sg23
g24
sg25
Nsg26
g27
sg28
g2
(g29
g4
Ntp4570
Rp4571
(dp4572
g33
F-37.76025335999998
sg34
g27
sg35
F140.40331128800005
sbsg36
g4562
sg37
Nsg38
g10
sg39
VInternational Power - GDF Suez Australia
p4573
sg41
I2012
sg42
g27
sbsVAUS0000063
p4574
g2
(g3
g4
Ntp4575
Rp4576
(dp4577
g8
Nsg9
g10
sg11
g12
((lp4578
tp4579
Rp4580
sg16
F66.0
sg17
VCathedral Rocks Wind Farm
p4581
sg19
g185
sg21
g22
sg23
g24
sg25
Nsg26
g27
sg28
g2
(g29
g4
Ntp4582
Rp4583
(dp4584
g33
F-34.85086099999995
sg34
g27
sg35
F135.58517200000006
sbsg36
g4574
sg37
Nsg38
g10
sg39
VTRUenergy & Acciona Energy
p4585
sg41
I2012
sg42
g27
sbsVAUS0000062
p4586
g2
(g3
g4
Ntp4587
Rp4588
(dp4589
g8
Nsg9
g10
sg11
g12
((lp4590
tp4591
Rp4592
sg16
F159.0
sg17
VLake Bonney Wind Farm
p4593
sg19
g185
sg21
g22
sg23
g24
sg25
Nsg26
g27
sg28
g2
(g29
g4
Ntp4594
Rp4595
(dp4596
g33
F-37.77134988199998
sg34
g27
sg35
F140.39808392700002
sbsg36
g4586
sg37
Nsg38
g10
sg39
VInfigen Energy Pty Ltd
p4597
sg41
I2012
sg42
g27
sbsVAUS0000061
p4598
g2
(g3
g4
Ntp4599
Rp4600
(dp4601
g8
Nsg9
g10
sg11
g12
((lp4602
tp4603
Rp4604
sg16
F70.0
sg17
VMount Millar Wind Farm
p4605
sg19
g185
sg21
g22
sg23
g24
sg25
Nsg26
g27
sg28
g2
(g29
g4
Ntp4606
Rp4607
(dp4608
g33
F-33.62672799999996
sg34
g27
sg35
F136.704562
sbsg36
g4598
sg37
Nsg38
g10
sg39
VMeridian Energy Australia
p4609
sg41
I2012
sg42
g27
sbsVAUS0000060
p4610
g2
(g3
g4
Ntp4611
Rp4612
(dp4613
g8
Nsg9
g10
sg11
g12
((lp4614
tp4615
Rp4616
sg16
F30.0
sg17
VRocky Point Sugar Sugar Mill
p4617
sg19
g307
sg21
g22
sg23
g24
sg25
Nsg26
g27
sg28
g2
(g29
g4
Ntp4618
Rp4619
(dp4620
g33
F-27.73344899999995
sg34
g27
sg35
F153.32760700000006
sbsg36
g4610
sg37
Nsg38
g10
sg39
VStanwell Corporation Ltd
p4621
sg41
I2012
sg42
g27
sbsVAUS0000069
p4622
g2
(g3
g4
Ntp4623
Rp4624
(dp4625
g8
Nsg9
g10
sg11
g12
((lp4626
tp4627
Rp4628
sg16
F21.0
sg17
VToora Wind Farm
p4629
sg19
g185
sg21
g22
sg23
g24
sg25
Nsg26
g27
sg28
g2
(g29
g4
Ntp4630
Rp4631
(dp4632
g33
F-38.645059999999944
sg34
g27
sg35
F146.34413200000006
sbsg36
g4622
sg37
Nsg38
g10
sg39
VRATCH-Australia
p4633
sg41
I2012
sg42
g27
sbsVAUS0000068
p4634
g2
(g3
g4
Ntp4635
Rp4636
(dp4637
g8
Nsg9
g10
sg11
g12
((lp4638
tp4639
Rp4640
sg16
F1.1
sg17
VWhitwood Road
p4641
sg19
g247
sg21
g22
sg23
g24
sg25
Nsg26
g27
sg28
g2
(g29
g4
Ntp4642
Rp4643
(dp4644
g33
F-27.659013999999956
sg34
g27
sg35
F152.82374300000004
sbsg36
g4634
sg37
Nsg38
g10
sg39
VLMS Energy Generation Pty Ltd
p4645
sg41
I2012
sg42
g27
sbsVAUS0000028
p4646
g2
(g3
g4
Ntp4647
Rp4648
(dp4649
g8
Nsg9
g10
sg11
g12
((lp4650
tp4651
Rp4652
sg16
F48.3
sg17
VWoodlawn Wind Farm
p4653
sg19
g185
sg21
g22
sg23
g24
sg25
Nsg26
g27
sg28
g2
(g29
g4
Ntp4654
Rp4655
(dp4656
g33
F-35.086059700999954
sg34
g27
sg35
F149.57160577900004
sbsg36
g4646
sg37
Nsg38
g10
sg39
VInfigen Energy Pty Ltd
p4657
sg41
I2012
sg42
g27
sbsVAUS0000012
p4658
g2
(g3
g4
Ntp4659
Rp4660
(dp4661
g8
Nsg9
g10
sg11
g12
((lp4662
tp4663
Rp4664
sg16
F5.7
sg17
VPindari
p4665
sg19
g63
sg21
g22
sg23
g24
sg25
Nsg26
g27
sg28
g2
(g29
g4
Ntp4666
Rp4667
(dp4668
g33
F-29.38862599999993
sg34
g27
sg35
F151.2442020000001
sbsg36
g4658
sg37
Nsg38
g10
sg39
VAGL Energy Pty Ltd
p4669
sg41
I2012
sg42
g27
sbsVAUS0000013
p4670
g2
(g3
g4
Ntp4671
Rp4672
(dp4673
g8
Nsg9
g10
sg11
g12
((lp4674
tp4675
Rp4676
sg16
F2.2
sg17
VNieterana
p4677
sg19
g63
sg21
g22
sg23
g24
sg25
Nsg26
g27
sg28
g2
(g29
g4
Ntp4678
Rp4679
(dp4680
g33
F-42.26858699999997
sg34
g27
sg35
F146.2628830000001
sbsg36
g4670
sg37
Nsg38
g10
sg39
VHydro-Electric Corporation (Tasmania)
p4681
sg41
I2012
sg42
g27
sbsVAUS0000010
p4682
g2
(g3
g4
Ntp4683
Rp4684
(dp4685
g8
Nsg9
g10
sg11
g12
((lp4686
tp4687
Rp4688
sg16
F75.0
sg17
VStudland Bay (Woolnorth) Wind Farm
p4689
sg19
g185
sg21
g22
sg23
g24
sg25
Nsg26
g27
sg28
g2
(g29
g4
Ntp4690
Rp4691
(dp4692
g33
F-40.778753999999935
sg34
g27
sg35
F144.73620400000004
sbsg36
g4682
sg37
Nsg38
g10
sg39
VHydro-Electric Corporation (Tasmania)
p4693
sg41
I2012
sg42
g27
sbsVAUS0000011
p4694
g2
(g3
g4
Ntp4695
Rp4696
(dp4697
g8
Nsg9
g10
sg11
g12
((lp4698
tp4699
Rp4700
sg16
F2.5
sg17
VThe Drop
p4701
sg19
g63
sg21
g22
sg23
g24
sg25
Nsg26
g27
sg28
g2
(g29
g4
Ntp4702
Rp4703
(dp4704
g33
F-35.60434699999996
sg34
g27
sg35
F145.78372500000012
sbsg36
g4694
sg37
Nsg38
g10
sg39
VPacific Hydro Investments Pty Ltd
p4705
sg41
I2012
sg42
g27
sbsVAUS0000016
p4706
g2
(g3
g4
Ntp4707
Rp4708
(dp4709
g8
Nsg9
g10
sg11
g12
((lp4710
tp4711
Rp4712
sg16
F67.2
sg17
VOakland Hills Wind Farm
p4713
sg19
g185
sg21
g22
sg23
g24
sg25
Nsg26
g27
sg28
g2
(g29
g4
Ntp4714
Rp4715
(dp4716
g33
F-37.66380099999998
sg34
g27
sg35
F142.5480560000001
sbsg36
g4706
sg37
Nsg38
g10
sg39
VAGL Energy Pty Ltd
p4717
sg41
I2012
sg42
g27
sbsVAUS0000017
p4718
g2
(g3
g4
Ntp4719
Rp4720
(dp4721
g8
Nsg9
g10
sg11
g12
((lp4722
tp4723
Rp4724
sg16
F1.1
sg17
VShepparton Biogas Generation Plant
p4725
sg19
g247
sg21
g22
sg23
g24
sg25
Nsg26
g27
sg28
g2
(g29
g4
Ntp4726
Rp4727
(dp4728
g33
F-36.321774999999946
sg34
g27
sg35
F145.37898300000006
sbsg36
g4718
sg37
Nsg38
g10
sg39
VDiamond Energy Pty Ltd
p4729
sg41
I2012
sg42
g27
sbsVAUS0000014
p4730
g2
(g3
g4
Ntp4731
Rp4732
(dp4733
g8
Nsg9
g10
sg11
g12
((lp4734
tp4735
Rp4736
sg16
F12.5
sg17
VBanimboola
p4737
sg19
g63
sg21
g22
sg23
g24
sg25
Nsg26
g27
sg28
g2
(g29
g4
Ntp4738
Rp4739
(dp4740
g33
F-36.534208999999976
sg34
g27
sg35
F147.45942600000012
sbsg36
g4730
sg37
Nsg38
g10
sg39
VAGL Energy Pty Ltd
p4741
sg41
I2012
sg42
g27
sbsVAUS0000015
p4742
g2
(g3
g4
Ntp4743
Rp4744
(dp4745
g8
Nsg9
g10
sg11
g12
((lp4746
tp4747
Rp4748
sg16
F18.2
sg17
VCodrington Wind Farm
p4749
sg19
g185
sg21
g22
sg23
g24
sg25
Nsg26
g27
sg28
g2
(g29
g4
Ntp4750
Rp4751
(dp4752
g33
F-38.28351622699995
sg34
g27
sg35
F141.9547286720001
sbsg36
g4742
sg37
Nsg38
g10
sg39
VEnergy Pacific (Victoria) Pty Ltd
p4753
sg41
I2012
sg42
g27
sbsVAUS0000018
p4754
g2
(g3
g4
Ntp4755
Rp4756
(dp4757
g8
Nsg9
g10
sg11
g12
((lp4758
tp4759
Rp4760
sg16
F1.1
sg17
VTatura Biogas Generation Plant
p4761
sg19
g247
sg21
g22
sg23
g24
sg25
Nsg26
g27
sg28
g2
(g29
g4
Ntp4762
Rp4763
(dp4764
g33
F-36.47926099999995
sg34
g27
sg35
F145.23502600000006
sbsg36
g4754
sg37
Nsg38
g10
sg39
VDiamond Energy Pty Ltd
p4765
sg41
I2012
sg42
g27
sbsVAUS0000019
p4766
g2
(g3
g4
Ntp4767
Rp4768
(dp4769
g8
Nsg9
g10
sg11
g12
((lp4770
tp4771
Rp4772
sg16
F192.0
sg17
VWaubra Wind Farm
p4773
sg19
g185
sg21
g22
sg23
g24
sg25
Nsg26
g27
sg28
g2
(g29
g4
Ntp4774
Rp4775
(dp4776
g33
F-37.355981499999984
sg34
g27
sg35
F143.6059150000001
sbsg36
g4766
sg37
Nsg38
g10
sg39
VAcciona Energy Australia
p4777
sg41
I2012
sg42
g27
sbsVAUS0000158
p4778
g2
(g3
g4
Ntp4779
Rp4780
(dp4781
g8
Nsg9
g10
sg11
g12
((lp4782
tp4783
Rp4784
sg16
F1680.0
sg17
VGladstone
p4785
sg19
g76
sg21
g22
sg23
g24
sg25
Nsg26
g27
sg28
g2
(g29
g4
Ntp4786
Rp4787
(dp4788
g33
F-23.85075299999994
sg34
g27
sg35
F151.21865300000002
sbsg36
g4778
sg37
Nsg38
g10
sg39
VGPS Joint Venture
p4789
sg41
I2012
sg42
g27
sbsVAUS0000058
p4790
g2
(g3
g4
Ntp4791
Rp4792
(dp4793
g8
Nsg9
g10
sg11
g12
((lp4794
tp4795
Rp4796
sg16
F2.5
sg17
VTerminal Storage
p4797
sg19
g63
sg21
g22
sg23
g24
sg25
Nsg26
g27
sg28
g2
(g29
g4
Ntp4798
Rp4799
(dp4800
g33
F-34.83932299999998
sg34
g27
sg35
F138.711226
sbsg36
g4790
sg37
Nsg38
g10
sg39
VHydro-Electric Corp Tasmania/SA Water
p4801
sg41
I2012
sg42
g27
sbsVAUS0000059
p4802
g2
(g3
g4
Ntp4803
Rp4804
(dp4805
g8
Nsg9
g10
sg11
g12
((lp4806
tp4807
Rp4808
sg16
F1.5
sg17
VSuncoast Gold Macadamia
p4809
sg19
g307
sg21
g22
sg23
g24
sg25
Nsg26
g27
sg28
g2
(g29
g4
Ntp4810
Rp4811
(dp4812
g33
F-26.226124999999968
sg34
g27
sg35
F152.69810200000006
sbsg36
g4802
sg37
Nsg38
g10
sg39
VAGL Energy Pty Ltd
p4813
sg41
I2012
sg42
g27
sbsVAUS0000457
p4814
g2
(g3
g4
Ntp4815
Rp4816
(dp4817
g8
Nsg9
g10
sg11
g12
((lp4818
tp4819
Rp4820
sg16
F450.0
sg17
VCape Preston
p4821
sg19
g20
sg21
g22
sg23
g24
sg25
Nsg26
g27
sg28
g2
(g29
g4
Ntp4822
Rp4823
(dp4824
g33
F-21.076706137999963
sg34
g27
sg35
F116.15901566800005
sbsg36
g4814
sg37
Nsg38
g10
sg39
VCitic Pacific Mining
p4825
sg41
Nsg42
g27
sbsVAUS0000455
p4826
g2
(g3
g4
Ntp4827
Rp4828
(dp4829
g8
Nsg9
g10
sg11
g12
((lp4830
tp4831
Rp4832
sg16
F71.4
sg17
VHallett 2 Hallet Hill  Wind Farm
p4833
sg19
g185
sg21
g22
sg23
g24
sg25
Nsg26
g27
sg28
g2
(g29
g4
Ntp4834
Rp4835
(dp4836
g33
F-33.57166811999997
sg34
g27
sg35
F138.85795056000006
sbsg36
g4826
sg37
Nsg38
g10
sg39
VANZ Energy Infrastructure Trust
p4837
sg41
I2012
sg42
g27
sbsVAUS0000249
p4838
g2
(g3
g4
Ntp4839
Rp4840
(dp4841
g8
Nsg9
g10
sg11
g12
((lp4842
tp4843
Rp4844
sg16
F90.0
sg17
VMintaro
p4845
sg19
g20
sg21
g22
sg23
g24
sg25
Nsg26
g27
sg28
g2
(g29
g4
Ntp4846
Rp4847
(dp4848
g33
F-33.90309999999994
sg34
g27
sg35
F138.7383000000001
sbsg36
g4838
sg37
Nsg38
g10
sg39
VSynergen Power
p4849
sg41
I2012
sg42
g27
sbsVAUS0000248
p4850
g2
(g3
g4
Ntp4851
Rp4852
(dp4853
g8
Nsg9
g10
sg11
g12
((lp4854
tp4855
Rp4856
sg16
F530.0
sg17
VNorthern
p4857
sg19
g76
sg21
g22
sg23
g24
sg25
Nsg26
g27
sg28
g2
(g29
g4
Ntp4858
Rp4859
(dp4860
g33
F-32.54325399999993
sg34
g27
sg35
F137.78820400000006
sbsg36
g4850
sg37
Nsg38
g10
sg39
VAlinta Energy
p4861
sg41
I2012
sg42
g27
sbsVAUS0000247
p4862
g2
(g3
g4
Ntp4863
Rp4864
(dp4865
g8
Nsg9
g10
sg11
g12
((lp4866
tp4867
Rp4868
sg16
F240.0
sg17
VPlayford
p4869
sg19
g76
sg21
g22
sg23
g24
sg25
Nsg26
g27
sg28
g2
(g29
g4
Ntp4870
Rp4871
(dp4872
g33
F-32.539278999999965
sg34
g27
sg35
F137.78188000000011
sbsg36
g4862
sg37
Nsg38
g10
sg39
VAlinta Energy
p4873
sg41
I2012
sg42
g27
sbsVAUS0000246
p4874
g2
(g3
g4
Ntp4875
Rp4876
(dp4877
g8
Nsg9
g10
sg11
g12
((lp4878
tp4879
Rp4880
sg16
Nsg17
VSnowtown
p4881
sg19
g20
sg21
g22
sg23
g24
sg25
Nsg26
g27
sg28
g2
(g29
g4
Ntp4882
Rp4883
(dp4884
g33
F-33.71386699999994
sg34
g27
sg35
F138.14036700000008
sbsg36
g4874
sg37
Nsg38
g10
sg39
g27
sg41
I2012
sg42
g27
sbsVAUS0000245
p4885
g2
(g3
g4
Ntp4886
Rp4887
(dp4888
g8
Nsg9
g10
sg11
g12
((lp4889
tp4890
Rp4891
sg16
F63.0
sg17
VSnuggery
p4892
sg19
g20
sg21
g22
sg23
g24
sg25
Nsg26
g27
sg28
g2
(g29
g4
Ntp4893
Rp4894
(dp4895
g33
F-37.66455099999996
sg34
g27
sg35
F140.41555800000003
sbsg36
g4885
sg37
Nsg38
g10
sg39
VInternational Power - GDF Suez Australia
p4896
sg41
I2012
sg42
g27
sbsVAUS0000244
p4897
g2
(g3
g4
Ntp4898
Rp4899
(dp4900
g8
Nsg9
g10
sg11
g12
((lp4901
tp4902
Rp4903
sg16
F80.0
sg17
VLadbroke Grove
p4904
sg19
g20
sg21
g22
sg23
g24
sg25
Nsg26
g27
sg28
g2
(g29
g4
Ntp4905
Rp4906
(dp4907
g33
F-37.45667299999997
sg34
g27
sg35
F140.7826920000001
sbsg36
g4897
sg37
Nsg38
g10
sg39
VOrigin Energy
p4908
sg41
I2012
sg42
g27
sbsVAUS0000243
p4909
g2
(g3
g4
Ntp4910
Rp4911
(dp4912
g8
Nsg9
g10
sg11
g12
((lp4913
tp4914
Rp4915
sg16
F4.1
sg17
VWingfield II
p4916
sg19
g247
sg21
g22
sg23
g24
sg25
Nsg26
g27
sg28
g2
(g29
g4
Ntp4917
Rp4918
(dp4919
g33
F-34.83208099999996
sg34
g27
sg35
F138.5489030000001
sbsg36
g4909
sg37
Nsg38
g10
sg39
VEnergy Developments LFG (SA) Pty Ltd
p4920
sg41
I2012
sg42
g27
sbsVAUS0000242
p4921
g2
(g3
g4
Ntp4922
Rp4923
(dp4924
g8
Nsg9
g10
sg11
g12
((lp4925
tp4926
Rp4927
sg16
F4.1
sg17
VWingfield I
p4928
sg19
g247
sg21
g22
sg23
g24
sg25
Nsg26
g27
sg28
g2
(g29
g4
Ntp4929
Rp4930
(dp4931
g33
F-34.83481999999998
sg34
g27
sg35
F138.55724700000007
sbsg36
g4921
sg37
Nsg38
g10
sg39
VEnergy Developments LFG (SA) Pty Ltd
p4932
sg41
I2012
sg42
g27
sbsVAUS0000241
p4933
g2
(g3
g4
Ntp4934
Rp4935
(dp4936
g8
Nsg9
g10
sg11
g12
((lp4937
tp4938
Rp4939
sg16
F800.0
sg17
VTorrens Island B
p4940
sg19
g20
sg21
g22
sg23
g24
sg25
Nsg26
g27
sg28
g2
(g29
g4
Ntp4941
Rp4942
(dp4943
g33
F-34.80517099999997
sg34
g27
sg35
F138.52262000000007
sbsg36
g4933
sg37
Nsg38
g10
sg39
VAGL Energy Pty Ltd
p4944
sg41
I2012
sg42
g27
sbsVAUS0000240
p4945
g2
(g3
g4
Ntp4946
Rp4947
(dp4948
g8
Nsg9
g10
sg11
g12
((lp4949
tp4950
Rp4951
sg16
F480.0
sg17
VTorrens Island A
p4952
sg19
g20
sg21
g22
sg23
g24
sg25
Nsg26
g27
sg28
g2
(g29
g4
Ntp4953
Rp4954
(dp4955
g33
F-34.806843999999955
sg34
g27
sg35
F138.52132200000005
sbsg36
g4945
sg37
Nsg38
g10
sg39
VAGL Energy Pty Ltd
p4956
sg41
I2012
sg42
g27
sbsVAUS0000126
p4957
g2
(g3
g4
Ntp4958
Rp4959
(dp4960
g8
Nsg9
g10
sg11
g12
((lp4961
tp4962
Rp4963
sg16
F48.0
sg17
VCatagunya
p4964
sg19
g63
sg21
g22
sg23
g24
sg25
Nsg26
g27
sg28
g2
(g29
g4
Ntp4965
Rp4966
(dp4967
g33
F-42.452380999999946
sg34
g27
sg35
F146.59768700000006
sbsg36
g4957
sg37
Nsg38
g10
sg39
VHydro-Electric Corporation (Tasmania)
p4968
sg41
I2012
sg42
g27
sbsVAUS0000088
p4969
g2
(g3
g4
Ntp4970
Rp4971
(dp4972
g8
Nsg9
g10
sg11
g12
((lp4973
tp4974
Rp4975
sg16
F212.0
sg17
VJeeralang A
p4976
sg19
g20
sg21
g22
sg23
g24
sg25
Nsg26
g27
sg28
g2
(g29
g4
Ntp4977
Rp4978
(dp4979
g33
F-38.27532499999995
sg34
g27
sg35
F146.4262960000001
sbsg36
g4969
sg37
Nsg38
g10
sg39
VIndustry Funds Management Nominees Ltd Ecogen Holdings
p4980
sg41
I2012
sg42
g27
sbsVAUS0000124
p4981
g2
(g3
g4
Ntp4982
Rp4983
(dp4984
g8
Nsg9
g10
sg11
g12
((lp4985
tp4986
Rp4987
sg16
F32.0
sg17
VLake Echo
p4988
sg19
g63
sg21
g22
sg23
g24
sg25
Nsg26
g27
sg28
g2
(g29
g4
Ntp4989
Rp4990
(dp4991
g33
F-42.253701999999976
sg34
g27
sg35
F146.62069900000006
sbsg36
g4981
sg37
Nsg38
g10
sg39
VHydro-Electric Corporation (Tasmania)
p4992
sg41
I2012
sg42
g27
sbsVAUS0000125
p4993
g2
(g3
g4
Ntp4994
Rp4995
(dp4996
g8
Nsg9
g10
sg11
g12
((lp4997
tp4998
Rp4999
sg16
F17.0
sg17
VCluny
p5000
sg19
g63
sg21
g22
sg23
g24
sg25
Nsg26
g27
sg28
g2
(g29
g4
Ntp5001
Rp5002
(dp5003
g33
F-42.506422999999984
sg34
g27
sg35
F146.68116200000009
sbsg36
g4993
sg37
Nsg38
g10
sg39
VHydro-Electric Corporation (Tasmania)
p5004
sg41
I2012
sg42
g27
sbsVAUS0000122
p5005
g2
(g3
g4
Ntp5006
Rp5007
(dp5008
g8
Nsg9
g10
sg11
g12
((lp5009
tp5010
Rp5011
sg16
F40.0
sg17
VMeadowbank
p5012
sg19
g63
sg21
g22
sg23
g24
sg25
Nsg26
g27
sg28
g2
(g29
g4
Ntp5013
Rp5014
(dp5015
g33
F-42.61119899999994
sg34
g27
sg35
F146.84567600000003
sbsg36
g5005
sg37
Nsg38
g10
sg39
VHydro-Electric Corporation (Tasmania)
p5016
sg41
I2012
sg42
g27
sbsVAUS0000123
p5017
g2
(g3
g4
Ntp5018
Rp5019
(dp5020
g8
Nsg9
g10
sg11
g12
((lp5021
tp5022
Rp5023
sg16
F87.3
sg17
VLiapootah
p5024
sg19
g63
sg21
g22
sg23
g24
sg25
Nsg26
g27
sg28
g2
(g29
g4
Ntp5025
Rp5026
(dp5027
g33
F-42.37631699999997
sg34
g27
sg35
F146.50989000000004
sbsg36
g5017
sg37
Nsg38
g10
sg39
VHydro-Electric Corporation (Tasmania)
p5028
sg41
I2012
sg42
g27
sbsVAUS0000120
p5029
g2
(g3
g4
Ntp5030
Rp5031
(dp5032
g8
Nsg9
g10
sg11
g12
((lp5033
tp5034
Rp5035
sg16
F28.0
sg17
VRepulse
p5036
sg19
g63
sg21
g22
sg23
g24
sg25
Nsg26
g27
sg28
g2
(g29
g4
Ntp5037
Rp5038
(dp5039
g33
F-42.507694999999956
sg34
g27
sg35
F146.64696000000004
sbsg36
g5029
sg37
Nsg38
g10
sg39
VHydro-Electric Corporation (Tasmania)
p5040
sg41
I2012
sg42
g27
sbsVAUS0000121
p5041
g2
(g3
g4
Ntp5042
Rp5043
(dp5044
g8
Nsg9
g10
sg11
g12
((lp5045
tp5046
Rp5047
sg16
F300.0
sg17
VPoatina
p5048
sg19
g63
sg21
g22
sg23
g24
sg25
Nsg26
g27
sg28
g2
(g29
g4
Ntp5049
Rp5050
(dp5051
g33
F-41.81157299999995
sg34
g27
sg35
F146.9190380000001
sbsg36
g5041
sg37
Nsg38
g10
sg39
VHydro-Electric Corporation (Tasmania)
p5052
sg41
I2012
sg42
g27
sbsVAUS0000081
p5053
g2
(g3
g4
Ntp5054
Rp5055
(dp5056
g8
Nsg9
g10
sg11
g12
((lp5057
tp5058
Rp5059
sg16
F94.0
sg17
VBairnsdale
p5060
sg19
g20
sg21
g22
sg23
g24
sg25
Nsg26
g27
sg28
g2
(g29
g4
Ntp5061
Rp5062
(dp5063
g33
F-37.842858999999976
sg34
g27
sg35
F147.56393000000003
sbsg36
g5053
sg37
Nsg38
g10
sg39
VAlinta DEBO
p5064
sg41
I2012
sg42
g27
sbsVAUS0000080
p5065
g2
(g3
g4
Ntp5066
Rp5067
(dp5068
g8
Nsg9
g10
sg11
g12
((lp5069
tp5070
Rp5071
sg16
F4.6
sg17
VBerwick
p5072
sg19
g247
sg21
g22
sg23
g24
sg25
Nsg26
g27
sg28
g2
(g29
g4
Ntp5073
Rp5074
(dp5075
g33
F-38.11970199999996
sg34
g27
sg35
F145.26646100000005
sbsg36
g5065
sg37
Nsg38
g10
sg39
VEnergy Developments LFG (Victoria) Pty Ltd
p5076
sg41
I2012
sg42
g27
sbsVAUS0000083
p5077
g2
(g3
g4
Ntp5078
Rp5079
(dp5080
g8
Nsg9
g10
sg11
g12
((lp5081
tp5082
Rp5083
sg16
F11.0
sg17
VClayton
p5084
sg19
g247
sg21
g22
sg23
g24
sg25
Nsg26
g27
sg28
g2
(g29
g4
Ntp5085
Rp5086
(dp5087
g33
F-37.95019999999994
sg34
g27
sg35
F145.11872200000005
sbsg36
g5077
sg37
Nsg38
g10
sg39
VEnergy Developments LFG (Victoria) Pty Ltd
p5088
sg41
I2012
sg42
g27
sbsVAUS0000082
p5089
g2
(g3
g4
Ntp5090
Rp5091
(dp5092
g8
Nsg9
g10
sg11
g12
((lp5093
tp5094
Rp5095
sg16
F6.2
sg17
VBroadmeadows
p5096
sg19
g247
sg21
g22
sg23
g24
sg25
Nsg26
g27
sg28
g2
(g29
g4
Ntp5097
Rp5098
(dp5099
g33
F-37.68778599999996
sg34
g27
sg35
F144.9663190000001
sbsg36
g5089
sg37
Nsg38
g10
sg39
VEnergy Developments LFG (Victoria) Pty Ltd
p5100
sg41
I2012
sg42
g27
sbsVAUS0000085
p5101
g2
(g3
g4
Ntp5102
Rp5103
(dp5104
g8
Nsg9
g10
sg11
g12
((lp5105
tp5106
Rp5107
sg16
F189.0
sg17
VEnergy Brix
p5108
sg19
g76
sg21
g22
sg23
g24
sg25
Nsg26
g27
sg28
g2
(g29
g4
Ntp5109
Rp5110
(dp5111
g33
F-38.25455999999997
sg34
g27
sg35
F146.41372200000012
sbsg36
g5101
sg37
Nsg38
g10
sg39
VEnergy Brix (Aust) Corp
p5112
sg41
I2012
sg42
g27
sbsVAUS0000084
p5113
g2
(g3
g4
Ntp5114
Rp5115
(dp5116
g8
Nsg9
g10
sg11
g12
((lp5117
tp5118
Rp5119
sg16
F135.0
sg17
VEildon
p5120
sg19
g63
sg21
g22
sg23
g24
sg25
Nsg26
g27
sg28
g2
(g29
g4
Ntp5121
Rp5122
(dp5123
g33
F-37.22200499999997
sg34
g27
sg35
F145.92145200000004
sbsg36
g5113
sg37
Nsg38
g10
sg39
VAGL Energy Pty Ltd
p5124
sg41
I2012
sg42
g27
sbsVAUS0000087
p5125
g2
(g3
g4
Ntp5126
Rp5127
(dp5128
g8
Nsg9
g10
sg11
g12
((lp5129
tp5130
Rp5131
sg16
F1600.0
sg17
VHazelwood
p5132
sg19
g76
sg21
g22
sg23
g24
sg25
Nsg26
g27
sg28
g2
(g29
g4
Ntp5133
Rp5134
(dp5135
g33
F-38.273102999999935
sg34
g27
sg35
F146.39226300000007
sbsg36
g5125
sg37
Nsg38
g10
sg39
VHazelwood Power
p5136
sg41
I2012
sg42
g27
sbsVAUS0000086
p5137
g2
(g3
g4
Ntp5138
Rp5139
(dp5140
g8
Nsg9
g10
sg11
g12
((lp5141
tp5142
Rp5143
sg16
F3.8
sg17
VLake Glenmaggie
p5144
sg19
g63
sg21
g22
sg23
g24
sg25
Nsg26
g27
sg28
g2
(g29
g4
Ntp5145
Rp5146
(dp5147
g33
F-37.904744999999934
sg34
g27
sg35
F146.80108500000006
sbsg36
g5137
sg37
Nsg38
g10
sg39
VPacific Hydro Investments Pty Ltd
p5148
sg41
I2012
sg42
g27
sbsVAUS0000449
p5149
g2
(g3
g4
Ntp5150
Rp5151
(dp5152
g8
Nsg9
g10
sg11
g12
((lp5153
tp5154
Rp5155
sg16
F8.55
sg17
VKing Island (Currie)
p5156
sg19
g210
sg21
g22
sg23
g24
sg25
Nsg26
g27
sg28
g2
(g29
g4
Ntp5157
Rp5158
(dp5159
g33
F-39.93878522399996
sg34
g27
sg35
F143.891964593
sbsg36
g5149
sg37
Nsg38
g10
sg39
VHydro Tasmania
p5160
sg41
Nsg42
g27
sbsVAUS0000448
p5161
g2
(g3
g4
Ntp5162
Rp5163
(dp5164
g8
Nsg9
g10
sg11
g12
((lp5165
tp5166
Rp5167
sg16
F1.5
sg17
VMildura Solar Farm
p5168
sg19
g968
sg21
g22
sg23
g24
sg25
Nsg26
g27
sg28
g2
(g29
g4
Ntp5169
Rp5170
(dp5171
g33
F-34.467089802999965
sg34
g27
sg35
F142.183286693
sbsg36
g5161
sg37
Nsg38
g10
sg39
VSilex Systems
p5172
sg41
I2014
sg42
g27
sbsVAUS0000441
p5173
g2
(g3
g4
Ntp5174
Rp5175
(dp5176
g8
Nsg9
g10
sg11
g12
((lp5177
tp5178
Rp5179
sg16
F0.16
sg17
VKogarah Town Square Solar Array
p5180
sg19
g968
sg21
g22
sg23
g24
sg25
Nsg26
g27
sg28
g2
(g29
g4
Ntp5181
Rp5182
(dp5183
g33
F-33.965174529999956
sg34
g27
sg35
F151.1331504310001
sbsg36
g5173
sg37
Nsg38
g10
sg39
VKogarah Council
p5184
sg41
I2012
sg42
g27
sbsVAUS0000440
p5185
g2
(g3
g4
Ntp5186
Rp5187
(dp5188
g8
Nsg9
g10
sg11
g12
((lp5189
tp5190
Rp5191
sg16
F0.39
sg17
VSingleton Solar Farm
p5192
sg19
g968
sg21
g22
sg23
g24
sg25
Nsg26
g27
sg28
g2
(g29
g4
Ntp5193
Rp5194
(dp5195
g33
F-32.59238450699996
sg34
g27
sg35
F151.18120867400012
sbsg36
g5185
sg37
Nsg38
g10
sg39
VAusgrid
p5196
sg41
I2012
sg42
g27
sbsVAUS0000443
p5197
g2
(g3
g4
Ntp5198
Rp5199
(dp5200
g8
Nsg9
g10
sg11
g12
((lp5201
tp5202
Rp5203
sg16
F10.0
sg17
VMt Gambier
p5204
sg19
g307
sg21
g22
sg23
g24
sg25
Nsg26
g27
sg28
g2
(g29
g4
Ntp5205
Rp5206
(dp5207
g33
F-37.83884532999997
sg34
g27
sg35
F140.8056959710001
sbsg36
g5197
sg37
Nsg38
g10
sg39
VCarter Holt Harvey Wood Products Australia Pty Limited
p5208
sg41
I2013
sg42
g27
sbsVAUS0000442
p5209
g2
(g3
g4
Ntp5210
Rp5211
(dp5212
g8
Nsg9
g10
sg11
g12
((lp5213
tp5214
Rp5215
sg16
F0.14
sg17
VStadium Australia
p5216
sg19
g968
sg21
g22
sg23
g24
sg25
Nsg26
g27
sg28
g2
(g29
g4
Ntp5217
Rp5218
(dp5219
g33
F-33.84517807299994
sg34
g27
sg35
F151.06403926100006
sbsg36
g5209
sg37
Nsg38
g10
sg39
g27
sg41
I2012
sg42
g27
sbsVAUS0000445
p5220
g2
(g3
g4
Ntp5221
Rp5222
(dp5223
g8
Nsg9
g10
sg11
g12
((lp5224
tp5225
Rp5226
sg16
F2.0
sg17
VVisy Paper Gibson Island
p5227
sg19
g307
sg21
g22
sg23
g24
sg25
Nsg26
g27
sg28
g2
(g29
g4
Ntp5228
Rp5229
(dp5230
g33
F-27.44051322399997
sg34
g27
sg35
F153.11579455700007
sbsg36
g5220
sg37
Nsg38
g10
sg39
VVisy Pulp & Paper
p5231
sg41
Nsg42
g27
sbsVAUS0000444
p5232
g2
(g3
g4
Ntp5233
Rp5234
(dp5235
g8
Nsg9
g10
sg11
g12
((lp5236
tp5237
Rp5238
sg16
F1.0
sg17
VNarrogin Bioenergy Plant
p5239
sg19
g307
sg21
g22
sg23
g24
sg25
Nsg26
g27
sg28
g2
(g29
g4
Ntp5240
Rp5241
(dp5242
g33
F-32.95211794599993
sg34
g27
sg35
F117.19158099000003
sbsg36
g5232
sg37
Nsg38
g10
sg39
VVerve Energy  Western Power  Oil Mallee Co  Enecon P/L
p5243
sg41
I2013
sg42
g27
sbsVAUS0000447
p5244
g2
(g3
g4
Ntp5245
Rp5246
(dp5247
g8
Nsg9
g10
sg11
g12
((lp5248
tp5249
Rp5250
sg16
F145.0
sg17
VWilpena Solar Farm
p5251
sg19
g968
sg21
g22
sg23
g24
sg25
Nsg26
g27
sg28
g2
(g29
g4
Ntp5252
Rp5253
(dp5254
g33
F-31.523392487999956
sg34
g27
sg35
F138.6197569530001
sbsg36
g5244
sg37
Nsg38
g10
sg39
VAGL
p5255
sg41
I2014
sg42
g27
sbsVAUS0000446
p5256
g2
(g3
g4
Ntp5257
Rp5258
(dp5259
g8
Nsg9
g10
sg11
g12
((lp5260
tp5261
Rp5262
sg16
F325.0
sg17
VMica Creek
p5263
sg19
g20
sg21
g22
sg23
g24
sg25
Nsg26
g27
sg28
g2
(g29
g4
Ntp5264
Rp5265
(dp5266
g33
F-20.777726239999936
sg34
g27
sg35
F139.49046429100008
sbsg36
g5256
sg37
Nsg38
g10
sg39
VStanwell Corporation
p5267
sg41
I2013
sg42
g27
sbsVAUS0000333
p5268
g2
(g3
g4
Ntp5269
Rp5270
(dp5271
g8
Nsg9
g10
sg11
g12
((lp5272
tp5273
Rp5274
sg16
F1.2
sg17
VMelbourne
p5275
sg19
g20
sg21
g22
sg23
g24
sg25
Nsg26
g27
sg28
g2
(g29
g4
Ntp5276
Rp5277
(dp5278
g33
F-37.808596002999934
sg34
g27
sg35
F144.96848012300006
sbsg36
g5268
sg37
Nsg38
g10
sg39
VCogent Energy
p5279
sg41
I2012
sg42
g27
sbsVAUS0000332
p5280
g2
(g3
g4
Ntp5281
Rp5282
(dp5283
g8
Nsg9
g10
sg11
g12
((lp5284
tp5285
Rp5286
sg16
F4.2
sg17
VKRC Cogeneration Plant
p5287
sg19
g20
sg21
g22
sg23
g24
sg25
Nsg26
g27
sg28
g2
(g29
g4
Ntp5288
Rp5289
(dp5290
g33
F-27.445266808999975
sg34
g27
sg35
F153.11846693600012
sbsg36
g5280
sg37
Nsg38
g10
sg39
VAGL
p5291
sg41
I2012
sg42
g27
sbsVAUS0000331
p5292
g2
(g3
g4
Ntp5293
Rp5294
(dp5295
g8
Nsg9
g10
sg11
g12
((lp5296
tp5297
Rp5298
sg16
F1.1
sg17
VGosnells
p5299
sg19
g247
sg21
g22
sg23
g24
sg25
Nsg26
g27
sg28
g2
(g29
g4
Ntp5300
Rp5301
(dp5302
g33
F-32.022750963999954
sg34
g27
sg35
F116.01287154800002
sbsg36
g5292
sg37
Nsg38
g10
sg39
VAGL Energy Pty Ltd
p5303
sg41
I2012
sg42
g27
sbsVAUS0000239
p5304
g2
(g3
g4
Ntp5305
Rp5306
(dp5307
g8
Nsg9
g10
sg11
g12
((lp5308
tp5309
Rp5310
sg16
F224.0
sg17
VQuarantine
p5311
sg19
g20
sg21
g22
sg23
g24
sg25
Nsg26
g27
sg28
g2
(g29
g4
Ntp5312
Rp5313
(dp5314
g33
F-34.77928399999996
sg34
g27
sg35
F138.52235200000007
sbsg36
g5304
sg37
Nsg38
g10
sg39
VOrigin Energy
p5315
sg41
I2012
sg42
g27
sbsVAUS0000337
p5316
g2
(g3
g4
Ntp5317
Rp5318
(dp5319
g8
Nsg9
g10
sg11
g12
((lp5320
tp5321
Rp5322
sg16
F0.25
sg17
VSouth East Water Hallam Plant
p5323
sg19
g63
sg21
g22
sg23
g24
sg25
Nsg26
g27
sg28
g2
(g29
g4
Ntp5324
Rp5325
(dp5326
g33
F-38.02317811299997
sg34
g27
sg35
F145.2781215440001
sbsg36
g5316
sg37
Nsg38
g10
sg39
VSouth East Water
p5327
sg41
I2012
sg42
g27
sbsVAUS0000336
p5328
g2
(g3
g4
Ntp5329
Rp5330
(dp5331
g8
Nsg9
g10
sg11
g12
((lp5332
tp5333
Rp5334
sg16
F1.0
sg17
VCorio
p5335
sg19
g247
sg21
g22
sg23
g24
sg25
Nsg26
g27
sg28
g2
(g29
g4
Ntp5336
Rp5337
(dp5338
g33
F-38.05865887699997
sg34
g27
sg35
F144.405575687
sbsg36
g5328
sg37
Nsg38
g10
sg39
VEDL LFG Vic Pty Ltd
p5339
sg41
I2012
sg42
g27
sbsVAUS0000335
p5340
g2
(g3
g4
Ntp5341
Rp5342
(dp5343
g8
Nsg9
g10
sg11
g12
((lp5344
tp5345
Rp5346
sg16
F4.5
sg17
VEildon Small Hydro
p5347
sg19
g63
sg21
g22
sg23
g24
sg25
Nsg26
g27
sg28
g2
(g29
g4
Ntp5348
Rp5349
(dp5350
g33
F-37.24307176099995
sg34
g27
sg35
F145.89740990000007
sbsg36
g5340
sg37
Nsg38
g10
sg39
VPacific Hydro Investments Pty Ltd
p5351
sg41
I2012
sg42
g27
sbsVAUS0000334
p5352
g2
(g3
g4
Ntp5353
Rp5354
(dp5355
g8
Nsg9
g10
sg11
g12
((lp5356
tp5357
Rp5358
sg16
F0.4
sg17
VCarlton
p5359
sg19
g20
sg21
g22
sg23
g24
sg25
Nsg26
g27
sg28
g2
(g29
g4
Ntp5360
Rp5361
(dp5362
g33
F-37.806118228999935
sg34
g27
sg35
F144.96065012300005
sbsg36
g5352
sg37
Nsg38
g10
sg39
VCogent Energy
p5363
sg41
I2012
sg42
g27
sbsVAUS0000232
p5364
g2
(g3
g4
Ntp5365
Rp5366
(dp5367
g8
Nsg9
g10
sg11
g12
((lp5368
tp5369
Rp5370
sg16
F50.0
sg17
VAngaston
p5371
sg19
g210
sg21
g22
sg23
g24
sg25
Nsg26
g27
sg28
g2
(g29
g4
Ntp5372
Rp5373
(dp5374
g33
F-34.50347999999997
sg34
g27
sg35
F139.024537
sbsg36
g5364
sg37
Nsg38
g10
sg39
VInfratil Energy Australia Pty Ltd
p5375
sg41
I2012
sg42
g27
sbsVAUS0000233
p5376
g2
(g3
g4
Ntp5377
Rp5378
(dp5379
g8
Nsg9
g10
sg11
g12
((lp5380
tp5381
Rp5382
sg16
F156.0
sg17
VDry Creek
p5383
sg19
g20
sg21
g22
sg23
g24
sg25
Nsg26
g27
sg28
g2
(g29
g4
Ntp5384
Rp5385
(dp5386
g33
F-34.84746299999995
sg34
g27
sg35
F138.58175800000004
sbsg36
g5376
sg37
Nsg38
g10
sg39
VSynergen Power
p5387
sg41
I2012
sg42
g27
sbsVAUS0000339
p5388
g2
(g3
g4
Ntp5389
Rp5390
(dp5391
g8
Nsg9
g10
sg11
g12
((lp5392
tp5393
Rp5394
sg16
F0.9
sg17
VRoyston
p5395
sg19
g63
sg21
g22
sg23
g24
sg25
Nsg26
g27
sg28
g2
(g29
g4
Ntp5396
Rp5397
(dp5398
g33
F-37.373920675999955
sg34
g27
sg35
F145.86452681800006
sbsg36
g5388
sg37
Nsg38
g10
sg39
VAGL Energy Pty Ltd
p5399
sg41
I2012
sg42
g27
sbsVAUS0000338
p5400
g2
(g3
g4
Ntp5401
Rp5402
(dp5403
g8
Nsg9
g10
sg11
g12
((lp5404
tp5405
Rp5406
sg16
F2.7
sg17
VLower Rubicon
p5407
sg19
g63
sg21
g22
sg23
g24
sg25
Nsg26
g27
sg28
g2
(g29
g4
Ntp5408
Rp5409
(dp5410
g33
F-37.30272459099996
sg34
g27
sg35
F145.84577523000007
sbsg36
g5400
sg37
Nsg38
g10
sg39
VAGL Energy Pty Ltd
p5411
sg41
I2012
sg42
g27
sbsVAUS0000236
p5412
g2
(g3
g4
Ntp5413
Rp5414
(dp5415
g8
Nsg9
g10
sg11
g12
((lp5416
tp5417
Rp5418
sg16
F3.1
sg17
VPedler Creek
p5419
sg19
g247
sg21
g22
sg23
g24
sg25
Nsg26
g27
sg28
g2
(g29
g4
Ntp5420
Rp5421
(dp5422
g33
F-35.20232099999998
sg34
g27
sg35
F138.50209400000006
sbsg36
g5412
sg37
Nsg38
g10
sg39
VEnergy Developments LFG (SA) Pty Ltd
p5423
sg41
I2012
sg42
g27
sbsVAUS0000237
p5424
g2
(g3
g4
Ntp5425
Rp5426
(dp5427
g8
Nsg9
g10
sg11
g12
((lp5428
tp5429
Rp5430
sg16
F478.0
sg17
VPelican Point
p5431
sg19
g20
sg21
g22
sg23
g24
sg25
Nsg26
g27
sg28
g2
(g29
g4
Ntp5432
Rp5433
(dp5434
g33
F-34.76497199999994
sg34
g27
sg35
F138.50532500000008
sbsg36
g5424
sg37
Nsg38
g10
sg39
VInternational Power - GDF Suez Australia
p5435
sg41
I2012
sg42
g27
sbsVAUS0000234
p5436
g2
(g3
g4
Ntp5437
Rp5438
(dp5439
g8
Nsg9
g10
sg11
g12
((lp5440
tp5441
Rp5442
sg16
F20.7
sg17
VLonsdale
p5443
sg19
g210
sg21
g22
sg23
g24
sg25
Nsg26
g27
sg28
g2
(g29
g4
Ntp5444
Rp5445
(dp5446
g33
F-35.10966855399994
sg34
g27
sg35
F138.49100682100004
sbsg36
g5436
sg37
Nsg38
g10
sg39
VInfratil Energy Australia Pty Ltd
p5447
sg41
I2012
sg42
g27
sbsVAUS0000235
p5448
g2
(g3
g4
Ntp5449
Rp5450
(dp5451
g8
Nsg9
g10
sg11
g12
((lp5452
tp5453
Rp5454
sg16
F180.0
sg17
VOsborne
p5455
sg19
g20
sg21
g22
sg23
g24
sg25
Nsg26
g27
sg28
g2
(g29
g4
Ntp5456
Rp5457
(dp5458
g33
F-34.79802099999995
sg34
g27
sg35
F138.5078840000001
sbsg36
g5448
sg37
Nsg38
g10
sg39
VOrigin Energy
p5459
sg41
I2012
sg42
g27
sbsVAUS0000433
p5460
g2
(g3
g4
Ntp5461
Rp5462
(dp5463
g8
Nsg9
g10
sg11
g12
((lp5464
tp5465
Rp5466
sg16
F0.11
sg17
VAdelaide Airport
p5467
sg19
g968
sg21
g22
sg23
g24
sg25
Nsg26
g27
sg28
g2
(g29
g4
Ntp5468
Rp5469
(dp5470
g33
F-34.93867455299994
sg34
g27
sg35
F138.5376555360001
sbsg36
g5460
sg37
Nsg38
g10
sg39
VAdelaide Airport Ltd
p5471
sg41
I2012
sg42
g27
sbsVAUS0000351
p5472
g2
(g3
g4
Ntp5473
Rp5474
(dp5475
g8
Nsg9
g10
sg11
g12
((lp5476
tp5477
Rp5478
sg16
F2.24
sg17
VCoral Bay Diesel Backup
p5479
sg19
g210
sg21
g22
sg23
g24
sg25
Nsg26
g27
sg28
g2
(g29
g4
Ntp5480
Rp5481
(dp5482
g33
F-23.152144317999955
sg34
g27
sg35
F113.776179006
sbsg36
g5472
sg37
Nsg38
g10
sg39
VVerve Energy
p5483
sg41
I2012
sg42
g27
sbsVAUS0000350
p5484
g2
(g3
g4
Ntp5485
Rp5486
(dp5487
g8
Nsg9
g10
sg11
g12
((lp5488
tp5489
Rp5490
sg16
F0.83
sg17
VCoral Bay Wind Turbines
p5491
sg19
g185
sg21
g22
sg23
g24
sg25
Nsg26
g27
sg28
g2
(g29
g4
Ntp5492
Rp5493
(dp5494
g33
F-23.154419166999958
sg34
g27
sg35
F113.77206677900006
sbsg36
g5484
sg37
Nsg38
g10
sg39
VVerve Energy
p5495
sg41
I2012
sg42
g27
sbsVAUS0000383
p5496
g2
(g3
g4
Ntp5497
Rp5498
(dp5499
g8
Nsg9
g10
sg11
g12
((lp5500
tp5501
Rp5502
sg16
F0.4
sg17
VGascoyne Junction
p5503
sg19
g210
sg21
g22
sg23
g24
sg25
Nsg26
g27
sg28
g2
(g29
g4
Ntp5504
Rp5505
(dp5506
g33
F-25.05569375799996
sg34
g27
sg35
F115.20828921500004
sbsg36
g5496
sg37
Nsg38
g10
sg39
VEnergy Developments
p5507
sg41
I2012
sg42
g27
sbsVAUS0000197
p5508
g2
(g3
g4
Ntp5509
Rp5510
(dp5511
g8
Nsg9
g10
sg11
g12
((lp5512
tp5513
Rp5514
sg16
F120.0
sg17
VKwinana Swift
p5515
sg19
g20
sg21
g22
sg23
g24
sg25
Nsg26
g27
sg28
g2
(g29
g4
Ntp5516
Rp5517
(dp5518
g33
F-32.22425832899995
sg34
g27
sg35
F115.7782769050001
sbsg36
g5508
sg37
Nsg38
g10
sg39
VWestern Energy Pty Ltd
p5519
sg41
I2012
sg42
g27
sbsVAUS0000196
p5520
g2
(g3
g4
Ntp5521
Rp5522
(dp5523
g8
Nsg9
g10
sg11
g12
((lp5524
tp5525
Rp5526
sg16
F320.0
sg17
VKwinana (NewGen)
p5527
sg19
g20
sg21
g22
sg23
g24
sg25
Nsg26
g27
sg28
g2
(g29
g4
Ntp5528
Rp5529
(dp5530
g33
F-32.201979999999935
sg34
g27
sg35
F115.77282100000002
sbsg36
g5520
sg37
Nsg38
g10
sg39
VNewgen Power Kwinana Partnership
p5531
sg41
I2012
sg42
g27
sbsVAUS0000195
p5532
g2
(g3
g4
Ntp5533
Rp5534
(dp5535
g8
Nsg9
g10
sg11
g12
((lp5536
tp5537
Rp5538
sg16
F200.0
sg17
VKwinana High Efficiency Gas Turbine Plant
p5539
sg19
g20
sg21
g22
sg23
g24
sg25
Nsg26
g27
sg28
g2
(g29
g4
Ntp5540
Rp5541
(dp5542
g33
F-32.197295434999944
sg34
g27
sg35
F115.77538637200007
sbsg36
g5532
sg37
Nsg38
g10
sg39
VVerve Energy
p5543
sg41
I2012
sg42
g27
sbsVAUS0000194
p5544
g2
(g3
g4
Ntp5545
Rp5546
(dp5547
g8
Nsg9
g10
sg11
g12
((lp5548
tp5549
Rp5550
sg16
F21.0
sg17
VKwinan
p5551
sg19
g20
sg21
g22
sg23
g24
sg25
Nsg26
g27
sg28
g2
(g29
g4
Ntp5552
Rp5553
(dp5554
g33
F-32.19700263699997
sg34
g27
sg35
F115.7759455040001
sbsg36
g5544
sg37
Nsg38
g10
sg39
VVerve Energy
p5555
sg41
I2012
sg42
g27
sbsVAUS0000193
p5556
g2
(g3
g4
Ntp5557
Rp5558
(dp5559
g8
Nsg9
g10
sg11
g12
((lp5560
tp5561
Rp5562
sg16
F123.0
sg17
VKwinana Cogeneration
p5563
sg19
g20
sg21
g22
sg23
g24
sg25
Nsg26
g27
sg28
g2
(g29
g4
Ntp5564
Rp5565
(dp5566
g33
F-32.222531999999944
sg34
g27
sg35
F115.76612100000011
sbsg36
g5556
sg37
Nsg38
g10
sg39
VInternational Power Plc & Mitsui & Co Ltd & Transfield
p5567
sg41
I2012
sg42
g27
sbsVAUS0000192
p5568
g2
(g3
g4
Ntp5569
Rp5570
(dp5571
g8
Nsg9
g10
sg11
g12
((lp5572
tp5573
Rp5574
sg16
F400.0
sg17
VKwinana C
p5575
sg19
g76
sg21
g22
sg23
g24
sg25
Nsg26
g27
sg28
g2
(g29
g4
Ntp5576
Rp5577
(dp5578
g33
F-32.19922939299994
sg34
g27
sg35
F115.77470218600001
sbsg36
g5568
sg37
Nsg38
g10
sg39
VVerve Energy
p5579
sg41
I2012
sg42
g27
sbsVAUS0000191
p5580
g2
(g3
g4
Ntp5581
Rp5582
(dp5583
g8
Nsg9
g10
sg11
g12
((lp5584
tp5585
Rp5586
sg16
F240.0
sg17
VKwinana A
p5587
sg19
g76
sg21
g22
sg23
g24
sg25
Nsg26
g27
sg28
g2
(g29
g4
Ntp5588
Rp5589
(dp5590
g33
F-32.19795289599995
sg34
g27
sg35
F115.7751616490001
sbsg36
g5580
sg37
Nsg38
g10
sg39
VVerve Energy
p5591
sg41
I2012
sg42
g27
sbsVAUS0000190
p5592
g2
(g3
g4
Ntp5593
Rp5594
(dp5595
g8
Nsg9
g10
sg11
g12
((lp5596
tp5597
Rp5598
sg16
F66.0
sg17
VKwinana (Alcoa Refinery)
p5599
sg19
g20
sg21
g22
sg23
g24
sg25
Nsg26
g27
sg28
g2
(g29
g4
Ntp5600
Rp5601
(dp5602
g33
F-32.19463499999995
sg34
g27
sg35
F115.77967600000011
sbsg36
g5592
sg37
Nsg38
g10
sg39
VAlcoa of Australia Ltd
p5603
sg41
I2012
sg42
g27
sbsVAUS0000056
p5604
g2
(g3
g4
Ntp5605
Rp5606
(dp5607
g8
Nsg9
g10
sg11
g12
((lp5608
tp5609
Rp5610
sg16
F50.0
sg17
VInvicta Sugar Mill
p5611
sg19
g307
sg21
g22
sg23
g24
sg25
Nsg26
g27
sg28
g2
(g29
g4
Ntp5612
Rp5613
(dp5614
g33
F-19.516696999999965
sg34
g27
sg35
F147.10652600000003
sbsg36
g5604
sg37
Nsg38
g10
sg39
VCSR
p5615
sg41
I2012
sg42
g27
sbsVAUS0000057
p5616
g2
(g3
g4
Ntp5617
Rp5618
(dp5619
g8
Nsg9
g10
sg11
g12
((lp5620
tp5621
Rp5622
sg16
F4.5
sg17
VWivenhoe
p5623
sg19
g63
sg21
g22
sg23
g24
sg25
Nsg26
g27
sg28
g2
(g29
g4
Ntp5624
Rp5625
(dp5626
g33
F-27.395211999999958
sg34
g27
sg35
F152.6091530000001
sbsg36
g5616
sg37
Nsg38
g10
sg39
VStanwell Corporation Ltd
p5627
sg41
I2012
sg42
g27
sbsVAUS0000054
p5628
g2
(g3
g4
Ntp5629
Rp5630
(dp5631
g8
Nsg9
g10
sg11
g12
((lp5632
tp5633
Rp5634
sg16
F45.6
sg17
VMoranbah North
p5635
sg19
g20
sg21
g22
sg23
g24
sg25
Nsg26
g27
sg28
g2
(g29
g4
Ntp5636
Rp5637
(dp5638
g33
F-21.896655255999974
sg34
g27
sg35
F147.95065540500002
sbsg36
g5628
sg37
Nsg38
g10
sg39
VEnergy Development Projects (Australia) Pty Ltd
p5639
sg41
I2012
sg42
g27
sbsVAUS0000055
p5640
g2
(g3
g4
Ntp5641
Rp5642
(dp5643
g8
Nsg9
g10
sg11
g12
((lp5644
tp5645
Rp5646
sg16
F7.3
sg17
VKoombooloomba
p5647
sg19
g63
sg21
g22
sg23
g24
sg25
Nsg26
g27
sg28
g2
(g29
g4
Ntp5648
Rp5649
(dp5650
g33
F-17.831283999999982
sg34
g27
sg35
F145.60336200000006
sbsg36
g5640
sg37
Nsg38
g10
sg39
VStanwell Corporation Ltd
p5651
sg41
I2012
sg42
g27
sbsVAUS0000052
p5652
g2
(g3
g4
Ntp5653
Rp5654
(dp5655
g8
Nsg9
g10
sg11
g12
((lp5656
tp5657
Rp5658
sg16
F34.5
sg17
VStarfish Hill Wind Farm
p5659
sg19
g185
sg21
g22
sg23
g24
sg25
Nsg26
g27
sg28
g2
(g29
g4
Ntp5660
Rp5661
(dp5662
g33
F-35.56776499999995
sg34
g27
sg35
F138.1432380000001
sbsg36
g5652
sg37
Nsg38
g10
sg39
VRATCH-Australia
p5663
sg41
I2012
sg42
g27
sbsVAUS0000053
p5664
g2
(g3
g4
Ntp5665
Rp5666
(dp5667
g8
Nsg9
g10
sg11
g12
((lp5668
tp5669
Rp5670
sg16
F67.8
sg17
VPioneer Sugar Mill
p5671
sg19
g307
sg21
g22
sg23
g24
sg25
Nsg26
g27
sg28
g2
(g29
g4
Ntp5672
Rp5673
(dp5674
g33
F-19.55746499999998
sg34
g27
sg35
F147.33080100000006
sbsg36
g5664
sg37
Nsg38
g10
sg39
VCSR
p5675
sg41
I2012
sg42
g27
sbsVAUS0000199
p5676
g2
(g3
g4
Ntp5677
Rp5678
(dp5679
g8
Nsg9
g10
sg11
g12
((lp5680
tp5681
Rp5682
sg16
F140.0
sg17
VNewman Iron Ore Mine
p5683
sg19
g20
sg21
g22
sg23
g24
sg25
Nsg26
g27
sg28
g2
(g29
g4
Ntp5684
Rp5685
(dp5686
g33
F-23.344274999999982
sg34
g27
sg35
F119.70858700000008
sbsg36
g5676
sg37
Nsg38
g10
sg39
VAlinta Energy
p5687
sg41
I2012
sg42
g27
sbsVAUS0000198
p5688
g2
(g3
g4
Ntp5689
Rp5690
(dp5691
g8
Nsg9
g10
sg11
g12
((lp5692
tp5693
Rp5694
sg16
F330.0
sg17
VNeerabup
p5695
sg19
g20
sg21
g22
sg23
g24
sg25
Nsg26
g27
sg28
g2
(g29
g4
Ntp5696
Rp5697
(dp5698
g33
F-31.67124999999993
sg34
g27
sg35
F115.8021490000001
sbsg36
g5688
sg37
Nsg38
g10
sg39
VNewgen Neerabup Partnership
p5699
sg41
I2012
sg42
g27
sbsVAUS0000359
p5700
g2
(g3
g4
Ntp5701
Rp5702
(dp5703
g8
Nsg9
g10
sg11
g12
((lp5704
tp5705
Rp5706
sg16
F3.3
sg17
VSouth Cardup (Shale Road Landfill)
p5707
sg19
g247
sg21
g22
sg23
g24
sg25
Nsg26
g27
sg28
g2
(g29
g4
Ntp5708
Rp5709
(dp5710
g33
F-32.266436158999966
sg34
g27
sg35
F116.01931443900003
sbsg36
g5700
sg37
Nsg38
g10
sg39
VWestern Australian Landfill Services
p5711
sg41
I2012
sg42
g27
sbsVAUS0000385
p5712
g2
(g3
g4
Ntp5713
Rp5714
(dp5715
g8
Nsg9
g10
sg11
g12
((lp5716
tp5717
Rp5718
sg16
F0.4
sg17
VYalgoo
p5719
sg19
g210
sg21
g22
sg23
g24
sg25
Nsg26
g27
sg28
g2
(g29
g4
Ntp5720
Rp5721
(dp5722
g33
F-28.337536633999946
sg34
g27
sg35
F116.68349161800006
sbsg36
g5712
sg37
Nsg38
g10
sg39
VEnergy Developments
p5723
sg41
I2012
sg42
g27
sbsVAUS0000358
p5724
g2
(g3
g4
Ntp5725
Rp5726
(dp5727
g8
Nsg9
g10
sg11
g12
((lp5728
tp5729
Rp5730
sg16
F2.1
sg17
VRockingham
p5731
sg19
g247
sg21
g22
sg23
g24
sg25
Nsg26
g27
sg28
g2
(g29
g4
Ntp5732
Rp5733
(dp5734
g33
F-32.28632251299996
sg34
g27
sg35
F115.81538889600006
sbsg36
g5724
sg37
Nsg38
g10
sg39
VAGL Energy Pty Ltd
p5735
sg41
I2012
sg42
g27
sbs.