(dp0
VAUS0000289
p1
ccopy_reg
_reconstructor
p2
(cpowerplant_database
PowerPlant
p3
c__builtin__
object
p4
Ntp5
Rp6
(dp7
S'commissioning_year'
p8
NsS'coord_source'
p9
VAustralian Renewable Energy Mapping Infrastructure
p10
sS'other_fuel'
p11
c__builtin__
set
p12
((lp13
tp14
Rp15
sS'capacity'
p16
F4.0
sS'name'
p17
VTeralba
p18
sS'primary_fuel'
p19
VGas
p20
sS'url'
p21
Vhttp://services.ga.gov.au/site_3/rest/services/Electricity_Infrastructure/MapServer
p22
sS'country'
p23
VAustralia
p24
sS'generation'
p25
NsS'nat_lang'
p26
V
p27
sS'idnr'
p28
g1
sS'estimated_generation_gwh'
p29
NsS'source'
p30
g10
sS'owner'
p31
VEnviroGen Pty Ltd
p32
sS'cap_year'
p33
I2012
sS'location'
p34
g2
(cpowerplant_database
LocationObject
p35
g4
Ntp36
Rp37
(dp38
S'latitude'
p39
F-32.94548999999995
sS'description'
p40
g27
sS'longitude'
p41
F151.6119070000001
sbsbsVAUS0000288
p42
g2
(g3
g4
Ntp43
Rp44
(dp45
g8
Nsg9
g10
sg11
g12
((lp46
tp47
Rp48
sg16
F420.0
sg17
VTallawarra
p49
sg19
g20
sg21
g22
sg23
g24
sg25
Nsg26
g27
sg28
g42
sg29
Nsg30
g10
sg31
VTRUenergy
p50
sg33
I2012
sg34
g2
(g35
g4
Ntp51
Rp52
(dp53
g39
F-34.52277799999996
sg40
g27
sg41
F150.80805600000008
sbsbsVAUS0000283
p54
g2
(g3
g4
Ntp55
Rp56
(dp57
g8
Nsg9
g10
sg11
g12
((lp58
tp59
Rp60
sg16
F33.6
sg17
VNymboida
p61
sg19
VHydro
p62
sg21
g22
sg23
g24
sg25
Nsg26
g27
sg28
g54
sg29
Nsg30
g10
sg31
VEssential Energy
p63
sg33
I2012
sg34
g2
(g35
g4
Ntp64
Rp65
(dp66
g39
F-29.925737999999967
sg40
g27
sg41
F152.74170800000002
sbsbsVAUS0000282
p67
g2
(g3
g4
Ntp68
Rp69
(dp70
g8
Nsg9
g10
sg11
g12
((lp71
tp72
Rp73
sg16
F600.0
sg17
VMunmorah
p74
sg19
VCoal
p75
sg21
g22
sg23
g24
sg25
Nsg26
g27
sg28
g67
sg29
Nsg30
g10
sg31
VDelta Electricity
p76
sg33
I2012
sg34
g2
(g35
g4
Ntp77
Rp78
(dp79
g39
F-33.21169099999997
sg40
g27
sg41
F151.5418370000001
sbsbsVAUS0000281
p80
g2
(g3
g4
Ntp81
Rp82
(dp83
g8
Nsg9
g10
sg11
g12
((lp84
tp85
Rp86
sg16
F1400.0
sg17
VMt Piper
p87
sg19
g75
sg21
g22
sg23
g24
sg25
Nsg26
g27
sg28
g80
sg29
Nsg30
g10
sg31
VDelta
p88
sg33
I2012
sg34
g2
(g35
g4
Ntp89
Rp90
(dp91
g39
F-33.35889199999997
sg40
g27
sg41
F150.03132200000005
sbsbsVAUS0000280
p92
g2
(g3
g4
Ntp93
Rp94
(dp95
g8
Nsg9
g10
sg11
g12
((lp96
tp97
Rp98
sg16
F2000.0
sg17
VLiddell
p99
sg19
g75
sg21
g22
sg23
g24
sg25
Nsg26
g27
sg28
g92
sg29
Nsg30
g10
sg31
VMacquarie Generation
p100
sg33
I2012
sg34
g2
(g35
g4
Ntp101
Rp102
(dp103
g39
F-32.37126699999993
sg40
g27
sg41
F150.97757000000001
sbsbsVAUS0000287
p104
g2
(g3
g4
Ntp105
Rp106
(dp107
g8
Nsg9
g10
sg11
g12
((lp108
tp109
Rp110
sg16
F7.0
sg17
VTahmoor
p111
sg19
g20
sg21
g22
sg23
g24
sg25
Nsg26
g27
sg28
g104
sg29
Nsg30
g10
sg31
VEnviroGen Pty Ltd
p112
sg33
I2012
sg34
g2
(g35
g4
Ntp113
Rp114
(dp115
g39
F-34.24823299999997
sg40
g27
sg41
F150.58077000000003
sbsbsVAUS0000286
p116
g2
(g3
g4
Ntp117
Rp118
(dp119
g8
Nsg9
g10
sg11
g12
((lp120
tp121
Rp122
sg16
F170.9
sg17
VSmithfield Energy
p123
sg19
g20
sg21
g22
sg23
g24
sg25
Nsg26
g27
sg28
g116
sg29
Nsg30
g10
sg31
VMarubeni Australia Power Services
p124
sg33
I2012
sg34
g2
(g35
g4
Ntp125
Rp126
(dp127
g39
F-33.85003999999998
sg40
g27
sg41
F150.94946600000003
sbsbsVAUS0000285
p128
g2
(g3
g4
Ntp129
Rp130
(dp131
g8
Nsg9
g10
sg11
g12
((lp132
tp133
Rp134
sg16
F143.8
sg17
VRedbank
p135
sg19
g75
sg21
g22
sg23
g24
sg25
Nsg26
g27
sg28
g128
sg29
Nsg30
g10
sg31
VRedbank Energy Ltd
p136
sg33
I2012
sg34
g2
(g35
g4
Ntp137
Rp138
(dp139
g39
F-32.580205999999976
sg40
g27
sg41
F151.07193600000005
sbsbsVAUS0000284
p140
g2
(g3
g4
Ntp141
Rp142
(dp143
g8
Nsg9
g10
sg11
g12
((lp144
tp145
Rp146
sg16
F4.8
sg17
VOaky
p147
sg19
g62
sg21
g22
sg23
g24
sg25
Nsg26
g27
sg28
g140
sg29
Nsg30
g10
sg31
VEssential Energy
p148
sg33
I2012
sg34
g2
(g35
g4
Ntp149
Rp150
(dp151
g39
F-30.575118999999972
sg40
g27
sg41
F152.06897000000004
sbsbsVAUS0000148
p152
g2
(g3
g4
Ntp153
Rp154
(dp155
g8
Nsg9
g10
sg11
g12
((lp156
tp157
Rp158
sg16
F480.0
sg17
VSwanbank B
p159
sg19
g75
sg21
g22
sg23
g24
sg25
Nsg26
g27
sg28
g152
sg29
Nsg30
g10
sg31
VCS Energy
p160
sg33
I2012
sg34
g2
(g35
g4
Ntp161
Rp162
(dp163
g39
F-27.660064999999975
sg40
g27
sg41
F152.81445200000007
sbsbsVAUS0000260
p164
g2
(g3
g4
Ntp165
Rp166
(dp167
g8
Nsg9
g10
sg11
g12
((lp168
tp169
Rp170
sg16
F86.0
sg17
VWeddell
p171
sg19
g20
sg21
g22
sg23
g24
sg25
Nsg26
g27
sg28
g164
sg29
Nsg30
g10
sg31
VNT Power and Water
p172
sg33
I2012
sg34
g2
(g35
g4
Ntp173
Rp174
(dp175
g39
F-12.577195999999958
sg40
g27
sg41
F130.95022600000004
sbsbsVAUS0000405
p176
g2
(g3
g4
Ntp177
Rp178
(dp179
g8
Nsg9
g10
sg11
g12
((lp180
tp181
Rp182
sg16
F1.7
sg17
VKalbarri Wind Farm
p183
sg19
VWind
p184
sg21
g22
sg23
g24
sg25
Nsg26
g27
sg28
g176
sg29
Nsg30
g10
sg31
VVerve Energy
p185
sg33
I2012
sg34
g2
(g35
g4
Ntp186
Rp187
(dp188
g39
F-27.899498532999928
sg40
g27
sg41
F114.19455166500006
sbsbsVAUS0000404
p189
g2
(g3
g4
Ntp190
Rp191
(dp192
g8
Nsg9
g10
sg11
g12
((lp193
tp194
Rp195
sg16
F0.6
sg17
VKooragang
p196
sg19
g184
sg21
g22
sg23
g24
sg25
Nsg26
g27
sg28
g189
sg29
Nsg30
g10
sg31
VAusgrid
p197
sg33
I2012
sg34
g2
(g35
g4
Ntp198
Rp199
(dp200
g39
F-32.87728143199996
sg40
g27
sg41
F151.74776777500006
sbsbsVAUS0000407
p201
g2
(g3
g4
Ntp202
Rp203
(dp204
g8
Nsg9
g10
sg11
g12
((lp205
tp206
Rp207
sg16
F10.8
sg17
VSavannah Nickel Mine
p208
sg19
VOil
p209
sg21
g22
sg23
g24
sg25
Nsg26
g27
sg28
g201
sg29
Nsg30
g10
sg31
VContract Power
p210
sg33
I2012
sg34
g2
(g35
g4
Ntp211
Rp212
(dp213
g39
F-17.363095358999942
sg40
g27
sg41
F128.03307638
sbsbsVAUS0000406
p214
g2
(g3
g4
Ntp215
Rp216
(dp217
g8
Nsg9
g10
sg11
g12
((lp218
tp219
Rp220
sg16
F13.7
sg17
VWodgina
p221
sg19
g20
sg21
g22
sg23
g24
sg25
Nsg26
g27
sg28
g214
sg29
Nsg30
g10
sg31
VEnergy Developments Ltd
p222
sg33
I2012
sg34
g2
(g35
g4
Ntp223
Rp224
(dp225
g39
F-21.173883386999933
sg40
g27
sg41
F118.67472103500006
sbsbsVAUS0000401
p226
g2
(g3
g4
Ntp227
Rp228
(dp229
g8
Nsg9
g10
sg11
g12
((lp230
tp231
Rp232
sg16
F2.8
sg17
VCharlestown Square
p233
sg19
g20
sg21
g22
sg23
g24
sg25
Nsg26
g27
sg28
g226
sg29
Nsg30
g10
sg31
VGPT RE Limited
p234
sg33
I2012
sg34
g2
(g35
g4
Ntp235
Rp236
(dp237
g39
F-32.96425537599998
sg40
g27
sg41
F151.69361251600003
sbsbsVAUS0000400
p238
g2
(g3
g4
Ntp239
Rp240
(dp241
g8
Nsg9
g10
sg11
g12
((lp242
tp243
Rp244
sg16
F1.0
sg17
VBelconnen
p245
sg19
VWaste
p246
sg21
g22
sg23
g24
sg25
Nsg26
g27
sg28
g238
sg29
Nsg30
g10
sg31
VEDL LFG ACT Pty Ltd
p247
sg33
I2012
sg34
g2
(g35
g4
Ntp248
Rp249
(dp250
g39
F-35.21418943599997
sg40
g27
sg41
F148.9872183870001
sbsbsVAUS0000379
p251
g2
(g3
g4
Ntp252
Rp253
(dp254
g8
Nsg9
g10
sg11
g12
((lp255
tp256
Rp257
sg16
F0.8
sg17
VArdyaloon
p258
sg19
g209
sg21
g22
sg23
g24
sg25
Nsg26
g27
sg28
g251
sg29
Nsg30
g10
sg31
VEnergy Developments Ltd
p259
sg33
I2012
sg34
g2
(g35
g4
Ntp260
Rp261
(dp262
g39
F-16.44441722099998
sg40
g27
sg41
F123.04137384300009
sbsbsVAUS0000378
p263
g2
(g3
g4
Ntp264
Rp265
(dp266
g8
Nsg9
g10
sg11
g12
((lp267
tp268
Rp269
sg16
F0.7
sg17
VKalumburu
p270
sg19
g209
sg21
g22
sg23
g24
sg25
Nsg26
g27
sg28
g263
sg29
Nsg30
g10
sg31
g27
sg33
I2012
sg34
g2
(g35
g4
Ntp271
Rp272
(dp273
g39
F-14.293855534999977
sg40
g27
sg41
F126.64395522900008
sbsbsVAUS0000377
p274
g2
(g3
g4
Ntp275
Rp276
(dp277
g8
Nsg9
g10
sg11
g12
((lp278
tp279
Rp280
sg16
F0.5
sg17
VTatiara Meats
p281
sg19
g209
sg21
g22
sg23
g24
sg25
Nsg26
g27
sg28
g274
sg29
Nsg30
g10
sg31
VVibe Energy Pty Ltd
p282
sg33
I2012
sg34
g2
(g35
g4
Ntp283
Rp284
(dp285
g39
F-36.32655638699998
sg40
g27
sg41
F140.73676935800006
sbsbsVAUS0000140
p286
g2
(g3
g4
Ntp287
Rp288
(dp289
g8
Nsg9
g10
sg11
g12
((lp290
tp291
Rp292
sg16
F32.0
sg17
VWilmot
p293
sg19
g62
sg21
g22
sg23
g24
sg25
Nsg26
g27
sg28
g286
sg29
Nsg30
g10
sg31
VHydro-Electric Corporation (Tasmania)
p294
sg33
I2012
sg34
g2
(g35
g4
Ntp295
Rp296
(dp297
g39
F-41.483311999999955
sg40
g27
sg41
F146.12507300000004
sbsbsVAUS0000375
p298
g2
(g3
g4
Ntp299
Rp300
(dp301
g8
Nsg9
g10
sg11
g12
((lp302
tp303
Rp304
sg16
F13.0
sg17
VMulgrave
p305
sg19
VBiomass
p306
sg21
g22
sg23
g24
sg25
Nsg26
g27
sg28
g298
sg29
Nsg30
g10
sg31
VMSF Sugar
p307
sg33
I2012
sg34
g2
(g35
g4
Ntp308
Rp309
(dp310
g39
F-17.09316550099993
sg40
g27
sg41
F145.78871140400008
sbsbsVAUS0000374
p311
g2
(g3
g4
Ntp312
Rp313
(dp314
g8
Nsg9
g10
sg11
g12
((lp315
tp316
Rp317
sg16
F20.0
sg17
VSouth Johnstone
p318
sg19
g306
sg21
g22
sg23
g24
sg25
Nsg26
g27
sg28
g311
sg29
Nsg30
g10
sg31
VMSF Sugar
p319
sg33
I2012
sg34
g2
(g35
g4
Ntp320
Rp321
(dp322
g39
F-17.605685131999962
sg40
g27
sg41
F145.99100041600002
sbsbsVAUS0000373
p323
g2
(g3
g4
Ntp324
Rp325
(dp326
g8
Nsg9
g10
sg11
g12
((lp327
tp328
Rp329
sg16
F7.0
sg17
VTableland
p330
sg19
g306
sg21
g22
sg23
g24
sg25
Nsg26
g27
sg28
g323
sg29
Nsg30
g10
sg31
VMSF Sugar
p331
sg33
I2012
sg34
g2
(g35
g4
Ntp332
Rp333
(dp334
g39
F-17.119292186999928
sg40
g27
sg41
F145.34496992100003
sbsbsVAUS0000372
p335
g2
(g3
g4
Ntp336
Rp337
(dp338
g8
Nsg9
g10
sg11
g12
((lp339
tp340
Rp341
sg16
F8.0
sg17
VExmouth
p342
sg19
g20
sg21
g22
sg23
g24
sg25
Nsg26
g27
sg28
g335
sg29
Nsg30
g10
sg31
VBurns and Roe Worley
p343
sg33
I2012
sg34
g2
(g35
g4
Ntp344
Rp345
(dp346
g39
F-21.946457949999967
sg40
g27
sg41
F114.12499812400006
sbsbsVAUS0000371
p347
g2
(g3
g4
Ntp348
Rp349
(dp350
g8
Nsg9
g10
sg11
g12
((lp351
tp352
Rp353
sg16
F1.5
sg17
VLaverton
p354
sg19
g209
sg21
g22
sg23
g24
sg25
Nsg26
g27
sg28
g347
sg29
Nsg30
g10
sg31
VEnergy Developments
p355
sg33
I2012
sg34
g2
(g35
g4
Ntp356
Rp357
(dp358
g39
F-28.62162366399997
sg40
g27
sg41
F122.39646804400002
sbsbsVAUS0000268
p359
g2
(g3
g4
Ntp360
Rp361
(dp362
g8
Nsg9
g10
sg11
g12
((lp363
tp364
Rp365
sg16
F30.0
sg17
VBroadwater
p366
sg19
g306
sg21
g22
sg23
g24
sg25
Nsg26
g27
sg28
g359
sg29
Nsg30
g10
sg31
VNSW Sugar Milling
p367
sg33
I2012
sg34
g2
(g35
g4
Ntp368
Rp369
(dp370
g39
F-29.01182799999998
sg40
g27
sg41
F153.43348100000003
sbsbsVAUS0000179
p371
g2
(g3
g4
Ntp372
Rp373
(dp374
g8
Nsg9
g10
sg11
g12
((lp375
tp376
Rp377
sg16
F190.0
sg17
VCollinsville
p378
sg19
g75
sg21
g22
sg23
g24
sg25
Nsg26
g27
sg28
g371
sg29
Nsg30
g10
sg31
VRATCH Australia
p379
sg33
I2012
sg34
g2
(g35
g4
Ntp380
Rp381
(dp382
g39
F-20.544681999999966
sg40
g27
sg41
F147.80488700000012
sbsbsVAUS0000178
p383
g2
(g3
g4
Ntp384
Rp385
(dp386
g8
Nsg9
g10
sg11
g12
((lp387
tp388
Rp389
sg16
F120.0
sg17
VCallide A
p390
sg19
g75
sg21
g22
sg23
g24
sg25
Nsg26
g27
sg28
g383
sg29
Nsg30
g10
sg31
VCS Energy
p391
sg33
I2012
sg34
g2
(g35
g4
Ntp392
Rp393
(dp394
g39
F-24.33402499999994
sg40
g27
sg41
F150.6279730000001
sbsbsVAUS0000274
p395
g2
(g3
g4
Ntp396
Rp397
(dp398
g8
Nsg9
g10
sg11
g12
((lp399
tp400
Rp401
sg16
F20.0
sg17
VGadara
p402
sg19
g306
sg21
g22
sg23
g24
sg25
Nsg26
g27
sg28
g395
sg29
Nsg30
g10
sg31
VVisy Pulp & Paper
p403
sg33
I2012
sg34
g2
(g35
g4
Ntp404
Rp405
(dp406
g39
F-35.295932999999934
sg40
g27
sg41
F148.13705200000004
sbsbsVAUS0000275
p407
g2
(g3
g4
Ntp408
Rp409
(dp410
g8
Nsg9
g10
sg11
g12
((lp411
tp412
Rp413
sg16
F5.0
sg17
VGlenbawn
p414
sg19
g62
sg21
g22
sg23
g24
sg25
Nsg26
g27
sg28
g407
sg29
Nsg30
g10
sg31
VAGL Energy Pty Ltd
p415
sg33
I2012
sg34
g2
(g35
g4
Ntp416
Rp417
(dp418
g39
F-32.10966099999996
sg40
g27
sg41
F150.9981540000001
sbsbsVAUS0000272
p419
g2
(g3
g4
Ntp420
Rp421
(dp422
g8
Nsg9
g10
sg11
g12
((lp423
tp424
Rp425
sg16
F3.9
sg17
VEarthPower Biomass Plant
p426
sg19
g246
sg21
g22
sg23
g24
sg25
Nsg26
g27
sg28
g419
sg29
Nsg30
g10
sg31
VEarthpower Technologies Sydney Pty Ltd
p427
sg33
I2012
sg34
g2
(g35
g4
Ntp428
Rp429
(dp430
g39
F-33.82037299999996
sg40
g27
sg41
F151.04203700000005
sbsbsVAUS0000273
p431
g2
(g3
g4
Ntp432
Rp433
(dp434
g8
Nsg9
g10
sg11
g12
((lp435
tp436
Rp437
sg16
F42.0
sg17
VEraring
p438
sg19
g209
sg21
g22
sg23
g24
sg25
Nsg26
g27
sg28
g431
sg29
Nsg30
g10
sg31
VEraring Energy
p439
sg33
I2012
sg34
g2
(g35
g4
Ntp440
Rp441
(dp442
g39
F-33.06174875299996
sg40
g27
sg41
F151.5223300680001
sbsbsVAUS0000270
p443
g2
(g3
g4
Ntp444
Rp445
(dp446
g8
Nsg9
g10
sg11
g12
((lp447
tp448
Rp449
sg16
F300.0
sg17
VCapral (Aluminium Smelter)
p450
sg19
g20
sg21
g22
sg23
g24
sg25
Nsg26
g27
sg28
g443
sg29
Nsg30
g10
sg31
VCapral Ltd
p451
sg33
I2012
sg34
g2
(g35
g4
Ntp452
Rp453
(dp454
g39
F-32.78972299999998
sg40
g27
sg41
F151.48130500000002
sbsbsVAUS0000271
p455
g2
(g3
g4
Ntp456
Rp457
(dp458
g8
Nsg9
g10
sg11
g12
((lp459
tp460
Rp461
sg16
F724.0
sg17
VColongra
p462
sg19
g20
sg21
g22
sg23
g24
sg25
Nsg26
g27
sg28
g455
sg29
Nsg30
g10
sg31
VDelta Electricity
p463
sg33
I2012
sg34
g2
(g35
g4
Ntp464
Rp465
(dp466
g39
F-33.20986899999997
sg40
g27
sg41
F151.54478500000005
sbsbsVAUS0000171
p467
g2
(g3
g4
Ntp468
Rp469
(dp470
g8
Nsg9
g10
sg11
g12
((lp471
tp472
Rp473
sg16
F1400.0
sg17
VTarong
p474
sg19
g75
sg21
g22
sg23
g24
sg25
Nsg26
g27
sg28
g467
sg29
Nsg30
g10
sg31
VStanwell Corporation Ltd
p475
sg33
I2012
sg34
g2
(g35
g4
Ntp476
Rp477
(dp478
g39
F-26.78235799999993
sg40
g27
sg41
F151.91527300000007
sbsbsVAUS0000170
p479
g2
(g3
g4
Ntp480
Rp481
(dp482
g8
Nsg9
g10
sg11
g12
((lp483
tp484
Rp485
sg16
F450.0
sg17
VTarong North
p486
sg19
g75
sg21
g22
sg23
g24
sg25
Nsg26
g27
sg28
g479
sg29
Nsg30
g10
sg31
VTarong Energy Corporation
p487
sg33
I2012
sg34
g2
(g35
g4
Ntp488
Rp489
(dp490
g39
F-26.775762999999984
sg40
g27
sg41
F151.91460200000006
sbsbsVAUS0000173
p491
g2
(g3
g4
Ntp492
Rp493
(dp494
g8
Nsg9
g10
sg11
g12
((lp495
tp496
Rp497
sg16
F154.0
sg17
VYarwun
p498
sg19
g20
sg21
g22
sg23
g24
sg25
Nsg26
g27
sg28
g491
sg29
Nsg30
g10
sg31
VRio Tinto Australia - Yarwun Pty Ltd
p499
sg33
I2012
sg34
g2
(g35
g4
Ntp500
Rp501
(dp502
g39
F-23.830644999999947
sg40
g27
sg41
F151.1519300000001
sbsbsVAUS0000172
p503
g2
(g3
g4
Ntp504
Rp505
(dp506
g8
Nsg9
g10
sg11
g12
((lp507
tp508
Rp509
sg16
F244.0
sg17
VYabulu
p510
sg19
g20
sg21
g22
sg23
g24
sg25
Nsg26
g27
sg28
g503
sg29
Nsg30
g10
sg31
VRATCH Australia
p511
sg33
I2012
sg34
g2
(g35
g4
Ntp512
Rp513
(dp514
g39
F-19.201055999999937
sg40
g27
sg41
F146.6187070000001
sbsbsVAUS0000175
p515
g2
(g3
g4
Ntp516
Rp517
(dp518
g8
Nsg9
g10
sg11
g12
((lp519
tp520
Rp521
sg16
F24.0
sg17
VVictoria Sugar Mill
p522
sg19
g306
sg21
g22
sg23
g24
sg25
Nsg26
g27
sg28
g515
sg29
Nsg30
g10
sg31
VSucrogen Pty ltd
p523
sg33
I2012
sg34
g2
(g35
g4
Ntp524
Rp525
(dp526
g39
F-18.650803999999937
sg40
g27
sg41
F146.20162700000003
sbsbsVAUS0000174
p527
g2
(g3
g4
Ntp528
Rp529
(dp530
g8
Nsg9
g10
sg11
g12
((lp531
tp532
Rp533
sg16
F8.0
sg17
VMacknade Sugar Mill
p534
sg19
g306
sg21
g22
sg23
g24
sg25
Nsg26
g27
sg28
g527
sg29
Nsg30
g10
sg31
VSucrogen (Herbert) Pty ltd
p535
sg33
I2012
sg34
g2
(g35
g4
Ntp536
Rp537
(dp538
g39
F-18.589042999999947
sg40
g27
sg41
F146.25796100000002
sbsbsVAUS0000278
p539
g2
(g3
g4
Ntp540
Rp541
(dp542
g8
Nsg9
g10
sg11
g12
((lp543
tp544
Rp545
sg16
F50.0
sg17
VHunter Valley
p546
sg19
g20
sg21
g22
sg23
g24
sg25
Nsg26
g27
sg28
g539
sg29
Nsg30
g10
sg31
VMacquarie Generation
p547
sg33
I2012
sg34
g2
(g35
g4
Ntp548
Rp549
(dp550
g39
F-32.38925299999994
sg40
g27
sg41
F150.96639600000003
sbsbsVAUS0000279
p551
g2
(g3
g4
Ntp552
Rp553
(dp554
g8
Nsg9
g10
sg11
g12
((lp555
tp556
Rp557
sg16
F160.0
sg17
VKangaroo Valley (Shoalhaven Scheme)
p558
sg19
g62
sg21
g22
sg23
g24
sg25
Nsg26
g27
sg28
g551
sg29
Nsg30
g10
sg31
VEraring Energy
p559
sg33
I2012
sg34
g2
(g35
g4
Ntp560
Rp561
(dp562
g39
F-34.722969999999975
sg40
g27
sg41
F150.47953000000007
sbsbsVAUS0000308
p563
g2
(g3
g4
Ntp564
Rp565
(dp566
g8
Nsg9
g10
sg11
g12
((lp567
tp568
Rp569
sg16
F54.5
sg17
VMaryvale Mill
p570
sg19
g306
sg21
g22
sg23
g24
sg25
Nsg26
g27
sg28
g563
sg29
Nsg30
g10
sg31
VAustralian Paper
p571
sg33
I2012
sg34
g2
(g35
g4
Ntp572
Rp573
(dp574
g39
F-38.18089277399997
sg40
g27
sg41
F146.44794631700006
sbsbsVAUS0000309
p575
g2
(g3
g4
Ntp576
Rp577
(dp578
g8
Nsg9
g10
sg11
g12
((lp579
tp580
Rp581
sg16
F13.8
sg17
VGrasmere Wind Farm (Albany stage II)
p582
sg19
g184
sg21
g22
sg23
g24
sg25
Nsg26
g27
sg28
g575
sg29
Nsg30
g10
sg31
VVerve Energy
p583
sg33
I2012
sg34
g2
(g35
g4
Ntp584
Rp585
(dp586
g39
F-35.05065051599996
sg40
g27
sg41
F117.76376090400004
sbsbsVAUS0000302
p587
g2
(g3
g4
Ntp588
Rp589
(dp590
g8
Nsg9
g10
sg11
g12
((lp591
tp592
Rp593
sg16
F16.0
sg17
VWilga Park
p594
sg19
g20
sg21
g22
sg23
g24
sg25
Nsg26
g27
sg28
g587
sg29
Nsg30
g10
sg31
VSantos
p595
sg33
I2012
sg34
g2
(g35
g4
Ntp596
Rp597
(dp598
g39
F-30.363436999999976
sg40
g27
sg41
F149.6771530000001
sbsbsVAUS0000303
p599
g2
(g3
g4
Ntp600
Rp601
(dp602
g8
Nsg9
g10
sg11
g12
((lp603
tp604
Rp605
sg16
F60.0
sg17
VGuthega
p606
sg19
g62
sg21
g22
sg23
g24
sg25
Nsg26
g27
sg28
g599
sg29
Nsg30
g10
sg31
VSnowy Hydro Ltd
p607
sg33
I2012
sg34
g2
(g35
g4
Ntp608
Rp609
(dp610
g39
F-36.350097999999946
sg40
g27
sg41
F148.41352800000004
sbsbsVAUS0000300
p611
g2
(g3
g4
Ntp612
Rp613
(dp614
g8
Nsg9
g10
sg11
g12
((lp615
tp616
Rp617
sg16
F18.0
sg17
VBurrendong
p618
sg19
g62
sg21
g22
sg23
g24
sg25
Nsg26
g27
sg28
g611
sg29
Nsg30
g10
sg31
VAGL Energy Pty Ltd
p619
sg33
I2012
sg34
g2
(g35
g4
Ntp620
Rp621
(dp622
g39
F-32.66461599999997
sg40
g27
sg41
F149.1079860000001
sbsbsVAUS0000301
p623
g2
(g3
g4
Ntp624
Rp625
(dp626
g8
Nsg9
g10
sg11
g12
((lp627
tp628
Rp629
sg16
F20.0
sg17
VCopeton
p630
sg19
g62
sg21
g22
sg23
g24
sg25
Nsg26
g27
sg28
g623
sg29
Nsg30
g10
sg31
VAGL Energy Pty Ltd
p631
sg33
I2012
sg34
g2
(g35
g4
Ntp632
Rp633
(dp634
g39
F-29.91019799999998
sg40
g27
sg41
F150.9234620000001
sbsbsVAUS0000306
p635
g2
(g3
g4
Ntp636
Rp637
(dp638
g8
Nsg9
g10
sg11
g12
((lp639
tp640
Rp641
sg16
F2820.0
sg17
VEraring
p642
sg19
g75
sg21
g22
sg23
g24
sg25
Nsg26
g27
sg28
g635
sg29
Nsg30
g10
sg31
VOrigin Energy
p643
sg33
I2012
sg34
g2
(g35
g4
Ntp644
Rp645
(dp646
g39
F-33.062074923999944
sg40
g27
sg41
F151.52064791500004
sbsbsVAUS0000307
p647
g2
(g3
g4
Ntp648
Rp649
(dp650
g8
Nsg9
g10
sg11
g12
((lp651
tp652
Rp653
sg16
F206.0
sg17
VCollgar Wind Farm
p654
sg19
g184
sg21
g22
sg23
g24
sg25
Nsg26
g27
sg28
g647
sg29
Nsg30
g10
sg31
VUBS IIT/ REST
p655
sg33
I2012
sg34
g2
(g35
g4
Ntp656
Rp657
(dp658
g39
F-31.50015284699998
sg40
g27
sg41
F118.46325039700002
sbsbsVAUS0000304
p659
g2
(g3
g4
Ntp660
Rp661
(dp662
g8
Nsg9
g10
sg11
g12
((lp663
tp664
Rp665
sg16
F6.5
sg17
VLake Keepit
p666
sg19
g62
sg21
g22
sg23
g24
sg25
Nsg26
g27
sg28
g659
sg29
Nsg30
g10
sg31
VCountry Energy
p667
sg33
I2012
sg34
g2
(g35
g4
Ntp668
Rp669
(dp670
g39
F-30.87918899999994
sg40
g27
sg41
F150.49139900000011
sbsbsVAUS0000305
p671
g2
(g3
g4
Ntp672
Rp673
(dp674
g8
Nsg9
g10
sg11
g12
((lp675
tp676
Rp677
sg16
F50.0
sg17
VBroken Hill
p678
sg19
g20
sg21
g22
sg23
g24
sg25
Nsg26
g27
sg28
g671
sg29
Nsg30
g10
sg31
VEssential Energy
p679
sg33
I2012
sg34
g2
(g35
g4
Ntp680
Rp681
(dp682
g39
F-31.98629599999998
sg40
g27
sg41
F141.42033400000003
sbsbsVAUS0000001
p683
g2
(g3
g4
Ntp684
Rp685
(dp686
g8
Nsg9
g10
sg11
g12
((lp687
tp688
Rp689
sg16
F12.0
sg17
VWonthaggi Wind Farm
p690
sg19
g184
sg21
g22
sg23
g24
sg25
Nsg26
g27
sg28
g683
sg29
Nsg30
g10
sg31
VOrigin Energy
p691
sg33
I2012
sg34
g2
(g35
g4
Ntp692
Rp693
(dp694
g39
F-38.60373599999997
sg40
g27
sg41
F145.54616700000008
sbsbsVAUS0000003
p695
g2
(g3
g4
Ntp696
Rp697
(dp698
g8
Nsg9
g10
sg11
g12
((lp699
tp700
Rp701
sg16
F30.0
sg17
VCullerin Range Wind Farm
p702
sg19
g184
sg21
g22
sg23
g24
sg25
Nsg26
g27
sg28
g695
sg29
Nsg30
g10
sg31
VOrigin Energy
p703
sg33
I2012
sg34
g2
(g35
g4
Ntp704
Rp705
(dp706
g39
F-34.80498161999998
sg40
g27
sg41
F149.4001295820001
sbsbsVAUS0000002
p707
g2
(g3
g4
Ntp708
Rp709
(dp710
g8
Nsg9
g10
sg11
g12
((lp711
tp712
Rp713
sg16
F89.1
sg17
VWalkaway Wind Farm
p714
sg19
g184
sg21
g22
sg23
g24
sg25
Nsg26
g27
sg28
g707
sg29
Nsg30
g10
sg31
VInfigen Energy Pty Ltd
p715
sg33
I2012
sg34
g2
(g35
g4
Ntp716
Rp717
(dp718
g39
F-28.92285099999998
sg40
g27
sg41
F114.92815850000011
sbsbsVAUS0000005
p719
g2
(g3
g4
Ntp720
Rp721
(dp722
g8
Nsg9
g10
sg11
g12
((lp723
tp724
Rp725
sg16
F98.7
sg17
VSnowtown Wind Farm Stage 1
p726
sg19
g184
sg21
g22
sg23
g24
sg25
Nsg26
g27
sg28
g719
sg29
Nsg30
g10
sg31
VTrustPower Ltd
p727
sg33
I2012
sg34
g2
(g35
g4
Ntp728
Rp729
(dp730
g39
F-33.72151999999994
sg40
g27
sg41
F138.14708800000005
sbsbsVAUS0000004
p731
g2
(g3
g4
Ntp732
Rp733
(dp734
g8
Nsg9
g10
sg11
g12
((lp735
tp736
Rp737
sg16
F90.75
sg17
VWattle Point Wind Farm
p738
sg19
g184
sg21
g22
sg23
g24
sg25
Nsg26
g27
sg28
g731
sg29
Nsg30
g10
sg31
VANZ Energy Infrastructure Trust
p739
sg33
I2012
sg34
g2
(g35
g4
Ntp740
Rp741
(dp742
g39
F-35.12135499999994
sg40
g27
sg41
F137.71661800000004
sbsbsVAUS0000007
p743
g2
(g3
g4
Ntp744
Rp745
(dp746
g8
Nsg9
g10
sg11
g12
((lp747
tp748
Rp749
sg16
F58.0
sg17
VCape Bridgewater Wind Farm
p750
sg19
g184
sg21
g22
sg23
g24
sg25
Nsg26
g27
sg28
g743
sg29
Nsg30
g10
sg31
VPacific Hydro Pty Ltd
p751
sg33
I2012
sg34
g2
(g35
g4
Ntp752
Rp753
(dp754
g39
F-38.357654999999966
sg40
g27
sg41
F141.3850440000001
sbsbsVAUS0000006
p755
g2
(g3
g4
Ntp756
Rp757
(dp758
g8
Nsg9
g10
sg11
g12
((lp759
tp760
Rp761
sg16
F52.5
sg17
VChallicum Hills Wind Farm
p762
sg19
g184
sg21
g22
sg23
g24
sg25
Nsg26
g27
sg28
g755
sg29
Nsg30
g10
sg31
VPacific Hydro Pty Ltd
p763
sg33
I2012
sg34
g2
(g35
g4
Ntp764
Rp765
(dp766
g39
F-37.38978902399998
sg40
g27
sg41
F143.11397110200005
sbsbsVAUS0000009
p767
g2
(g3
g4
Ntp768
Rp769
(dp770
g8
Nsg9
g10
sg11
g12
((lp771
tp772
Rp773
sg16
F65.0
sg17
VBluff Point (Woolnorth) Wind Farm
p774
sg19
g184
sg21
g22
sg23
g24
sg25
Nsg26
g27
sg28
g767
sg29
Nsg30
g10
sg31
VHydro-Electric Corporation (Tasmania)
p775
sg33
I2012
sg34
g2
(g35
g4
Ntp776
Rp777
(dp778
g39
F-40.720673999999974
sg40
g27
sg41
F144.6869190000001
sbsbsVAUS0000008
p779
g2
(g3
g4
Ntp780
Rp781
(dp782
g8
Nsg9
g10
sg11
g12
((lp783
tp784
Rp785
sg16
F55.0
sg17
VBarcaldine (Len Wishaw)
p786
sg19
g20
sg21
g22
sg23
g24
sg25
Nsg26
g27
sg28
g779
sg29
Nsg30
g10
sg31
VErgon Energy Qld Pty Ltd
p787
sg33
I2012
sg34
g2
(g35
g4
Ntp788
Rp789
(dp790
g39
F-23.55245199999996
sg40
g27
sg41
F145.31418600000006
sbsbsVAUS0000119
p791
g2
(g3
g4
Ntp792
Rp793
(dp794
g8
Nsg9
g10
sg11
g12
((lp795
tp796
Rp797
sg16
F90.0
sg17
VTarraleah
p798
sg19
g62
sg21
g22
sg23
g24
sg25
Nsg26
g27
sg28
g791
sg29
Nsg30
g10
sg31
VHydro-Electric Corporation (Tasmania)
p799
sg33
I2012
sg34
g2
(g35
g4
Ntp800
Rp801
(dp802
g39
F-42.301207999999974
sg40
g27
sg41
F146.45715600000005
sbsbsVAUS0000029
p803
g2
(g3
g4
Ntp804
Rp805
(dp806
g8
Nsg9
g10
sg11
g12
((lp807
tp808
Rp809
sg16
F4.3
sg17
VWoodlawn Bioreactor
p810
sg19
g246
sg21
g22
sg23
g24
sg25
Nsg26
g27
sg28
g803
sg29
Nsg30
g10
sg31
VVeolia Environmental Services (Aust) Pty Ltd
p811
sg33
I2012
sg34
g2
(g35
g4
Ntp812
Rp813
(dp814
g39
F-35.05900245999993
sg40
g27
sg41
F149.5769049710001
sbsbsVAUS0000135
p815
g2
(g3
g4
Ntp816
Rp817
(dp818
g8
Nsg9
g10
sg11
g12
((lp819
tp820
Rp821
sg16
F46.0
sg17
VFisher
p822
sg19
g62
sg21
g22
sg23
g24
sg25
Nsg26
g27
sg28
g815
sg29
Nsg30
g10
sg31
VHydro-Electric Corporation (Tasmania)
p823
sg33
I2012
sg34
g2
(g35
g4
Ntp824
Rp825
(dp826
g39
F-41.673239999999964
sg40
g27
sg41
F146.26851800000009
sbsbsVAUS0000134
p827
g2
(g3
g4
Ntp828
Rp829
(dp830
g8
Nsg9
g10
sg11
g12
((lp831
tp832
Rp833
sg16
F143.0
sg17
VJohn Butters
p834
sg19
g62
sg21
g22
sg23
g24
sg25
Nsg26
g27
sg28
g827
sg29
Nsg30
g10
sg31
VHydro-Electric Corporation (Tasmania)
p835
sg33
I2012
sg34
g2
(g35
g4
Ntp836
Rp837
(dp838
g39
F-42.154834999999935
sg40
g27
sg41
F145.53447700000004
sbsbsVAUS0000137
p839
g2
(g3
g4
Ntp840
Rp841
(dp842
g8
Nsg9
g10
sg11
g12
((lp843
tp844
Rp845
sg16
F79.9
sg17
VBastyan
p846
sg19
g62
sg21
g22
sg23
g24
sg25
Nsg26
g27
sg28
g839
sg29
Nsg30
g10
sg31
VHydro-Electric Corporation (Tasmania)
p847
sg33
I2012
sg34
g2
(g35
g4
Ntp848
Rp849
(dp850
g39
F-41.735982999999976
sg40
g27
sg41
F145.5321120000001
sbsbsVAUS0000136
p851
g2
(g3
g4
Ntp852
Rp853
(dp854
g8
Nsg9
g10
sg11
g12
((lp855
tp856
Rp857
sg16
F63.0
sg17
VDevils Gate
p858
sg19
g62
sg21
g22
sg23
g24
sg25
Nsg26
g27
sg28
g851
sg29
Nsg30
g10
sg31
VHydro-Electric Corporation (Tasmania)
p859
sg33
I2012
sg34
g2
(g35
g4
Ntp860
Rp861
(dp862
g39
F-41.35046699999998
sg40
g27
sg41
F146.26316700000007
sbsbsVAUS0000131
p863
g2
(g3
g4
Ntp864
Rp865
(dp866
g8
Nsg9
g10
sg11
g12
((lp867
tp868
Rp869
sg16
F3.2
sg17
VLower Lake Margaret
p870
sg19
g62
sg21
g22
sg23
g24
sg25
Nsg26
g27
sg28
g863
sg29
Nsg30
g10
sg31
VHydro-Electric Corporation (Tasmania)
p871
sg33
I2012
sg34
g2
(g35
g4
Ntp872
Rp873
(dp874
g39
F-42.01888399999996
sg40
g27
sg41
F145.54249800000002
sbsbsVAUS0000130
p875
g2
(g3
g4
Ntp876
Rp877
(dp878
g8
Nsg9
g10
sg11
g12
((lp879
tp880
Rp881
sg16
F30.0
sg17
VPaloona
p882
sg19
g62
sg21
g22
sg23
g24
sg25
Nsg26
g27
sg28
g875
sg29
Nsg30
g10
sg31
VHydro-Electric Corporation (Tasmania)
p883
sg33
I2012
sg34
g2
(g35
g4
Ntp884
Rp885
(dp886
g39
F-41.28261599999996
sg40
g27
sg41
F146.24896400000011
sbsbsVAUS0000133
p887
g2
(g3
g4
Ntp888
Rp889
(dp890
g8
Nsg9
g10
sg11
g12
((lp891
tp892
Rp893
sg16
F8.4
sg17
VUpper Lake Margaret
p894
sg19
g62
sg21
g22
sg23
g24
sg25
Nsg26
g27
sg28
g887
sg29
Nsg30
g10
sg31
VHydro-Electric Corporation (Tasmania)
p895
sg33
I2012
sg34
g2
(g35
g4
Ntp896
Rp897
(dp898
g39
F-42.00456699999995
sg40
g27
sg41
F145.54369900000006
sbsbsVAUS0000132
p899
g2
(g3
g4
Ntp900
Rp901
(dp902
g8
Nsg9
g10
sg11
g12
((lp903
tp904
Rp905
sg16
F54.0
sg17
VLemonthyme
p906
sg19
g62
sg21
g22
sg23
g24
sg25
Nsg26
g27
sg28
g899
sg29
Nsg30
g10
sg31
VHydro-Electric Corporation (Tasmania)
p907
sg33
I2012
sg34
g2
(g35
g4
Ntp908
Rp909
(dp910
g39
F-41.60376299999996
sg40
g27
sg41
F146.13902200000007
sbsbsVAUS0000139
p911
g2
(g3
g4
Ntp912
Rp913
(dp914
g8
Nsg9
g10
sg11
g12
((lp915
tp916
Rp917
sg16
F120.0
sg17
VBell Bay (Bell Bay Three)
p918
sg19
g20
sg21
g22
sg23
g24
sg25
Nsg26
g27
sg28
g911
sg29
Nsg30
g10
sg31
VAurora Energy Tamar Valley Pty Ltd
p919
sg33
I2012
sg34
g2
(g35
g4
Ntp920
Rp921
(dp922
g39
F-41.14289599999995
sg40
g27
sg41
F146.90299800000003
sbsbsVAUS0000138
p923
g2
(g3
g4
Ntp924
Rp925
(dp926
g8
Nsg9
g10
sg11
g12
((lp927
tp928
Rp929
sg16
F390.0
sg17
VTamar Valley
p930
sg19
g20
sg21
g22
sg23
g24
sg25
Nsg26
g27
sg28
g923
sg29
Nsg30
g10
sg31
VAurora Energy (Tamar Valley)
p931
sg33
I2012
sg34
g2
(g35
g4
Ntp932
Rp933
(dp934
g39
F-41.140124999999955
sg40
g27
sg41
F146.90363600000012
sbsbsVAUS0000023
p935
g2
(g3
g4
Ntp936
Rp937
(dp938
g8
Nsg9
g10
sg11
g12
((lp939
tp940
Rp941
sg16
F71.4
sg17
VHallett 2 Hallet Hill  Wind Farm
p942
sg19
g184
sg21
g22
sg23
g24
sg25
Nsg26
g27
sg28
g935
sg29
Nsg30
g10
sg31
VANZ Energy Infrastructure Trust
p943
sg33
I2012
sg34
g2
(g35
g4
Ntp944
Rp945
(dp946
g39
F-33.52260243499995
sg40
g27
sg41
F138.85515976300007
sbsbsVAUS0000022
p947
g2
(g3
g4
Ntp948
Rp949
(dp950
g8
Nsg9
g10
sg11
g12
((lp951
tp952
Rp953
sg16
F94.5
sg17
VHallett 1 Brown Hill  Wind Farm
p954
sg19
g184
sg21
g22
sg23
g24
sg25
Nsg26
g27
sg28
g947
sg29
Nsg30
g10
sg31
VAGL Energy Pty Ltd
p955
sg33
I2012
sg34
g2
(g35
g4
Ntp956
Rp957
(dp958
g39
F-33.33973357899998
sg40
g27
sg41
F138.73233165800002
sbsbsVAUS0000474
p959
g2
(g3
g4
Ntp960
Rp961
(dp962
g8
Nsg9
g10
sg11
g12
((lp963
tp964
Rp965
sg16
F10.0
sg17
VGreenough River Solar Farm
p966
sg19
VSolar
p967
sg21
g22
sg23
g24
sg25
Nsg26
g27
sg28
g959
sg29
Nsg30
g10
sg31
VVerve Energy/GE Energy Financial Services JV
p968
sg33
I2014
sg34
g2
(g35
g4
Ntp969
Rp970
(dp971
g39
F-28.90431806199996
sg40
g27
sg41
F115.11193748500011
sbsbsVAUS0000475
p972
g2
(g3
g4
Ntp973
Rp974
(dp975
g8
Nsg9
g10
sg11
g12
((lp976
tp977
Rp978
sg16
F55.0
sg17
VMumbida Wind Farm
p979
sg19
g184
sg21
g22
sg23
g24
sg25
Nsg26
g27
sg28
g972
sg29
Nsg30
g10
sg31
VVerve Energy Pty Ltd
p980
sg33
I2014
sg34
g2
(g35
g4
Ntp981
Rp982
(dp983
g39
F-28.991804877999982
sg40
g27
sg41
F114.95988782900008
sbsbsVAUS0000476
p984
g2
(g3
g4
Ntp985
Rp986
(dp987
g8
Nsg9
g10
sg11
g12
((lp988
tp989
Rp990
sg16
F102.0
sg17
VNyngan Solar Plant
p991
sg19
g967
sg21
g22
sg23
g24
sg25
Nsg26
g27
sg28
g984
sg29
Nsg30
g10
sg31
VAGL Energy
p992
sg33
I2016
sg34
g2
(g35
g4
Ntp993
Rp994
(dp995
g39
F-31.552740360999962
sg40
g27
sg41
F147.08535195000002
sbsbsVAUS0000477
p996
g2
(g3
g4
Ntp997
Rp998
(dp999
g8
Nsg9
g10
sg11
g12
((lp1000
tp1001
Rp1002
sg16
F53.0
sg17
VBroken Hill Solar Plant
p1003
sg19
g967
sg21
g22
sg23
g24
sg25
Nsg26
g27
sg28
g996
sg29
Nsg30
g10
sg31
VAGL Energy
p1004
sg33
I2016
sg34
g2
(g35
g4
Ntp1005
Rp1006
(dp1007
g39
F-31.986707426999942
sg40
g27
sg41
F141.3915455120001
sbsbsVAUS0000470
p1008
g2
(g3
g4
Ntp1009
Rp1010
(dp1011
g8
Nsg9
g10
sg11
g12
((lp1012
tp1013
Rp1014
sg16
F1.0
sg17
VUterne Solar
p1015
sg19
g967
sg21
g22
sg23
g24
sg25
Nsg26
g27
sg28
g1008
sg29
Nsg30
g10
sg31
VEpuron
p1016
sg33
I2014
sg34
g2
(g35
g4
Ntp1017
Rp1018
(dp1019
g39
F-23.768517390999932
sg40
g27
sg41
F133.86821016400006
sbsbsVAUS0000471
p1020
g2
(g3
g4
Ntp1021
Rp1022
(dp1023
g8
Nsg9
g10
sg11
g12
((lp1024
tp1025
Rp1026
sg16
F0.19
sg17
VHermannsburg
p1027
sg19
g967
sg21
g22
sg23
g24
sg25
Nsg26
g27
sg28
g1020
sg29
Nsg30
g10
sg31
VSolar Systems
p1028
sg33
I2014
sg34
g2
(g35
g4
Ntp1029
Rp1030
(dp1031
g39
F-23.93736457899996
sg40
g27
sg41
F132.77192821900007
sbsbsVAUS0000472
p1032
g2
(g3
g4
Ntp1033
Rp1034
(dp1035
g8
Nsg9
g10
sg11
g12
((lp1036
tp1037
Rp1038
sg16
F0.3
sg17
VBallarat Solar Park
p1039
sg19
g967
sg21
g22
sg23
g24
sg25
Nsg26
g27
sg28
g1032
sg29
Nsg30
g10
sg31
VCentral Victoria Solar City Consortium
p1040
sg33
I2014
sg34
g2
(g35
g4
Ntp1041
Rp1042
(dp1043
g39
F-37.51437136499993
sg40
g27
sg41
F143.78547291200005
sbsbsVAUS0000473
p1044
g2
(g3
g4
Ntp1045
Rp1046
(dp1047
g8
Nsg9
g10
sg11
g12
((lp1048
tp1049
Rp1050
sg16
F9.3
sg17
VLiddell Solar Thermal
p1051
sg19
g967
sg21
g22
sg23
g24
sg25
Nsg26
g27
sg28
g1044
sg29
Nsg30
g10
sg31
VMacquarie Generation
p1052
sg33
I2014
sg34
g2
(g35
g4
Ntp1053
Rp1054
(dp1055
g39
F-32.376069144999974
sg40
g27
sg41
F150.97966729400002
sbsbsVAUS0000229
p1056
g2
(g3
g4
Ntp1057
Rp1058
(dp1059
g8
Nsg9
g10
sg11
g12
((lp1060
tp1061
Rp1062
sg16
F153.0
sg17
VParaburdoo
p1063
sg19
g20
sg21
g22
sg23
g24
sg25
Nsg26
g27
sg28
g1056
sg29
Nsg30
g10
sg31
VRio Tinto Australia Pty Ltd
p1064
sg33
I2012
sg34
g2
(g35
g4
Ntp1065
Rp1066
(dp1067
g39
F-23.223478996999972
sg40
g27
sg41
F117.61348122600009
sbsbsVAUS0000228
p1068
g2
(g3
g4
Ntp1069
Rp1070
(dp1071
g8
Nsg9
g10
sg11
g12
((lp1072
tp1073
Rp1074
sg16
F20.0
sg17
VParaburdoo (Standby)
p1075
sg19
g20
sg21
g22
sg23
g24
sg25
Nsg26
g27
sg28
g1068
sg29
Nsg30
g10
sg31
VRio Tinto Australia Pty Ltd
p1076
sg33
I2012
sg34
g2
(g35
g4
Ntp1077
Rp1078
(dp1079
g39
F-23.221953285999973
sg40
g27
sg41
F117.61503073100005
sbsbsVAUS0000344
p1080
g2
(g3
g4
Ntp1081
Rp1082
(dp1083
g8
Nsg9
g10
sg11
g12
((lp1084
tp1085
Rp1086
sg16
F1.0
sg17
VTea Tree Gully
p1087
sg19
g246
sg21
g22
sg23
g24
sg25
Nsg26
g27
sg28
g1080
sg29
Nsg30
g10
sg31
VEDL LFG SA Pty Ltd
p1088
sg33
I2012
sg34
g2
(g35
g4
Ntp1089
Rp1090
(dp1091
g39
F-34.830327067999974
sg40
g27
sg41
F138.71285098500005
sbsbsVAUS0000345
p1092
g2
(g3
g4
Ntp1093
Rp1094
(dp1095
g8
Nsg9
g10
sg11
g12
((lp1096
tp1097
Rp1098
sg16
F57.6
sg17
VPort Stanvac
p1099
sg19
g209
sg21
g22
sg23
g24
sg25
Nsg26
g27
sg28
g1092
sg29
Nsg30
g10
sg31
VInfratil Energy Australia Pty Ltd
p1100
sg33
I2012
sg34
g2
(g35
g4
Ntp1101
Rp1102
(dp1103
g39
F-35.11039534399998
sg40
g27
sg41
F138.49145908000003
sbsbsVAUS0000342
p1104
g2
(g3
g4
Ntp1105
Rp1106
(dp1107
g8
Nsg9
g10
sg11
g12
((lp1108
tp1109
Rp1110
sg16
F25.0
sg17
VBox Hill
p1111
sg19
g184
sg21
g22
sg23
g24
sg25
Nsg26
g27
sg28
g1104
sg29
Nsg30
g10
sg31
VAGL Energy
p1112
sg33
I2012
sg34
g2
(g35
g4
Ntp1113
Rp1114
(dp1115
g39
F-30.49941066699995
sg40
g27
sg41
F151.68388987800006
sbsbsVAUS0000343
p1116
g2
(g3
g4
Ntp1117
Rp1118
(dp1119
g8
Nsg9
g10
sg11
g12
((lp1120
tp1121
Rp1122
sg16
F1.0
sg17
VHighbury
p1123
sg19
g246
sg21
g22
sg23
g24
sg25
Nsg26
g27
sg28
g1116
sg29
Nsg30
g10
sg31
VEDL LFG SA Pty Ltd
p1124
sg33
I2012
sg34
g2
(g35
g4
Ntp1125
Rp1126
(dp1127
g39
F-34.84902902299996
sg40
g27
sg41
F138.72028357300007
sbsbsVAUS0000340
p1128
g2
(g3
g4
Ntp1129
Rp1130
(dp1131
g8
Nsg9
g10
sg11
g12
((lp1132
tp1133
Rp1134
sg16
F0.3
sg17
VRubicon Falls
p1135
sg19
g62
sg21
g22
sg23
g24
sg25
Nsg26
g27
sg28
g1128
sg29
Nsg30
g10
sg31
VAGL Energy Pty Ltd
p1136
sg33
I2012
sg34
g2
(g35
g4
Ntp1137
Rp1138
(dp1139
g39
F-37.34008662499997
sg40
g27
sg41
F145.8476787080001
sbsbsVAUS0000341
p1140
g2
(g3
g4
Ntp1141
Rp1142
(dp1143
g8
Nsg9
g10
sg11
g12
((lp1144
tp1145
Rp1146
sg16
F4.1
sg17
VLeonards Hill
p1147
sg19
g184
sg21
g22
sg23
g24
sg25
Nsg26
g27
sg28
g1140
sg29
Nsg30
g10
sg31
VHepburn Community Wind Park Co-operative Ltd
p1148
sg33
I2012
sg34
g2
(g35
g4
Ntp1149
Rp1150
(dp1151
g39
F-37.427135745999976
sg40
g27
sg41
F144.12215301000003
sbsbsVAUS0000221
p1152
g2
(g3
g4
Ntp1153
Rp1154
(dp1155
g8
Nsg9
g10
sg11
g12
((lp1156
tp1157
Rp1158
sg16
F28.0
sg17
VChristmas Creek Iron Ore Mine
p1159
sg19
g209
sg21
g22
sg23
g24
sg25
Nsg26
g27
sg28
g1152
sg29
Nsg30
g10
sg31
VContract Power Holdings
p1160
sg33
I2012
sg34
g2
(g35
g4
Ntp1161
Rp1162
(dp1163
g39
F-22.398999999999944
sg40
g27
sg41
F119.73200000000008
sbsbsVAUS0000220
p1164
g2
(g3
g4
Ntp1165
Rp1166
(dp1167
g8
Nsg9
g10
sg11
g12
((lp1168
tp1169
Rp1170
sg16
F32.0
sg17
VArgyle Diamond Mine
p1171
sg19
g209
sg21
g22
sg23
g24
sg25
Nsg26
g27
sg28
g1164
sg29
Nsg30
g10
sg31
VRio Tinto - Argyle Diamond Mines
p1172
sg33
I2012
sg34
g2
(g35
g4
Ntp1173
Rp1174
(dp1175
g39
F-16.716156999999953
sg40
g27
sg41
F128.40308000000005
sbsbsVAUS0000223
p1176
g2
(g3
g4
Ntp1177
Rp1178
(dp1179
g8
Nsg9
g10
sg11
g12
((lp1180
tp1181
Rp1182
sg16
F78.0
sg17
VLeonora (Murrin Murrin Nickel Mine)
p1183
sg19
g20
sg21
g22
sg23
g24
sg25
Nsg26
g27
sg28
g1176
sg29
Nsg30
g10
sg31
VMinara Resources
p1184
sg33
I2012
sg34
g2
(g35
g4
Ntp1185
Rp1186
(dp1187
g39
F-28.923753999999974
sg40
g27
sg41
F121.32929000000001
sbsbsVAUS0000222
p1188
g2
(g3
g4
Ntp1189
Rp1190
(dp1191
g8
Nsg9
g10
sg11
g12
((lp1192
tp1193
Rp1194
sg16
F21.0
sg17
VJundee Gold Mine
p1195
sg19
g20
sg21
g22
sg23
g24
sg25
Nsg26
g27
sg28
g1188
sg29
Nsg30
g10
sg31
VNewmount Australia
p1196
sg33
I2012
sg34
g2
(g35
g4
Ntp1197
Rp1198
(dp1199
g39
F-26.371211999999957
sg40
g27
sg41
F120.57761300000004
sbsbsVAUS0000225
p1200
g2
(g3
g4
Ntp1201
Rp1202
(dp1203
g8
Nsg9
g10
sg11
g12
((lp1204
tp1205
Rp1206
sg16
F28.0
sg17
VPlutonic Gold Mine
p1207
sg19
g20
sg21
g22
sg23
g24
sg25
Nsg26
g27
sg28
g1200
sg29
Nsg30
g10
sg31
VBarrick Gold of Australia
p1208
sg33
I2012
sg34
g2
(g35
g4
Ntp1209
Rp1210
(dp1211
g39
F-25.311001999999974
sg40
g27
sg41
F119.45075700000007
sbsbsVAUS0000224
p1212
g2
(g3
g4
Ntp1213
Rp1214
(dp1215
g8
Nsg9
g10
sg11
g12
((lp1216
tp1217
Rp1218
sg16
F30.0
sg17
VOrd River
p1219
sg19
g62
sg21
g22
sg23
g24
sg25
Nsg26
g27
sg28
g1212
sg29
Nsg30
g10
sg31
VPacific Hydro Pty Ltd
p1220
sg33
I2012
sg34
g2
(g35
g4
Ntp1221
Rp1222
(dp1223
g39
F-16.120131999999955
sg40
g27
sg41
F128.73832500000003
sbsbsVAUS0000227
p1224
g2
(g3
g4
Ntp1225
Rp1226
(dp1227
g8
Nsg9
g10
sg11
g12
((lp1228
tp1229
Rp1230
sg16
F21.0
sg17
VWiluna Gold Mine
p1231
sg19
g20
sg21
g22
sg23
g24
sg25
Nsg26
g27
sg28
g1224
sg29
Nsg30
g10
sg31
VApex Minerals
p1232
sg33
I2012
sg34
g2
(g35
g4
Ntp1233
Rp1234
(dp1235
g39
F-26.63156799999996
sg40
g27
sg41
F120.25188400000002
sbsbsVAUS0000226
p1236
g2
(g3
g4
Ntp1237
Rp1238
(dp1239
g8
Nsg9
g10
sg11
g12
((lp1240
tp1241
Rp1242
sg16
F28.4
sg17
VSunrise Dam
p1243
sg19
g20
sg21
g22
sg23
g24
sg25
Nsg26
g27
sg28
g1236
sg29
Nsg30
g10
sg31
VEnergy Generation / AngloGold Ashanti
p1244
sg33
I2012
sg34
g2
(g35
g4
Ntp1245
Rp1246
(dp1247
g39
F-29.09268343599996
sg40
g27
sg41
F122.43928453500007
sbsbsVAUS0000049
p1248
g2
(g3
g4
Ntp1249
Rp1250
(dp1251
g8
Nsg9
g10
sg11
g12
((lp1252
tp1253
Rp1254
sg16
F1.1
sg17
VAwaba
p1255
sg19
g246
sg21
g22
sg23
g24
sg25
Nsg26
g27
sg28
g1248
sg29
Nsg30
g10
sg31
VLMS Energy Generation Pty Ltd
p1256
sg33
I2012
sg34
g2
(g35
g4
Ntp1257
Rp1258
(dp1259
g39
F-33.02502999999996
sg40
g27
sg41
F151.5497190000001
sbsbsVAUS0000048
p1260
g2
(g3
g4
Ntp1261
Rp1262
(dp1263
g8
Nsg9
g10
sg11
g12
((lp1264
tp1265
Rp1266
sg16
F27.2
sg17
VBurrinjuck Power Station
p1267
sg19
g62
sg21
g22
sg23
g24
sg25
Nsg26
g27
sg28
g1260
sg29
Nsg30
g10
sg31
VEraring Energy
p1268
sg33
I2012
sg34
g2
(g35
g4
Ntp1269
Rp1270
(dp1271
g39
F-35.00251999999995
sg40
g27
sg41
F148.58339300000011
sbsbsVAUS0000045
p1272
g2
(g3
g4
Ntp1273
Rp1274
(dp1275
g8
Nsg9
g10
sg11
g12
((lp1276
tp1277
Rp1278
sg16
F5.0
sg17
VEastern Creek
p1279
sg19
g246
sg21
g22
sg23
g24
sg25
Nsg26
g27
sg28
g1272
sg29
Nsg30
g10
sg31
VEnergy Developments LFG(NSW) Pty Ltd
p1280
sg33
I2012
sg34
g2
(g35
g4
Ntp1281
Rp1282
(dp1283
g39
F-33.814156999999966
sg40
g27
sg41
F150.8537020000001
sbsbsVAUS0000044
p1284
g2
(g3
g4
Ntp1285
Rp1286
(dp1287
g8
Nsg9
g10
sg11
g12
((lp1288
tp1289
Rp1290
sg16
F7.7
sg17
VEastern Creek 2
p1291
sg19
g246
sg21
g22
sg23
g24
sg25
Nsg26
g27
sg28
g1284
sg29
Nsg30
g10
sg31
VLMS Energy Generation Pty Ltd
p1292
sg33
I2012
sg34
g2
(g35
g4
Ntp1293
Rp1294
(dp1295
g39
F-33.81251499999996
sg40
g27
sg41
F150.86168300000008
sbsbsVAUS0000047
p1296
g2
(g3
g4
Ntp1297
Rp1298
(dp1299
g8
Nsg9
g10
sg11
g12
((lp1300
tp1301
Rp1302
sg16
F140.7
sg17
VCapital Wind Farm
p1303
sg19
g184
sg21
g22
sg23
g24
sg25
Nsg26
g27
sg28
g1296
sg29
Nsg30
g10
sg31
VInfigen Energy Pty Ltd
p1304
sg33
I2012
sg34
g2
(g35
g4
Ntp1305
Rp1306
(dp1307
g39
F-35.16603062099995
sg40
g27
sg41
F149.51856862600005
sbsbsVAUS0000046
p1308
g2
(g3
g4
Ntp1309
Rp1310
(dp1311
g8
Nsg9
g10
sg11
g12
((lp1312
tp1313
Rp1314
sg16
F4.8
sg17
VCrookwell Wind Farm
p1315
sg19
g184
sg21
g22
sg23
g24
sg25
Nsg26
g27
sg28
g1308
sg29
Nsg30
g10
sg31
VEraring Energy
p1316
sg33
I2012
sg34
g2
(g35
g4
Ntp1317
Rp1318
(dp1319
g39
F-34.51649999999995
sg40
g27
sg41
F149.54248000000007
sbsbsVAUS0000041
p1320
g2
(g3
g4
Ntp1321
Rp1322
(dp1323
g8
Nsg9
g10
sg11
g12
((lp1324
tp1325
Rp1326
sg16
F1.3
sg17
VGrange Avenue
p1327
sg19
g246
sg21
g22
sg23
g24
sg25
Nsg26
g27
sg28
g1320
sg29
Nsg30
g10
sg31
VEnergy Developments LFG (NSW) Pty Ltd
p1328
sg33
I2012
sg34
g2
(g35
g4
Ntp1329
Rp1330
(dp1331
g39
F-33.70293799999996
sg40
g27
sg41
F150.8312330000001
sbsbsVAUS0000040
p1332
g2
(g3
g4
Ntp1333
Rp1334
(dp1335
g8
Nsg9
g10
sg11
g12
((lp1336
tp1337
Rp1338
sg16
F46.5
sg17
VGunning
p1339
sg19
g184
sg21
g22
sg23
g24
sg25
Nsg26
g27
sg28
g1332
sg29
Nsg30
g10
sg31
VAcciona Energy Australia
p1340
sg33
I2012
sg34
g2
(g35
g4
Ntp1341
Rp1342
(dp1343
g39
F-34.695830899999976
sg40
g27
sg41
F149.3831752110001
sbsbsVAUS0000043
p1344
g2
(g3
g4
Ntp1345
Rp1346
(dp1347
g8
Nsg9
g10
sg11
g12
((lp1348
tp1349
Rp1350
sg16
F79.2
sg17
VEmu Downs Wind Farm
p1351
sg19
g184
sg21
g22
sg23
g24
sg25
Nsg26
g27
sg28
g1344
sg29
Nsg30
g10
sg31
VGriffin Energy & Stanwell Corporation Ltd
p1352
sg33
I2012
sg34
g2
(g35
g4
Ntp1353
Rp1354
(dp1355
g39
F-30.488061999999957
sg40
g27
sg41
F115.33700500000009
sbsbsVAUS0000042
p1356
g2
(g3
g4
Ntp1357
Rp1358
(dp1359
g8
Nsg9
g10
sg11
g12
((lp1360
tp1361
Rp1362
sg16
F3.6
sg17
VEsperance Wind Farm Nine Mile Beach
p1363
sg19
g184
sg21
g22
sg23
g24
sg25
Nsg26
g27
sg28
g1356
sg29
Nsg30
g10
sg31
VVerve Energy
p1364
sg33
I2012
sg34
g2
(g35
g4
Ntp1365
Rp1366
(dp1367
g39
F-33.892709999999965
sg40
g27
sg41
F121.77778
sbsbsVAUS0000346
p1368
g2
(g3
g4
Ntp1369
Rp1370
(dp1371
g8
Nsg9
g10
sg11
g12
((lp1372
tp1373
Rp1374
sg16
F7.5
sg17
VMaryborough
p1375
sg19
g306
sg21
g22
sg23
g24
sg25
Nsg26
g27
sg28
g1368
sg29
Nsg30
g10
sg31
VMSF Sugar
p1376
sg33
I2012
sg34
g2
(g35
g4
Ntp1377
Rp1378
(dp1379
g39
F-25.547588004999966
sg40
g27
sg41
F152.7170960950001
sbsbsVAUS0000347
p1380
g2
(g3
g4
Ntp1381
Rp1382
(dp1383
g8
Nsg9
g10
sg11
g12
((lp1384
tp1385
Rp1386
sg16
F4.8
sg17
VStapylton Green Energy
p1387
sg19
g306
sg21
g22
sg23
g24
sg25
Nsg26
g27
sg28
g1380
sg29
Nsg30
g10
sg31
VStapylton Green Energy
p1388
sg33
I2012
sg34
g2
(g35
g4
Ntp1389
Rp1390
(dp1391
g39
F-27.733448959999976
sg40
g27
sg41
F153.24630257800004
sbsbsVAUS0000403
p1392
g2
(g3
g4
Ntp1393
Rp1394
(dp1395
g8
Nsg9
g10
sg11
g12
((lp1396
tp1397
Rp1398
sg16
F0.4
sg17
VErskine Park
p1399
sg19
g20
sg21
g22
sg23
g24
sg25
Nsg26
g27
sg28
g1392
sg29
Nsg30
g10
sg31
VCogent Energy
p1400
sg33
I2012
sg34
g2
(g35
g4
Ntp1401
Rp1402
(dp1403
g39
F-33.81820658899994
sg40
g27
sg41
F150.80322730700004
sbsbsVAUS0000402
p1404
g2
(g3
g4
Ntp1405
Rp1406
(dp1407
g8
Nsg9
g10
sg11
g12
((lp1408
tp1409
Rp1410
sg16
F0.8
sg17
VClub Merrylands
p1411
sg19
g209
sg21
g22
sg23
g24
sg25
Nsg26
g27
sg28
g1404
sg29
Nsg30
g10
sg31
VClub Merrylands
p1412
sg33
I2012
sg34
g2
(g35
g4
Ntp1413
Rp1414
(dp1415
g39
F-33.83811554999994
sg40
g27
sg41
F150.99050381200004
sbsbsVAUS0000348
p1416
g2
(g3
g4
Ntp1417
Rp1418
(dp1419
g8
Nsg9
g10
sg11
g12
((lp1420
tp1421
Rp1422
sg16
F0.6
sg17
VBremer Bay Wind Turbine
p1423
sg19
g184
sg21
g22
sg23
g24
sg25
Nsg26
g27
sg28
g1416
sg29
Nsg30
g10
sg31
VVerve Energy
p1424
sg33
I2012
sg34
g2
(g35
g4
Ntp1425
Rp1426
(dp1427
g39
F-34.399007154999936
sg40
g27
sg41
F119.39148142400006
sbsbsVAUS0000376
p1428
g2
(g3
g4
Ntp1429
Rp1430
(dp1431
g8
Nsg9
g10
sg11
g12
((lp1432
tp1433
Rp1434
sg16
F0.5
sg17
VBlue Lake Milling Power Plant
p1435
sg19
g209
sg21
g22
sg23
g24
sg25
Nsg26
g27
sg28
g1428
sg29
Nsg30
g10
sg31
VVibe Energy Pty Ltd
p1436
sg33
I2012
sg34
g2
(g35
g4
Ntp1437
Rp1438
(dp1439
g39
F-36.31643279399998
sg40
g27
sg41
F140.7574619190001
sbsbsVAUS0000349
p1440
g2
(g3
g4
Ntp1441
Rp1442
(dp1443
g8
Nsg9
g10
sg11
g12
((lp1444
tp1445
Rp1446
sg16
F1.3
sg17
VBremer Bay Diesel Backup
p1447
sg19
g209
sg21
g22
sg23
g24
sg25
Nsg26
g27
sg28
g1440
sg29
Nsg30
g10
sg31
VVerve Energy
p1448
sg33
I2012
sg34
g2
(g35
g4
Ntp1449
Rp1450
(dp1451
g39
F-34.40182817799996
sg40
g27
sg41
F119.38880433100007
sbsbsVAUS0000409
p1452
g2
(g3
g4
Ntp1453
Rp1454
(dp1455
g8
Nsg9
g10
sg11
g12
((lp1456
tp1457
Rp1458
sg16
F4.43
sg17
VLeonora
p1459
sg19
g20
sg21
g22
sg23
g24
sg25
Nsg26
g27
sg28
g1452
sg29
Nsg30
g10
sg31
VEnergy Developments
p1460
sg33
I2012
sg34
g2
(g35
g4
Ntp1461
Rp1462
(dp1463
g39
F-28.881076375999953
sg40
g27
sg41
F121.32127466800011
sbsbsVAUS0000408
p1464
g2
(g3
g4
Ntp1465
Rp1466
(dp1467
g8
Nsg9
g10
sg11
g12
((lp1468
tp1469
Rp1470
sg16
F2.9
sg17
VMeekatharra
p1471
sg19
g209
sg21
g22
sg23
g24
sg25
Nsg26
g27
sg28
g1464
sg29
Nsg30
g10
sg31
VEnergy Developments
p1472
sg33
I2012
sg34
g2
(g35
g4
Ntp1473
Rp1474
(dp1475
g39
F-26.59517155499998
sg40
g27
sg41
F118.48302202900004
sbsbsVAUS0000438
p1476
g2
(g3
g4
Ntp1477
Rp1478
(dp1479
g8
Nsg9
g10
sg11
g12
((lp1480
tp1481
Rp1482
sg16
F1.5
sg17
VCSIRO Energy Centre
p1483
sg19
g967
sg21
g22
sg23
g24
sg25
Nsg26
g27
sg28
g1476
sg29
Nsg30
g10
sg31
VCSIRO
p1484
sg33
I2012
sg34
g2
(g35
g4
Ntp1485
Rp1486
(dp1487
g39
F-32.88347300399994
sg40
g27
sg41
F151.72745249100012
sbsbsVAUS0000439
p1488
g2
(g3
g4
Ntp1489
Rp1490
(dp1491
g8
Nsg9
g10
sg11
g12
((lp1492
tp1493
Rp1494
sg16
F0.67
sg17
VNewington Solar Suburb
p1495
sg19
g967
sg21
g22
sg23
g24
sg25
Nsg26
g27
sg28
g1488
sg29
Nsg30
g10
sg31
VPacific Power
p1496
sg33
I2012
sg34
g2
(g35
g4
Ntp1497
Rp1498
(dp1499
g39
F-33.841292099999976
sg40
g27
sg41
F151.0538161280001
sbsbsVAUS0000430
p1500
g2
(g3
g4
Ntp1501
Rp1502
(dp1503
g8
Nsg9
g10
sg11
g12
((lp1504
tp1505
Rp1506
sg16
F0.25
sg17
VQueen Victoria Market Solar Array
p1507
sg19
g967
sg21
g22
sg23
g24
sg25
Nsg26
g27
sg28
g1500
sg29
Nsg30
g10
sg31
VMelbourne City Council
p1508
sg33
I2012
sg34
g2
(g35
g4
Ntp1509
Rp1510
(dp1511
g39
F-37.80694397399998
sg40
g27
sg41
F144.9569437770001
sbsbsVAUS0000431
p1512
g2
(g3
g4
Ntp1513
Rp1514
(dp1515
g8
Nsg9
g10
sg11
g12
((lp1516
tp1517
Rp1518
sg16
F0.3
sg17
VBendigo Solar Park
p1519
sg19
g967
sg21
g22
sg23
g24
sg25
Nsg26
g27
sg28
g1512
sg29
Nsg30
g10
sg31
VCentral Victoria Solar City Consortium
p1520
sg33
I2012
sg34
g2
(g35
g4
Ntp1521
Rp1522
(dp1523
g39
F-36.67475241999995
sg40
g27
sg41
F144.3032389540001
sbsbsVAUS0000432
p1524
g2
(g3
g4
Ntp1525
Rp1526
(dp1527
g8
Nsg9
g10
sg11
g12
((lp1528
tp1529
Rp1530
sg16
F1.0
sg17
VAdelaide Showgrounds
p1531
sg19
g967
sg21
g22
sg23
g24
sg25
Nsg26
g27
sg28
g1524
sg29
Nsg30
g10
sg31
VAdelaide Showgrounds
p1532
sg33
I2012
sg34
g2
(g35
g4
Ntp1533
Rp1534
(dp1535
g39
F-34.94528525499993
sg40
g27
sg41
F138.58819351300008
sbsbsVAUS0000370
p1536
g2
(g3
g4
Ntp1537
Rp1538
(dp1539
g8
Nsg9
g10
sg11
g12
((lp1540
tp1541
Rp1542
sg16
F12.4
sg17
VKununurra
p1543
sg19
g209
sg21
g22
sg23
g24
sg25
Nsg26
g27
sg28
g1536
sg29
Nsg30
g10
sg31
VHorizon Power
p1544
sg33
I2012
sg34
g2
(g35
g4
Ntp1545
Rp1546
(dp1547
g39
F-15.779556778999961
sg40
g27
sg41
F128.73946199400007
sbsbsVAUS0000434
p1548
g2
(g3
g4
Ntp1549
Rp1550
(dp1551
g8
Nsg9
g10
sg11
g12
((lp1552
tp1553
Rp1554
sg16
F0.34
sg17
VTownsville RSL Stadium Solar Array
p1555
sg19
g967
sg21
g22
sg23
g24
sg25
Nsg26
g27
sg28
g1548
sg29
Nsg30
g10
sg31
VTownsville RSL Stadium
p1556
sg33
I2012
sg34
g2
(g35
g4
Ntp1557
Rp1558
(dp1559
g39
F-19.307861025999955
sg40
g27
sg41
F146.8010542510001
sbsbsVAUS0000435
p1560
g2
(g3
g4
Ntp1561
Rp1562
(dp1563
g8
Nsg9
g10
sg11
g12
((lp1564
tp1565
Rp1566
sg16
F0.4
sg17
VFraser Coast Community Solar Farm
p1567
sg19
g967
sg21
g22
sg23
g24
sg25
Nsg26
g27
sg28
g1560
sg29
Nsg30
g10
sg31
VWide Bay Water Corporation
p1568
sg33
I2012
sg34
g2
(g35
g4
Ntp1569
Rp1570
(dp1571
g39
F-25.318398602999935
sg40
g27
sg41
F152.7901683220001
sbsbsVAUS0000436
p1572
g2
(g3
g4
Ntp1573
Rp1574
(dp1575
g8
Nsg9
g10
sg11
g12
((lp1576
tp1577
Rp1578
sg16
F0.22
sg17
VMetricon (Gold Coast) Stadium Solar Array
p1579
sg19
g967
sg21
g22
sg23
g24
sg25
Nsg26
g27
sg28
g1572
sg29
Nsg30
g10
sg31
VMetricon Stadium
p1580
sg33
I2012
sg34
g2
(g35
g4
Ntp1581
Rp1582
(dp1583
g39
F-28.00627412299997
sg40
g27
sg41
F153.36711828600005
sbsbsVAUS0000437
p1584
g2
(g3
g4
Ntp1585
Rp1586
(dp1587
g8
Nsg9
g10
sg11
g12
((lp1588
tp1589
Rp1590
sg16
F0.29
sg17
VCarnarvon Solar Farm
p1591
sg19
g967
sg21
g22
sg23
g24
sg25
Nsg26
g27
sg28
g1584
sg29
Nsg30
g10
sg31
VEMC Solar
p1592
sg33
I2012
sg34
g2
(g35
g4
Ntp1593
Rp1594
(dp1595
g39
F-24.897029118999967
sg40
g27
sg41
F113.6741161000001
sbsbsVAUS0000382
p1596
g2
(g3
g4
Ntp1597
Rp1598
(dp1599
g8
Nsg9
g10
sg11
g12
((lp1600
tp1601
Rp1602
sg16
F1.3
sg17
VBidyadanga
p1603
sg19
g209
sg21
g22
sg23
g24
sg25
Nsg26
g27
sg28
g1596
sg29
Nsg30
g10
sg31
VEnergy Developments Ltd
p1604
sg33
I2012
sg34
g2
(g35
g4
Ntp1605
Rp1606
(dp1607
g39
F-18.68162717399997
sg40
g27
sg41
F121.78478093100011
sbsbsVAUS0000276
p1608
g2
(g3
g4
Ntp1609
Rp1610
(dp1611
g8
Nsg9
g10
sg11
g12
((lp1612
tp1613
Rp1614
sg16
F10.0
sg17
VGlennies Creek
p1615
sg19
g20
sg21
g22
sg23
g24
sg25
Nsg26
g27
sg28
g1608
sg29
Nsg30
g10
sg31
VEnviroGen Pty Ltd
p1616
sg33
I2012
sg34
g2
(g35
g4
Ntp1617
Rp1618
(dp1619
g39
F-32.45984299999998
sg40
g27
sg41
F151.12862700000005
sbsbsVAUS0000380
p1620
g2
(g3
g4
Ntp1621
Rp1622
(dp1623
g8
Nsg9
g10
sg11
g12
((lp1624
tp1625
Rp1626
sg16
F0.7
sg17
VDjarindjin
p1627
sg19
g209
sg21
g22
sg23
g24
sg25
Nsg26
g27
sg28
g1620
sg29
Nsg30
g10
sg31
VEnergy Developments Ltd
p1628
sg33
I2012
sg34
g2
(g35
g4
Ntp1629
Rp1630
(dp1631
g39
F-16.519907689999968
sg40
g27
sg41
F122.9035895080001
sbsbsVAUS0000381
p1632
g2
(g3
g4
Ntp1633
Rp1634
(dp1635
g8
Nsg9
g10
sg11
g12
((lp1636
tp1637
Rp1638
sg16
F0.7
sg17
VBeagle Bay
p1639
sg19
g209
sg21
g22
sg23
g24
sg25
Nsg26
g27
sg28
g1632
sg29
Nsg30
g10
sg31
VEnergy Developments Ltd
p1640
sg33
I2012
sg34
g2
(g35
g4
Ntp1641
Rp1642
(dp1643
g39
F-16.993900064999934
sg40
g27
sg41
F122.65850864600009
sbsbsVAUS0000386
p1644
g2
(g3
g4
Ntp1645
Rp1646
(dp1647
g8
Nsg9
g10
sg11
g12
((lp1648
tp1649
Rp1650
sg16
F15.0
sg17
VCarnarvon
p1651
sg19
g20
sg21
g22
sg23
g24
sg25
Nsg26
g27
sg28
g1644
sg29
Nsg30
g10
sg31
g27
sg33
I2012
sg34
g2
(g35
g4
Ntp1652
Rp1653
(dp1654
g39
F-24.86915967899995
sg40
g27
sg41
F113.67537540600006
sbsbsVAUS0000387
p1655
g2
(g3
g4
Ntp1656
Rp1657
(dp1658
g8
Nsg9
g10
sg11
g12
((lp1659
tp1660
Rp1661
sg16
F18.0
sg17
VMungullah
p1662
sg19
g20
sg21
g22
sg23
g24
sg25
Nsg26
g27
sg28
g1655
sg29
Nsg30
g10
sg31
VHorizon Power
p1663
sg33
I2012
sg34
g2
(g35
g4
Ntp1664
Rp1665
(dp1666
g39
F-24.891051455999957
sg40
g27
sg41
F113.7095328040001
sbsbsVAUS0000384
p1667
g2
(g3
g4
Ntp1668
Rp1669
(dp1670
g8
Nsg9
g10
sg11
g12
((lp1671
tp1672
Rp1673
sg16
F1.3
sg17
VWiluna
p1674
sg19
g209
sg21
g22
sg23
g24
sg25
Nsg26
g27
sg28
g1667
sg29
Nsg30
g10
sg31
VEnergy Developments
p1675
sg33
I2012
sg34
g2
(g35
g4
Ntp1676
Rp1677
(dp1678
g39
F-26.592159892999973
sg40
g27
sg41
F120.21850892600003
sbsbsVAUS0000277
p1679
g2
(g3
g4
Ntp1680
Rp1681
(dp1682
g8
Nsg9
g10
sg11
g12
((lp1683
tp1684
Rp1685
sg16
F29.0
sg17
VHunter
p1686
sg19
g209
sg21
g22
sg23
g24
sg25
Nsg26
g27
sg28
g1679
sg29
Nsg30
g10
sg31
VInfratil Energy Australia Pty Ltd
p1687
sg33
I2012
sg34
g2
(g35
g4
Ntp1688
Rp1689
(dp1690
g39
F-32.83602099999996
sg40
g27
sg41
F151.4504710000001
sbsbsVAUS0000388
p1691
g2
(g3
g4
Ntp1692
Rp1693
(dp1694
g8
Nsg9
g10
sg11
g12
((lp1695
tp1696
Rp1697
sg16
F0.06
sg17
VExmouth Advanced Mini Wind Farm
p1698
sg19
g184
sg21
g22
sg23
g24
sg25
Nsg26
g27
sg28
g1691
sg29
Nsg30
g10
sg31
g27
sg33
I2012
sg34
g2
(g35
g4
Ntp1699
Rp1700
(dp1701
g39
F-21.812631499999952
sg40
g27
sg41
F114.1335056480001
sbsbsVAUS0000389
p1702
g2
(g3
g4
Ntp1703
Rp1704
(dp1705
g8
Nsg9
g10
sg11
g12
((lp1706
tp1707
Rp1708
sg16
F120.0
sg17
VWorsley
p1709
sg19
g75
sg21
g22
sg23
g24
sg25
Nsg26
g27
sg28
g1702
sg29
Nsg30
g10
sg31
VBHP
p1710
sg33
I2012
sg34
g2
(g35
g4
Ntp1711
Rp1712
(dp1713
g39
F-33.235493273999964
sg40
g27
sg41
F116.06879749400002
sbsbsVAUS0000265
p1714
g2
(g3
g4
Ntp1715
Rp1716
(dp1717
g8
Nsg9
g10
sg11
g12
((lp1718
tp1719
Rp1720
sg16
F2640.0
sg17
VBayswater
p1721
sg19
g75
sg21
g22
sg23
g24
sg25
Nsg26
g27
sg28
g1714
sg29
Nsg30
g10
sg31
VMacquarie Generation
p1722
sg33
I2012
sg34
g2
(g35
g4
Ntp1723
Rp1724
(dp1725
g39
F-32.39526999999998
sg40
g27
sg41
F150.94913000000008
sbsbsVAUS0000264
p1726
g2
(g3
g4
Ntp1727
Rp1728
(dp1729
g8
Nsg9
g10
sg11
g12
((lp1730
tp1731
Rp1732
sg16
F59.7
sg17
VAppin (Mine)
p1733
sg19
g20
sg21
g22
sg23
g24
sg25
Nsg26
g27
sg28
g1726
sg29
Nsg30
g10
sg31
VEnergy Developments CSM (NSW) Pty Ltd
p1734
sg33
I2012
sg34
g2
(g35
g4
Ntp1735
Rp1736
(dp1737
g39
F-34.20818499999996
sg40
g27
sg41
F150.77218100000005
sbsbsVAUS0000267
p1738
g2
(g3
g4
Ntp1739
Rp1740
(dp1741
g8
Nsg9
g10
sg11
g12
((lp1742
tp1743
Rp1744
sg16
F70.0
sg17
VBlowering
p1745
sg19
g62
sg21
g22
sg23
g24
sg25
Nsg26
g27
sg28
g1738
sg29
Nsg30
g10
sg31
VSnowy Hydro Ltd
p1746
sg33
I2012
sg34
g2
(g35
g4
Ntp1747
Rp1748
(dp1749
g39
F-35.39860099999993
sg40
g27
sg41
F148.2462720000001
sbsbsVAUS0000266
p1750
g2
(g3
g4
Ntp1751
Rp1752
(dp1753
g8
Nsg9
g10
sg11
g12
((lp1754
tp1755
Rp1756
sg16
F80.0
sg17
VBendeela (Shoalhaven Scheme)
p1757
sg19
g62
sg21
g22
sg23
g24
sg25
Nsg26
g27
sg28
g1750
sg29
Nsg30
g10
sg31
VOrigin Energy
p1758
sg33
I2012
sg34
g2
(g35
g4
Ntp1759
Rp1760
(dp1761
g39
F-34.73368999999997
sg40
g27
sg41
F150.46687000000009
sbsbsVAUS0000261
p1762
g2
(g3
g4
Ntp1763
Rp1764
(dp1765
g8
Nsg9
g10
sg11
g12
((lp1766
tp1767
Rp1768
sg16
F232.0
sg17
VChannel Island
p1769
sg19
g20
sg21
g22
sg23
g24
sg25
Nsg26
g27
sg28
g1762
sg29
Nsg30
g10
sg31
VNT Power and Water
p1770
sg33
I2012
sg34
g2
(g35
g4
Ntp1771
Rp1772
(dp1773
g39
F-12.554992999999968
sg40
g27
sg41
F130.8665870000001
sbsbsVAUS0000149
p1774
g2
(g3
g4
Ntp1775
Rp1776
(dp1777
g8
Nsg9
g10
sg11
g12
((lp1778
tp1779
Rp1780
sg16
F385.0
sg17
VSwanbank E
p1781
sg19
g20
sg21
g22
sg23
g24
sg25
Nsg26
g27
sg28
g1774
sg29
Nsg30
g10
sg31
VCS Energy
p1782
sg33
I2012
sg34
g2
(g35
g4
Ntp1783
Rp1784
(dp1785
g39
F-27.655373999999938
sg40
g27
sg41
F152.81793800000003
sbsbsVAUS0000263
p1786
g2
(g3
g4
Ntp1787
Rp1788
(dp1789
g8
Nsg9
g10
sg11
g12
((lp1790
tp1791
Rp1792
sg16
F30.0
sg17
VCondong Sugar Mill
p1793
sg19
g306
sg21
g22
sg23
g24
sg25
Nsg26
g27
sg28
g1786
sg29
Nsg30
g10
sg31
VDelta Electricity
p1794
sg33
I2012
sg34
g2
(g35
g4
Ntp1795
Rp1796
(dp1797
g39
F-28.313801999999953
sg40
g27
sg41
F153.43411000000003
sbsbsVAUS0000262
p1798
g2
(g3
g4
Ntp1799
Rp1800
(dp1801
g8
Nsg9
g10
sg11
g12
((lp1802
tp1803
Rp1804
sg16
F19.0
sg17
VWarrego
p1805
sg19
g20
sg21
g22
sg23
g24
sg25
Nsg26
g27
sg28
g1798
sg29
Nsg30
g10
sg31
g27
sg33
I2012
sg34
g2
(g35
g4
Ntp1806
Rp1807
(dp1808
g39
F-19.443392999999958
sg40
g27
sg41
F133.8235870000001
sbsbsVAUS0000144
p1809
g2
(g3
g4
Ntp1810
Rp1811
(dp1812
g8
Nsg9
g10
sg11
g12
((lp1813
tp1814
Rp1815
sg16
F100.0
sg17
VCethana
p1816
sg19
g62
sg21
g22
sg23
g24
sg25
Nsg26
g27
sg28
g1809
sg29
Nsg30
g10
sg31
VHydro-Electric Corporation (Tasmania)
p1817
sg33
I2012
sg34
g2
(g35
g4
Ntp1818
Rp1819
(dp1820
g39
F-41.48023699999993
sg40
g27
sg41
F146.13484900000003
sbsbsVAUS0000145
p1821
g2
(g3
g4
Ntp1822
Rp1823
(dp1824
g8
Nsg9
g10
sg11
g12
((lp1825
tp1826
Rp1827
sg16
F10.5
sg17
VInkerman Sugar Mill
p1828
sg19
g306
sg21
g22
sg23
g24
sg25
Nsg26
g27
sg28
g1821
sg29
Nsg30
g10
sg31
VCSR
p1829
sg33
I2012
sg34
g2
(g35
g4
Ntp1830
Rp1831
(dp1832
g39
F-19.642154999999946
sg40
g27
sg41
F147.40159100000005
sbsbsVAUS0000146
p1833
g2
(g3
g4
Ntp1834
Rp1835
(dp1836
g8
Nsg9
g10
sg11
g12
((lp1837
tp1838
Rp1839
sg16
F34.0
sg17
VMackay
p1840
sg19
g20
sg21
g22
sg23
g24
sg25
Nsg26
g27
sg28
g1833
sg29
Nsg30
g10
sg31
VStanwell Corporation Ltd
p1841
sg33
I2012
sg34
g2
(g35
g4
Ntp1842
Rp1843
(dp1844
g39
F-21.14456599999994
sg40
g27
sg41
F149.1590970000001
sbsbsVAUS0000147
p1845
g2
(g3
g4
Ntp1846
Rp1847
(dp1848
g8
Nsg9
g10
sg11
g12
((lp1849
tp1850
Rp1851
sg16
F80.0
sg17
VRoma
p1852
sg19
g20
sg21
g22
sg23
g24
sg25
Nsg26
g27
sg28
g1845
sg29
Nsg30
g10
sg31
VOrigin Energy
p1853
sg33
I2012
sg34
g2
(g35
g4
Ntp1854
Rp1855
(dp1856
g39
F-26.577200999999945
sg40
g27
sg41
F148.8401990000001
sbsbsVAUS0000269
p1857
g2
(g3
g4
Ntp1858
Rp1859
(dp1860
g8
Nsg9
g10
sg11
g12
((lp1861
tp1862
Rp1863
sg16
F5.4
sg17
VBrown Mountain
p1864
sg19
g62
sg21
g22
sg23
g24
sg25
Nsg26
g27
sg28
g1857
sg29
Nsg30
g10
sg31
VEraring Energy
p1865
sg33
I2012
sg34
g2
(g35
g4
Ntp1866
Rp1867
(dp1868
g39
F-36.595144999999945
sg40
g27
sg41
F149.47410700000012
sbsbsVAUS0000141
p1869
g2
(g3
g4
Ntp1870
Rp1871
(dp1872
g8
Nsg9
g10
sg11
g12
((lp1873
tp1874
Rp1875
sg16
F238.0
sg17
VReece
p1876
sg19
g62
sg21
g22
sg23
g24
sg25
Nsg26
g27
sg28
g1869
sg29
Nsg30
g10
sg31
VHydro-Electric Corporation (Tasmania)
p1877
sg33
I2012
sg34
g2
(g35
g4
Ntp1878
Rp1879
(dp1880
g39
F-41.723769999999945
sg40
g27
sg41
F145.1359480000001
sbsbsVAUS0000142
p1881
g2
(g3
g4
Ntp1882
Rp1883
(dp1884
g8
Nsg9
g10
sg11
g12
((lp1885
tp1886
Rp1887
sg16
F81.0
sg17
VMackintosh
p1888
sg19
g62
sg21
g22
sg23
g24
sg25
Nsg26
g27
sg28
g1881
sg29
Nsg30
g10
sg31
VHydro-Electric Corporation (Tasmania)
p1889
sg33
I2012
sg34
g2
(g35
g4
Ntp1890
Rp1891
(dp1892
g39
F-41.69974999999994
sg40
g27
sg41
F145.6461190000001
sbsbsVAUS0000143
p1893
g2
(g3
g4
Ntp1894
Rp1895
(dp1896
g8
Nsg9
g10
sg11
g12
((lp1897
tp1898
Rp1899
sg16
F432.0
sg17
VGordon
p1900
sg19
g62
sg21
g22
sg23
g24
sg25
Nsg26
g27
sg28
g1893
sg29
Nsg30
g10
sg31
VHydro-Electric Corporation (Tasmania)
p1901
sg33
I2012
sg34
g2
(g35
g4
Ntp1902
Rp1903
(dp1904
g39
F-42.73864199999997
sg40
g27
sg41
F145.98116500000003
sbsbsVAUS0000176
p1905
g2
(g3
g4
Ntp1906
Rp1907
(dp1908
g8
Nsg9
g10
sg11
g12
((lp1909
tp1910
Rp1911
sg16
F900.0
sg17
VCallide C
p1912
sg19
g75
sg21
g22
sg23
g24
sg25
Nsg26
g27
sg28
g1905
sg29
Nsg30
g10
sg31
VCS Energy
p1913
sg33
I2012
sg34
g2
(g35
g4
Ntp1914
Rp1915
(dp1916
g39
F-24.344945999999936
sg40
g27
sg41
F150.61818100000005
sbsbsVAUS0000319
p1917
g2
(g3
g4
Ntp1918
Rp1919
(dp1920
g8
Nsg9
g10
sg11
g12
((lp1921
tp1922
Rp1923
sg16
F0.8
sg17
VUniversity of New South Wales
p1924
sg19
g20
sg21
g22
sg23
g24
sg25
Nsg26
g27
sg28
g1917
sg29
Nsg30
g10
sg31
VCogent Energy
p1925
sg33
I2012
sg34
g2
(g35
g4
Ntp1926
Rp1927
(dp1928
g39
F-33.916704281999955
sg40
g27
sg41
F151.23535272300012
sbsbsVAUS0000318
p1929
g2
(g3
g4
Ntp1930
Rp1931
(dp1932
g8
Nsg9
g10
sg11
g12
((lp1933
tp1934
Rp1935
sg16
F1.5
sg17
VSt George Leagues Club
p1936
sg19
g209
sg21
g22
sg23
g24
sg25
Nsg26
g27
sg28
g1929
sg29
Nsg30
g10
sg31
VSt George Leagues Club
p1937
sg33
I2012
sg34
g2
(g35
g4
Ntp1938
Rp1939
(dp1940
g39
F-33.97481738299996
sg40
g27
sg41
F151.1293810090001
sbsbsVAUS0000177
p1941
g2
(g3
g4
Ntp1942
Rp1943
(dp1944
g8
Nsg9
g10
sg11
g12
((lp1945
tp1946
Rp1947
sg16
F700.0
sg17
VCallide B
p1948
sg19
g75
sg21
g22
sg23
g24
sg25
Nsg26
g27
sg28
g1941
sg29
Nsg30
g10
sg31
VCS Energy
p1949
sg33
I2012
sg34
g2
(g35
g4
Ntp1950
Rp1951
(dp1952
g39
F-24.344879999999932
sg40
g27
sg41
F150.61974900000007
sbsbsVAUS0000311
p1953
g2
(g3
g4
Ntp1954
Rp1955
(dp1956
g8
Nsg9
g10
sg11
g12
((lp1957
tp1958
Rp1959
sg16
F17.0
sg17
VProserpine Sugar Mill
p1960
sg19
g306
sg21
g22
sg23
g24
sg25
Nsg26
g27
sg28
g1953
sg29
Nsg30
g10
sg31
VSucrogen
p1961
sg33
I2012
sg34
g2
(g35
g4
Ntp1962
Rp1963
(dp1964
g39
F-20.398544758999947
sg40
g27
sg41
F148.57971634900002
sbsbsVAUS0000310
p1965
g2
(g3
g4
Ntp1966
Rp1967
(dp1968
g8
Nsg9
g10
sg11
g12
((lp1969
tp1970
Rp1971
sg16
F21.4
sg17
VTully Sugar Mill
p1972
sg19
g306
sg21
g22
sg23
g24
sg25
Nsg26
g27
sg28
g1965
sg29
Nsg30
g10
sg31
VCOFCO
p1973
sg33
I2012
sg34
g2
(g35
g4
Ntp1974
Rp1975
(dp1976
g39
F-17.937317647999976
sg40
g27
sg41
F145.92665248700007
sbsbsVAUS0000313
p1977
g2
(g3
g4
Ntp1978
Rp1979
(dp1980
g8
Nsg9
g10
sg11
g12
((lp1981
tp1982
Rp1983
sg16
F0.8
sg17
VSydney
p1984
sg19
g20
sg21
g22
sg23
g24
sg25
Nsg26
g27
sg28
g1977
sg29
Nsg30
g10
sg31
VCogent Energy
p1985
sg33
I2012
sg34
g2
(g35
g4
Ntp1986
Rp1987
(dp1988
g39
F-33.87154700199994
sg40
g27
sg41
F151.20910002800008
sbsbsVAUS0000312
p1989
g2
(g3
g4
Ntp1990
Rp1991
(dp1992
g8
Nsg9
g10
sg11
g12
((lp1993
tp1994
Rp1995
sg16
F0.8
sg17
VNorth Sydney
p1996
sg19
g20
sg21
g22
sg23
g24
sg25
Nsg26
g27
sg28
g1989
sg29
Nsg30
g10
sg31
VCogent Energy
p1997
sg33
I2012
sg34
g2
(g35
g4
Ntp1998
Rp1999
(dp2000
g39
F-33.83838156099995
sg40
g27
sg41
F151.20539424000003
sbsbsVAUS0000315
p2001
g2
(g3
g4
Ntp2002
Rp2003
(dp2004
g8
Nsg9
g10
sg11
g12
((lp2005
tp2006
Rp2007
sg16
F0.8
sg17
VBlackmores
p2008
sg19
g20
sg21
g22
sg23
g24
sg25
Nsg26
g27
sg28
g2001
sg29
Nsg30
g10
sg31
VCogent Energy
p2009
sg33
I2012
sg34
g2
(g35
g4
Ntp2010
Rp2011
(dp2012
g39
F-33.67777002999998
sg40
g27
sg41
F151.29080465200002
sbsbsVAUS0000314
p2013
g2
(g3
g4
Ntp2014
Rp2015
(dp2016
g8
Nsg9
g10
sg11
g12
((lp2017
tp2018
Rp2019
sg16
F2.4
sg17
VNorth Sydney
p2020
sg19
g20
sg21
g22
sg23
g24
sg25
Nsg26
g27
sg28
g2013
sg29
Nsg30
g10
sg31
VCogent Energy
p2021
sg33
I2012
sg34
g2
(g35
g4
Ntp2022
Rp2023
(dp2024
g39
F-33.83981188699994
sg40
g27
sg41
F151.20692819700002
sbsbsVAUS0000317
p2025
g2
(g3
g4
Ntp2026
Rp2027
(dp2028
g8
Nsg9
g10
sg11
g12
((lp2029
tp2030
Rp2031
sg16
F2.5
sg17
VRevesby Workers Club
p2032
sg19
g209
sg21
g22
sg23
g24
sg25
Nsg26
g27
sg28
g2025
sg29
Nsg30
g10
sg31
VRevesby Workers Club
p2033
sg33
I2012
sg34
g2
(g35
g4
Ntp2034
Rp2035
(dp2036
g39
F-33.95343975199995
sg40
g27
sg41
F151.013733214
sbsbsVAUS0000316
p2037
g2
(g3
g4
Ntp2038
Rp2039
(dp2040
g8
Nsg9
g10
sg11
g12
((lp2041
tp2042
Rp2043
sg16
F3.2
sg17
VNine Network
p2044
sg19
g209
sg21
g22
sg23
g24
sg25
Nsg26
g27
sg28
g2037
sg29
Nsg30
g10
sg31
VNine Network
p2045
sg33
I2012
sg34
g2
(g35
g4
Ntp2046
Rp2047
(dp2048
g39
F-33.81096412699998
sg40
g27
sg41
F151.1966227370001
sbsbsVAUS0000089
p2049
g2
(g3
g4
Ntp2050
Rp2051
(dp2052
g8
Nsg9
g10
sg11
g12
((lp2053
tp2054
Rp2055
sg16
F228.0
sg17
VJeeralang B
p2056
sg19
g20
sg21
g22
sg23
g24
sg25
Nsg26
g27
sg28
g2049
sg29
Nsg30
g10
sg31
VIndustry Funds Management Nominees Ltd
p2057
sg33
I2012
sg34
g2
(g35
g4
Ntp2058
Rp2059
(dp2060
g39
F-38.274625999999955
sg40
g27
sg41
F146.42492300000004
sbsbsVAUS0000127
p2061
g2
(g3
g4
Ntp2062
Rp2063
(dp2064
g8
Nsg9
g10
sg11
g12
((lp2065
tp2066
Rp2067
sg16
F12.2
sg17
VButlers Gorge
p2068
sg19
g62
sg21
g22
sg23
g24
sg25
Nsg26
g27
sg28
g2061
sg29
Nsg30
g10
sg31
VHydro-Electric Corporation (Tasmania)
p2069
sg33
I2012
sg34
g2
(g35
g4
Ntp2070
Rp2071
(dp2072
g39
F-42.26689799999997
sg40
g27
sg41
F146.2617580000001
sbsbsVAUS0000034
p2073
g2
(g3
g4
Ntp2074
Rp2075
(dp2076
g8
Nsg9
g10
sg11
g12
((lp2077
tp2078
Rp2079
sg16
F3.5
sg17
VMugga Lane
p2080
sg19
g246
sg21
g22
sg23
g24
sg25
Nsg26
g27
sg28
g2073
sg29
Nsg30
g10
sg31
VEnergy Developments LFG (ACT) Pty Ltd
p2081
sg33
I2012
sg34
g2
(g35
g4
Ntp2082
Rp2083
(dp2084
g39
F-35.39530399999995
sg40
g27
sg41
F149.14582000000007
sbsbsVAUS0000035
p2085
g2
(g3
g4
Ntp2086
Rp2087
(dp2088
g8
Nsg9
g10
sg11
g12
((lp2089
tp2090
Rp2091
sg16
F4.12
sg17
VLucas Heights III
p2092
sg19
g246
sg21
g22
sg23
g24
sg25
Nsg26
g27
sg28
g2085
sg29
Nsg30
g10
sg31
VEnergy Developments LFG (NSW) Pty Ltd
p2093
sg33
I2012
sg34
g2
(g35
g4
Ntp2094
Rp2095
(dp2096
g39
F-34.048145999999974
sg40
g27
sg41
F150.97388200000012
sbsbsVAUS0000036
p2097
g2
(g3
g4
Ntp2098
Rp2099
(dp2100
g8
Nsg9
g10
sg11
g12
((lp2101
tp2102
Rp2103
sg16
F11.33
sg17
VLucas Heights II
p2104
sg19
g246
sg21
g22
sg23
g24
sg25
Nsg26
g27
sg28
g2097
sg29
Nsg30
g10
sg31
VEnergy Developments LFG (NSW) Pty Ltd
p2105
sg33
I2012
sg34
g2
(g35
g4
Ntp2106
Rp2107
(dp2108
g39
F-34.048145999999974
sg40
g27
sg41
F150.97388200000012
sbsbsVAUS0000037
p2109
g2
(g3
g4
Ntp2110
Rp2111
(dp2112
g8
Nsg9
g10
sg11
g12
((lp2113
tp2114
Rp2115
sg16
F5.39
sg17
VLucas Heights I
p2116
sg19
g246
sg21
g22
sg23
g24
sg25
Nsg26
g27
sg28
g2109
sg29
Nsg30
g10
sg31
VEnergy Developments LFG (NSW) Pty Ltd
p2117
sg33
I2012
sg34
g2
(g35
g4
Ntp2118
Rp2119
(dp2120
g39
F-34.02930199999997
sg40
g27
sg41
F151.0020720000001
sbsbsVAUS0000030
p2121
g2
(g3
g4
Ntp2122
Rp2123
(dp2124
g8
Nsg9
g10
sg11
g12
((lp2125
tp2126
Rp2127
sg16
F1.0
sg17
VWest Nowra (Shoalhaven)
p2128
sg19
g246
sg21
g22
sg23
g24
sg25
Nsg26
g27
sg28
g2121
sg29
Nsg30
g10
sg31
VAGL Energy Pty Ltd
p2129
sg33
I2012
sg34
g2
(g35
g4
Ntp2130
Rp2131
(dp2132
g39
F-34.88197799999995
sg40
g27
sg41
F150.55148500000007
sbsbsVAUS0000031
p2133
g2
(g3
g4
Ntp2134
Rp2135
(dp2136
g8
Nsg9
g10
sg11
g12
((lp2137
tp2138
Rp2139
sg16
F1500.0
sg17
VTumut 3
p2140
sg19
g62
sg21
g22
sg23
g24
sg25
Nsg26
g27
sg28
g2133
sg29
Nsg30
g10
sg31
VSnowy Hydro Ltd
p2141
sg33
I2012
sg34
g2
(g35
g4
Ntp2142
Rp2143
(dp2144
g39
F-35.61121799999995
sg40
g27
sg41
F148.29168500000003
sbsbsVAUS0000032
p2145
g2
(g3
g4
Ntp2146
Rp2147
(dp2148
g8
Nsg9
g10
sg11
g12
((lp2149
tp2150
Rp2151
sg16
F95.8
sg17
VTrevallyn
p2152
sg19
g62
sg21
g22
sg23
g24
sg25
Nsg26
g27
sg28
g2145
sg29
Nsg30
g10
sg31
VHydro-Electric Corporation (Tasmania)
p2153
sg33
I2012
sg34
g2
(g35
g4
Ntp2154
Rp2155
(dp2156
g39
F-41.423141999999984
sg40
g27
sg41
F147.11283000000003
sbsbsVAUS0000033
p2157
g2
(g3
g4
Ntp2158
Rp2159
(dp2160
g8
Nsg9
g10
sg11
g12
((lp2161
tp2162
Rp2163
sg16
F2.2
sg17
VSummerhill
p2164
sg19
g246
sg21
g22
sg23
g24
sg25
Nsg26
g27
sg28
g2157
sg29
Nsg30
g10
sg31
VLMS Energy Generation Pty Ltd
p2165
sg33
I2012
sg34
g2
(g35
g4
Ntp2166
Rp2167
(dp2168
g39
F-32.88853299999994
sg40
g27
sg41
F151.64295400000003
sbsbsVAUS0000118
p2169
g2
(g3
g4
Ntp2170
Rp2171
(dp2172
g8
Nsg9
g10
sg11
g12
((lp2173
tp2174
Rp2175
sg16
F1.7
sg17
VTods Corner
p2176
sg19
g62
sg21
g22
sg23
g24
sg25
Nsg26
g27
sg28
g2169
sg29
Nsg30
g10
sg31
VHydro-Electric Corporation (Tasmania)
p2177
sg33
I2012
sg34
g2
(g35
g4
Ntp2178
Rp2179
(dp2180
g39
F-41.97073199999994
sg40
g27
sg41
F146.79378500000007
sbsbsVAUS0000038
p2181
g2
(g3
g4
Ntp2182
Rp2183
(dp2184
g8
Nsg9
g10
sg11
g12
((lp2185
tp2186
Rp2187
sg16
F14.4
sg17
VJounama
p2188
sg19
g62
sg21
g22
sg23
g24
sg25
Nsg26
g27
sg28
g2181
sg29
Nsg30
g10
sg31
VSnowy Hydro Ltd
p2189
sg33
I2012
sg34
g2
(g35
g4
Ntp2190
Rp2191
(dp2192
g39
F-35.56196499999993
sg40
g27
sg41
F148.305517
sbsbsVAUS0000039
p2193
g2
(g3
g4
Ntp2194
Rp2195
(dp2196
g8
Nsg9
g10
sg11
g12
((lp2197
tp2198
Rp2199
sg16
F2.3
sg17
VJacks Gully
p2200
sg19
g246
sg21
g22
sg23
g24
sg25
Nsg26
g27
sg28
g2193
sg29
Nsg30
g10
sg31
VEnergy Developments LFG (NSW) Pty Ltd
p2201
sg33
I2012
sg34
g2
(g35
g4
Ntp2202
Rp2203
(dp2204
g39
F-34.07343999999995
sg40
g27
sg41
F150.74268900000004
sbsbsVAUS0000128
p2205
g2
(g3
g4
Ntp2206
Rp2207
(dp2208
g8
Nsg9
g10
sg11
g12
((lp2209
tp2210
Rp2211
sg16
F84.0
sg17
VTribute
p2212
sg19
g62
sg21
g22
sg23
g24
sg25
Nsg26
g27
sg28
g2205
sg29
Nsg30
g10
sg31
VHydro-Electric Corporation (Tasmania)
p2213
sg33
I2012
sg34
g2
(g35
g4
Ntp2214
Rp2215
(dp2216
g39
F-41.811804999999936
sg40
g27
sg41
F145.65356700000007
sbsbsVAUS0000129
p2217
g2
(g3
g4
Ntp2218
Rp2219
(dp2220
g8
Nsg9
g10
sg11
g12
((lp2221
tp2222
Rp2223
sg16
F10.5
sg17
VRowallan
p2224
sg19
g62
sg21
g22
sg23
g24
sg25
Nsg26
g27
sg28
g2217
sg29
Nsg30
g10
sg31
VHydro-Electric Corporation (Tasmania)
p2225
sg33
I2012
sg34
g2
(g35
g4
Ntp2226
Rp2227
(dp2228
g39
F-41.72952299999997
sg40
g27
sg41
F146.21759300000008
sbsbsVAUS0000113
p2229
g2
(g3
g4
Ntp2230
Rp2231
(dp2232
g8
Nsg9
g10
sg11
g12
((lp2233
tp2234
Rp2235
sg16
F2.0
sg17
VBallarat Base Hospital
p2236
sg19
g20
sg21
g22
sg23
g24
sg25
Nsg26
g27
sg28
g2229
sg29
Nsg30
g10
sg31
VBallarat Base Hospital
p2237
sg33
I2012
sg34
g2
(g35
g4
Ntp2238
Rp2239
(dp2240
g39
F-37.55960699999997
sg40
g27
sg41
F143.84691800000007
sbsbsVAUS0000112
p2241
g2
(g3
g4
Ntp2242
Rp2243
(dp2244
g8
Nsg9
g10
sg11
g12
((lp2245
tp2246
Rp2247
sg16
F22.0
sg17
VCape Nelson North Wind Farm
p2248
sg19
g184
sg21
g22
sg23
g24
sg25
Nsg26
g27
sg28
g2241
sg29
Nsg30
g10
sg31
VPacific Hydro Pty Ltd
p2249
sg33
I2012
sg34
g2
(g35
g4
Ntp2250
Rp2251
(dp2252
g39
F-38.367636999999945
sg40
g27
sg41
F141.5429590000001
sbsbsVAUS0000108
p2253
g2
(g3
g4
Ntp2254
Rp2255
(dp2256
g8
Nsg9
g10
sg11
g12
((lp2257
tp2258
Rp2259
sg16
F566.0
sg17
VMortlake
p2260
sg19
g20
sg21
g22
sg23
g24
sg25
Nsg26
g27
sg28
g2253
sg29
Nsg30
g10
sg31
VOrigin Energy
p2261
sg33
I2012
sg34
g2
(g35
g4
Ntp2262
Rp2263
(dp2264
g39
F-38.063169321999965
sg40
g27
sg41
F142.6674789110001
sbsbsVAUS0000109
p2265
g2
(g3
g4
Ntp2266
Rp2267
(dp2268
g8
Nsg9
g10
sg11
g12
((lp2269
tp2270
Rp2271
sg16
F185.0
sg17
VDartmouth (Mount Beauty Hydro Scheme)
p2272
sg19
g62
sg21
g22
sg23
g24
sg25
Nsg26
g27
sg28
g2265
sg29
Nsg30
g10
sg31
VAGL Energy Pty Ltd
p2273
sg33
I2012
sg34
g2
(g35
g4
Ntp2274
Rp2275
(dp2276
g39
F-36.55642899999998
sg40
g27
sg41
F147.5205800000001
sbsbsVAUS0000100
p2277
g2
(g3
g4
Ntp2278
Rp2279
(dp2280
g8
Nsg9
g10
sg11
g12
((lp2281
tp2282
Rp2283
sg16
F1480.0
sg17
VYallourn
p2284
sg19
g75
sg21
g22
sg23
g24
sg25
Nsg26
g27
sg28
g2277
sg29
Nsg30
g10
sg31
VTRUenergy
p2285
sg33
I2012
sg34
g2
(g35
g4
Ntp2286
Rp2287
(dp2288
g39
F-38.17701499999998
sg40
g27
sg41
F146.34278300000005
sbsbsVAUS0000101
p2289
g2
(g3
g4
Ntp2290
Rp2291
(dp2292
g8
Nsg9
g10
sg11
g12
((lp2293
tp2294
Rp2295
sg16
F9.5
sg17
VYarrawonga
p2296
sg19
g62
sg21
g22
sg23
g24
sg25
Nsg26
g27
sg28
g2289
sg29
Nsg30
g10
sg31
VAGL Energy Pty Ltd
p2297
sg33
I2012
sg34
g2
(g35
g4
Ntp2298
Rp2299
(dp2300
g39
F-36.009387999999944
sg40
g27
sg41
F145.9994660000001
sbsbsVAUS0000102
p2301
g2
(g3
g4
Ntp2302
Rp2303
(dp2304
g8
Nsg9
g10
sg11
g12
((lp2305
tp2306
Rp2307
sg16
F140.0
sg17
VBogong (Mount Beauty Hydro Scheme)
p2308
sg19
g62
sg21
g22
sg23
g24
sg25
Nsg26
g27
sg28
g2301
sg29
Nsg30
g10
sg31
VAGL Energy Pty Ltd
p2309
sg33
I2012
sg34
g2
(g35
g4
Ntp2310
Rp2311
(dp2312
g39
F-36.80546099999998
sg40
g27
sg41
F147.2280340000001
sbsbsVAUS0000103
p2313
g2
(g3
g4
Ntp2314
Rp2315
(dp2316
g8
Nsg9
g10
sg11
g12
((lp2317
tp2318
Rp2319
sg16
F29.0
sg17
VClover
p2320
sg19
g62
sg21
g22
sg23
g24
sg25
Nsg26
g27
sg28
g2313
sg29
Nsg30
g10
sg31
VAGL Energy Pty Ltd
p2321
sg33
I2012
sg34
g2
(g35
g4
Ntp2322
Rp2323
(dp2324
g39
F-36.78528099999994
sg40
g27
sg41
F147.2204660000001
sbsbsVAUS0000104
p2325
g2
(g3
g4
Ntp2326
Rp2327
(dp2328
g8
Nsg9
g10
sg11
g12
((lp2329
tp2330
Rp2331
sg16
F150.0
sg17
VMcKay Creek (Mount Beauty Hydro Scheme)
p2332
sg19
g62
sg21
g22
sg23
g24
sg25
Nsg26
g27
sg28
g2325
sg29
Nsg30
g10
sg31
VAGL Energy Pty Ltd
p2333
sg33
I2012
sg34
g2
(g35
g4
Ntp2334
Rp2335
(dp2336
g39
F-36.858393999999976
sg40
g27
sg41
F147.23454200000003
sbsbsVAUS0000105
p2337
g2
(g3
g4
Ntp2338
Rp2339
(dp2340
g8
Nsg9
g10
sg11
g12
((lp2341
tp2342
Rp2343
sg16
F60.0
sg17
VWest Kiewa (Mount Beauty Hydro Scheme)
p2344
sg19
g62
sg21
g22
sg23
g24
sg25
Nsg26
g27
sg28
g2337
sg29
Nsg30
g10
sg31
VAGL Energy Pty Ltd
p2345
sg33
I2012
sg34
g2
(g35
g4
Ntp2346
Rp2347
(dp2348
g39
F-36.76006599999994
sg40
g27
sg41
F147.18604800000003
sbsbsVAUS0000106
p2349
g2
(g3
g4
Ntp2350
Rp2351
(dp2352
g8
Nsg9
g10
sg11
g12
((lp2353
tp2354
Rp2355
sg16
F552.0
sg17
VMurray 2
p2356
sg19
g62
sg21
g22
sg23
g24
sg25
Nsg26
g27
sg28
g2349
sg29
Nsg30
g10
sg31
VSnowy Hydro Ltd
p2357
sg33
I2012
sg34
g2
(g35
g4
Ntp2358
Rp2359
(dp2360
g39
F-36.242343999999946
sg40
g27
sg41
F148.13624700000003
sbsbsVAUS0000107
p2361
g2
(g3
g4
Ntp2362
Rp2363
(dp2364
g8
Nsg9
g10
sg11
g12
((lp2365
tp2366
Rp2367
sg16
F950.0
sg17
VMurray 1
p2368
sg19
g62
sg21
g22
sg23
g24
sg25
Nsg26
g27
sg28
g2361
sg29
Nsg30
g10
sg31
VSnowy Hydro Ltd
p2369
sg33
I2012
sg34
g2
(g35
g4
Ntp2370
Rp2371
(dp2372
g39
F-36.24671299999994
sg40
g27
sg41
F148.19009500000004
sbsbsVAUS0000463
p2373
g2
(g3
g4
Ntp2374
Rp2375
(dp2376
g8
Nsg9
g10
sg11
g12
((lp2377
tp2378
Rp2379
sg16
F0.01
sg17
VErnabella
p2380
sg19
g209
sg21
g22
sg23
g24
sg25
Nsg26
g27
sg28
g2373
sg29
Nsg30
g10
sg31
VAnanga Pitjantjatjara Council
p2381
sg33
I2012
sg34
g2
(g35
g4
Ntp2382
Rp2383
(dp2384
g39
F-26.277960621999966
sg40
g27
sg41
F132.1313709970001
sbsbsVAUS0000462
p2385
g2
(g3
g4
Ntp2386
Rp2387
(dp2388
g8
Nsg9
g10
sg11
g12
((lp2389
tp2390
Rp2391
sg16
F120.0
sg17
VCape Lambert
p2392
sg19
g20
sg21
g22
sg23
g24
sg25
Nsg26
g27
sg28
g2385
sg29
Nsg30
g10
sg31
VRio Tinto Australia Pty Ltd
p2393
sg33
I2014
sg34
g2
(g35
g4
Ntp2394
Rp2395
(dp2396
g39
F-20.648770635999938
sg40
g27
sg41
F117.14073131500004
sbsbsVAUS0000461
p2397
g2
(g3
g4
Ntp2398
Rp2399
(dp2400
g8
Nsg9
g10
sg11
g12
((lp2401
tp2402
Rp2403
sg16
F33.0
sg17
VBulwer Island
p2404
sg19
g20
sg21
g22
sg23
g24
sg25
Nsg26
g27
sg28
g2397
sg29
Nsg30
g10
sg31
VATCO and Origin Energy
p2405
sg33
Nsg34
g2
(g35
g4
Ntp2406
Rp2407
(dp2408
g39
F-27.40357955299993
sg40
g27
sg41
F153.13628579200008
sbsbsVAUS0000460
p2409
g2
(g3
g4
Ntp2410
Rp2411
(dp2412
g8
Nsg9
g10
sg11
g12
((lp2413
tp2414
Rp2415
sg16
F60.0
sg17
VLeichhardt
p2416
sg19
g20
sg21
g22
sg23
g24
sg25
Nsg26
g27
sg28
g2409
sg29
Nsg30
g10
sg31
VAPA Group and AGL Energy Ltd
p2417
sg33
Nsg34
g2
(g35
g4
Ntp2418
Rp2419
(dp2420
g39
F-20.783335197999975
sg40
g27
sg41
F139.48622070400006
sbsbsVAUS0000467
p2421
g2
(g3
g4
Ntp2422
Rp2423
(dp2424
g8
Nsg9
g10
sg11
g12
((lp2425
tp2426
Rp2427
sg16
F0.13
sg17
VWindorah
p2428
sg19
g967
sg21
g22
sg23
g24
sg25
Nsg26
g27
sg28
g2421
sg29
Nsg30
g10
sg31
VErgon Energy
p2429
sg33
I2014
sg34
g2
(g35
g4
Ntp2430
Rp2431
(dp2432
g39
F-25.412664425999935
sg40
g27
sg41
F142.66076150300012
sbsbsVAUS0000466
p2433
g2
(g3
g4
Ntp2434
Rp2435
(dp2436
g8
Nsg9
g10
sg11
g12
((lp2437
tp2438
Rp2439
sg16
F0.29
sg17
VLajamanu
p2440
sg19
g967
sg21
g22
sg23
g24
sg25
Nsg26
g27
sg28
g2433
sg29
Nsg30
g10
sg31
VPower and Water Corporation
p2441
sg33
I2014
sg34
g2
(g35
g4
Ntp2442
Rp2443
(dp2444
g39
F-18.32650366699994
sg40
g27
sg41
F130.62948965300006
sbsbsVAUS0000465
p2445
g2
(g3
g4
Ntp2446
Rp2447
(dp2448
g8
Nsg9
g10
sg11
g12
((lp2449
tp2450
Rp2451
sg16
F0.24
sg17
VYuendumu
p2452
sg19
g967
sg21
g22
sg23
g24
sg25
Nsg26
g27
sg28
g2445
sg29
Nsg30
g10
sg31
VPower and Water Corporation
p2453
sg33
I2014
sg34
g2
(g35
g4
Ntp2454
Rp2455
(dp2456
g39
F-22.242590623999945
sg40
g27
sg41
F131.79314572300007
sbsbsVAUS0000464
p2457
g2
(g3
g4
Ntp2458
Rp2459
(dp2460
g8
Nsg9
g10
sg11
g12
((lp2461
tp2462
Rp2463
sg16
F0.35
sg17
VUmuwa
p2464
sg19
g967
sg21
g22
sg23
g24
sg25
Nsg26
g27
sg28
g2457
sg29
Nsg30
g10
sg31
VSilex Systems
p2465
sg33
I2012
sg34
g2
(g35
g4
Ntp2466
Rp2467
(dp2468
g39
F-26.47355590099994
sg40
g27
sg41
F132.01465681700006
sbsbsVAUS0000469
p2469
g2
(g3
g4
Ntp2470
Rp2471
(dp2472
g8
Nsg9
g10
sg11
g12
((lp2473
tp2474
Rp2475
sg16
F0.24
sg17
VAlice Springs Airport
p2476
sg19
g967
sg21
g22
sg23
g24
sg25
Nsg26
g27
sg28
g2469
sg29
Nsg30
g10
sg31
VAlice Springs Airport
p2477
sg33
I2014
sg34
g2
(g35
g4
Ntp2478
Rp2479
(dp2480
g39
F-23.796569829999953
sg40
g27
sg41
F133.89712081200003
sbsbsVAUS0000468
p2481
g2
(g3
g4
Ntp2482
Rp2483
(dp2484
g8
Nsg9
g10
sg11
g12
((lp2485
tp2486
Rp2487
sg16
F0.3
sg17
VDoubleTree by Hilton Hotel
p2488
sg19
g967
sg21
g22
sg23
g24
sg25
Nsg26
g27
sg28
g2481
sg29
Nsg30
g10
sg31
VDoubleTree by Hilton Hotel (was Alice Springs Crowne Plaza)
p2489
sg33
I2014
sg34
g2
(g35
g4
Ntp2490
Rp2491
(dp2492
g39
F-23.714967607999938
sg40
g27
sg41
F133.87945391000005
sbsbsVAUS0000355
p2493
g2
(g3
g4
Ntp2494
Rp2495
(dp2496
g8
Nsg9
g10
sg11
g12
((lp2497
tp2498
Rp2499
sg16
F3.2
sg17
VHenderson
p2500
sg19
g246
sg21
g22
sg23
g24
sg25
Nsg26
g27
sg28
g2493
sg29
Nsg30
g10
sg31
VWaste Gas Resources
p2501
sg33
I2012
sg34
g2
(g35
g4
Ntp2502
Rp2503
(dp2504
g39
F-32.16502101899994
sg40
g27
sg41
F115.80080012300004
sbsbsVAUS0000354
p2505
g2
(g3
g4
Ntp2506
Rp2507
(dp2508
g8
Nsg9
g10
sg11
g12
((lp2509
tp2510
Rp2511
sg16
F1.8
sg17
VWoodman Point
p2512
sg19
g246
sg21
g22
sg23
g24
sg25
Nsg26
g27
sg28
g2505
sg29
Nsg30
g10
sg31
VWater Corporation
p2513
sg33
I2012
sg34
g2
(g35
g4
Ntp2514
Rp2515
(dp2516
g39
F-32.14241985999996
sg40
g27
sg41
F115.77130495800009
sbsbsVAUS0000357
p2517
g2
(g3
g4
Ntp2518
Rp2519
(dp2520
g8
Nsg9
g10
sg11
g12
((lp2521
tp2522
Rp2523
sg16
F1.3
sg17
VMandurah
p2524
sg19
g246
sg21
g22
sg23
g24
sg25
Nsg26
g27
sg28
g2517
sg29
Nsg30
g10
sg31
g27
sg33
I2012
sg34
g2
(g35
g4
Ntp2525
Rp2526
(dp2527
g39
F-32.50791826999995
sg40
g27
sg41
F115.75895724000009
sbsbsVAUS0000356
p2528
g2
(g3
g4
Ntp2529
Rp2530
(dp2531
g8
Nsg9
g10
sg11
g12
((lp2532
tp2533
Rp2534
sg16
F4.65
sg17
VTamala Park
p2535
sg19
g246
sg21
g22
sg23
g24
sg25
Nsg26
g27
sg28
g2528
sg29
Nsg30
g10
sg31
VLandfill Gas and Power Pty Ltd
p2536
sg33
I2012
sg34
g2
(g35
g4
Ntp2537
Rp2538
(dp2539
g39
F-31.707786128999942
sg40
g27
sg41
F115.72664485300004
sbsbsVAUS0000218
p2540
g2
(g3
g4
Ntp2541
Rp2542
(dp2543
g8
Nsg9
g10
sg11
g12
((lp2544
tp2545
Rp2546
sg16
F180.0
sg17
VYurralyi Maya (Karratha Seven Mile)
p2547
sg19
g20
sg21
g22
sg23
g24
sg25
Nsg26
g27
sg28
g2540
sg29
Nsg30
g10
sg31
VRio Tinto Australia Pty Ltd
p2548
sg33
I2012
sg34
g2
(g35
g4
Ntp2549
Rp2550
(dp2551
g39
F-20.761999999999944
sg40
g27
sg41
F116.74200000000008
sbsbsVAUS0000219
p2552
g2
(g3
g4
Ntp2553
Rp2554
(dp2555
g8
Nsg9
g10
sg11
g12
((lp2556
tp2557
Rp2558
sg16
F30.6
sg17
VLaverton (Granny Smith Gold Mine)
p2559
sg19
g209
sg21
g22
sg23
g24
sg25
Nsg26
g27
sg28
g2552
sg29
Nsg30
g10
sg31
VBarrick Gold of Australia
p2560
sg33
I2012
sg34
g2
(g35
g4
Ntp2561
Rp2562
(dp2563
g39
F-28.80964899999998
sg40
g27
sg41
F122.41502900000012
sbsbsVAUS0000353
p2564
g2
(g3
g4
Ntp2565
Rp2566
(dp2567
g8
Nsg9
g10
sg11
g12
((lp2568
tp2569
Rp2570
sg16
F1.6
sg17
VDenham Diesel Backup
p2571
sg19
g209
sg21
g22
sg23
g24
sg25
Nsg26
g27
sg28
g2564
sg29
Nsg30
g10
sg31
VVerve Energy
p2572
sg33
I2012
sg34
g2
(g35
g4
Ntp2573
Rp2574
(dp2575
g39
F-25.916724838999983
sg40
g27
sg41
F113.5339545280001
sbsbsVAUS0000352
p2576
g2
(g3
g4
Ntp2577
Rp2578
(dp2579
g8
Nsg9
g10
sg11
g12
((lp2580
tp2581
Rp2582
sg16
F0.92
sg17
VDenham Wind Turbines
p2583
sg19
g184
sg21
g22
sg23
g24
sg25
Nsg26
g27
sg28
g2576
sg29
Nsg30
g10
sg31
VVerve Energy
p2584
sg33
I2012
sg34
g2
(g35
g4
Ntp2585
Rp2586
(dp2587
g39
F-25.91152386799996
sg40
g27
sg41
F113.54931095000006
sbsbsVAUS0000214
p2588
g2
(g3
g4
Ntp2589
Rp2590
(dp2591
g8
Nsg9
g10
sg11
g12
((lp2592
tp2593
Rp2594
sg16
F400.0
sg17
VMuja C
p2595
sg19
g75
sg21
g22
sg23
g24
sg25
Nsg26
g27
sg28
g2588
sg29
Nsg30
g10
sg31
VVerve Energy
p2596
sg33
I2012
sg34
g2
(g35
g4
Ntp2597
Rp2598
(dp2599
g39
F-33.445810999999935
sg40
g27
sg41
F116.30601200000001
sbsbsVAUS0000215
p2600
g2
(g3
g4
Ntp2601
Rp2602
(dp2603
g8
Nsg9
g10
sg11
g12
((lp2604
tp2605
Rp2606
sg16
F454.0
sg17
VMuja D
p2607
sg19
g75
sg21
g22
sg23
g24
sg25
Nsg26
g27
sg28
g2600
sg29
Nsg30
g10
sg31
VVerve Energy
p2608
sg33
I2012
sg34
g2
(g35
g4
Ntp2609
Rp2610
(dp2611
g39
F-33.44615999999996
sg40
g27
sg41
F116.30721300000005
sbsbsVAUS0000216
p2612
g2
(g3
g4
Ntp2613
Rp2614
(dp2615
g8
Nsg9
g10
sg11
g12
((lp2616
tp2617
Rp2618
sg16
F112.0
sg17
VMungarra
p2619
sg19
g20
sg21
g22
sg23
g24
sg25
Nsg26
g27
sg28
g2612
sg29
Nsg30
g10
sg31
VVerve Energy
p2620
sg33
I2012
sg34
g2
(g35
g4
Ntp2621
Rp2622
(dp2623
g39
F-28.889321999999936
sg40
g27
sg41
F115.1179380000001
sbsbsVAUS0000217
p2624
g2
(g3
g4
Ntp2625
Rp2626
(dp2627
g8
Nsg9
g10
sg11
g12
((lp2628
tp2629
Rp2630
sg16
F106.0
sg17
VWorsley Cogeneration
p2631
sg19
g20
sg21
g22
sg23
g24
sg25
Nsg26
g27
sg28
g2624
sg29
Nsg30
g10
sg31
VWorsley Alumina Pty Ltd
p2632
sg33
I2012
sg34
g2
(g35
g4
Ntp2633
Rp2634
(dp2635
g39
F-33.23654589699993
sg40
g27
sg41
F116.06373772800009
sbsbsVAUS0000210
p2636
g2
(g3
g4
Ntp2637
Rp2638
(dp2639
g8
Nsg9
g10
sg11
g12
((lp2640
tp2641
Rp2642
sg16
F42.0
sg17
VKambalda
p2643
sg19
g20
sg21
g22
sg23
g24
sg25
Nsg26
g27
sg28
g2636
sg29
Nsg30
g10
sg31
VSouthern Cross Energy
p2644
sg33
I2012
sg34
g2
(g35
g4
Ntp2645
Rp2646
(dp2647
g39
F-31.191934793999962
sg40
g27
sg41
F121.67408425000008
sbsbsVAUS0000211
p2648
g2
(g3
g4
Ntp2649
Rp2650
(dp2651
g8
Nsg9
g10
sg11
g12
((lp2652
tp2653
Rp2654
sg16
F310.0
sg17
VKemerton
p2655
sg19
g20
sg21
g22
sg23
g24
sg25
Nsg26
g27
sg28
g2648
sg29
Nsg30
g10
sg31
VTransfield Services Infrastructure Fund
p2656
sg33
I2012
sg34
g2
(g35
g4
Ntp2657
Rp2658
(dp2659
g39
F-33.16324999999995
sg40
g27
sg41
F115.78054000000009
sbsbsVAUS0000212
p2660
g2
(g3
g4
Ntp2661
Rp2662
(dp2663
g8
Nsg9
g10
sg11
g12
((lp2664
tp2665
Rp2666
sg16
F59.0
sg17
VLeinster Nickel Mine
p2667
sg19
g20
sg21
g22
sg23
g24
sg25
Nsg26
g27
sg28
g2660
sg29
Nsg30
g10
sg31
VSouthern Cross Energy
p2668
sg33
I2012
sg34
g2
(g35
g4
Ntp2669
Rp2670
(dp2671
g39
F-27.814121499999942
sg40
g27
sg41
F120.69899650000002
sbsbsVAUS0000213
p2672
g2
(g3
g4
Ntp2673
Rp2674
(dp2675
g8
Nsg9
g10
sg11
g12
((lp2676
tp2677
Rp2678
sg16
F112.0
sg17
VMount Keith Nickel Mine
p2679
sg19
g20
sg21
g22
sg23
g24
sg25
Nsg26
g27
sg28
g2672
sg29
Nsg30
g10
sg31
VSouthern Cross Energy
p2680
sg33
I2012
sg34
g2
(g35
g4
Ntp2681
Rp2682
(dp2683
g39
F-27.214582999999948
sg40
g27
sg41
F120.54797900000005
sbsbsVAUS0000070
p2684
g2
(g3
g4
Ntp2685
Rp2686
(dp2687
g8
Nsg9
g10
sg11
g12
((lp2688
tp2689
Rp2690
sg16
F3.3
sg17
VTi Tree Bioenergy
p2691
sg19
g246
sg21
g22
sg23
g24
sg25
Nsg26
g27
sg28
g2684
sg29
Nsg30
g10
sg31
VVeolia Environmental Services (Aust) Pty Ltd
p2692
sg33
I2012
sg34
g2
(g35
g4
Ntp2693
Rp2694
(dp2695
g39
F-27.680163999999934
sg40
g27
sg41
F152.65929500000004
sbsbsVAUS0000071
p2696
g2
(g3
g4
Ntp2697
Rp2698
(dp2699
g8
Nsg9
g10
sg11
g12
((lp2700
tp2701
Rp2702
sg16
F4.12
sg17
VSpringvale
p2703
sg19
g246
sg21
g22
sg23
g24
sg25
Nsg26
g27
sg28
g2696
sg29
Nsg30
g10
sg31
VEnergy Developments LFG (Victoria) Pty Ltd
p2704
sg33
I2012
sg34
g2
(g35
g4
Ntp2705
Rp2706
(dp2707
g39
F-37.973296999999945
sg40
g27
sg41
F145.1396350000001
sbsbsVAUS0000072
p2708
g2
(g3
g4
Ntp2709
Rp2710
(dp2711
g8
Nsg9
g10
sg11
g12
((lp2712
tp2713
Rp2714
sg16
F1.0
sg17
VRoghan Road
p2715
sg19
g246
sg21
g22
sg23
g24
sg25
Nsg26
g27
sg28
g2708
sg29
Nsg30
g10
sg31
VEnergy Developments LFG (Qld) Pty Ltd
p2716
sg33
I2012
sg34
g2
(g35
g4
Ntp2717
Rp2718
(dp2719
g39
F-27.33876799999996
sg40
g27
sg41
F153.03435000000002
sbsbsVAUS0000073
p2720
g2
(g3
g4
Ntp2721
Rp2722
(dp2723
g8
Nsg9
g10
sg11
g12
((lp2724
tp2725
Rp2726
sg16
F4.2
sg17
VRochedale
p2727
sg19
g246
sg21
g22
sg23
g24
sg25
Nsg26
g27
sg28
g2720
sg29
Nsg30
g10
sg31
VLMS Energy Generation Pty Ltd
p2728
sg33
I2012
sg34
g2
(g35
g4
Ntp2729
Rp2730
(dp2731
g39
F-27.559116999999958
sg40
g27
sg41
F153.12363400000004
sbsbsVAUS0000074
p2732
g2
(g3
g4
Ntp2733
Rp2734
(dp2735
g8
Nsg9
g10
sg11
g12
((lp2736
tp2737
Rp2738
sg16
F14.0
sg17
VPlane Creek Sugar Mill
p2739
sg19
g306
sg21
g22
sg23
g24
sg25
Nsg26
g27
sg28
g2732
sg29
Nsg30
g10
sg31
VSucrogen (Plane Creek Mill) Pty Ltd
p2740
sg33
I2012
sg34
g2
(g35
g4
Ntp2741
Rp2742
(dp2743
g39
F-21.428222999999946
sg40
g27
sg41
F149.21591200000012
sbsbsVAUS0000075
p2744
g2
(g3
g4
Ntp2745
Rp2746
(dp2747
g8
Nsg9
g10
sg11
g12
((lp2748
tp2749
Rp2750
sg16
F1000.0
sg17
VLoy Yang B
p2751
sg19
g75
sg21
g22
sg23
g24
sg25
Nsg26
g27
sg28
g2744
sg29
Nsg30
g10
sg31
VIPM Australia Limited
p2752
sg33
I2012
sg34
g2
(g35
g4
Ntp2753
Rp2754
(dp2755
g39
F-38.25644699999998
sg40
g27
sg41
F146.5863700000001
sbsbsVAUS0000076
p2756
g2
(g3
g4
Ntp2757
Rp2758
(dp2759
g8
Nsg9
g10
sg11
g12
((lp2760
tp2761
Rp2762
sg16
F58.0
sg17
VHume
p2763
sg19
g62
sg21
g22
sg23
g24
sg25
Nsg26
g27
sg28
g2756
sg29
Nsg30
g10
sg31
VEraring Energy
p2764
sg33
I2012
sg34
g2
(g35
g4
Ntp2765
Rp2766
(dp2767
g39
F-36.10661899999997
sg40
g27
sg41
F147.03262200000006
sbsbsVAUS0000077
p2768
g2
(g3
g4
Ntp2769
Rp2770
(dp2771
g8
Nsg9
g10
sg11
g12
((lp2772
tp2773
Rp2774
sg16
F6.7
sg17
VHallam Road
p2775
sg19
g246
sg21
g22
sg23
g24
sg25
Nsg26
g27
sg28
g2768
sg29
Nsg30
g10
sg31
VLMS Energy Generation Pty Ltd
p2776
sg33
I2012
sg34
g2
(g35
g4
Ntp2777
Rp2778
(dp2779
g39
F-38.053342999999984
sg40
g27
sg41
F145.26985600000012
sbsbsVAUS0000078
p2780
g2
(g3
g4
Ntp2781
Rp2782
(dp2783
g8
Nsg9
g10
sg11
g12
((lp2784
tp2785
Rp2786
sg16
F2.2
sg17
VBrowns Plains
p2787
sg19
g246
sg21
g22
sg23
g24
sg25
Nsg26
g27
sg28
g2780
sg29
Nsg30
g10
sg31
VEnergy Developments LFG (Qld) Pty Ltd
p2788
sg33
I2012
sg34
g2
(g35
g4
Ntp2789
Rp2790
(dp2791
g39
F-27.67213099999998
sg40
g27
sg41
F153.06634600000007
sbsbsVAUS0000079
p2792
g2
(g3
g4
Ntp2793
Rp2794
(dp2795
g8
Nsg9
g10
sg11
g12
((lp2796
tp2797
Rp2798
sg16
F2.8
sg17
VBrooklyn
p2799
sg19
g246
sg21
g22
sg23
g24
sg25
Nsg26
g27
sg28
g2792
sg29
Nsg30
g10
sg31
VEnergy Developments LFG (Victoria) Pty Ltd
p2800
sg33
I2012
sg34
g2
(g35
g4
Ntp2801
Rp2802
(dp2803
g39
F-37.81796699999995
sg40
g27
sg41
F144.83187600000008
sbsbsVAUS0000238
p2804
g2
(g3
g4
Ntp2805
Rp2806
(dp2807
g8
Nsg9
g10
sg11
g12
((lp2808
tp2809
Rp2810
sg16
F73.5
sg17
VPort Lincoln
p2811
sg19
g209
sg21
g22
sg23
g24
sg25
Nsg26
g27
sg28
g2804
sg29
Nsg30
g10
sg31
VSynergen Power
p2812
sg33
I2012
sg34
g2
(g35
g4
Ntp2813
Rp2814
(dp2815
g39
F-34.700189999999964
sg40
g27
sg41
F135.80472800000007
sbsbsVAUS0000330
p2816
g2
(g3
g4
Ntp2817
Rp2818
(dp2819
g8
Nsg9
g10
sg11
g12
((lp2820
tp2821
Rp2822
sg16
F4.0
sg17
VCanning Vale
p2823
sg19
g246
sg21
g22
sg23
g24
sg25
Nsg26
g27
sg28
g2816
sg29
Nsg30
g10
sg31
VLandfill Gas and Power Pty Ltd
p2824
sg33
I2012
sg34
g2
(g35
g4
Ntp2825
Rp2826
(dp2827
g39
F-32.073898749999955
sg40
g27
sg41
F115.89140569100005
sbsbsVAUS0000416
p2828
g2
(g3
g4
Ntp2829
Rp2830
(dp2831
g8
Nsg9
g10
sg11
g12
((lp2832
tp2833
Rp2834
sg16
F150.0
sg17
VBuronga
p2835
sg19
g20
sg21
g22
sg23
g24
sg25
Nsg26
g27
sg28
g2828
sg29
Nsg30
g10
sg31
VInternational Power Pty Ltd
p2836
sg33
I2012
sg34
g2
(g35
g4
Ntp2837
Rp2838
(dp2839
g39
F-34.10134192299995
sg40
g27
sg41
F142.26166023300004
sbsbsVAUS0000417
p2840
g2
(g3
g4
Ntp2841
Rp2842
(dp2843
g8
Nsg9
g10
sg11
g12
((lp2844
tp2845
Rp2846
sg16
F420.0
sg17
VMacarthur Wind Farm
p2847
sg19
g184
sg21
g22
sg23
g24
sg25
Nsg26
g27
sg28
g2840
sg29
Nsg30
g10
sg31
VAGL Energy Pty Ltd
p2848
sg33
I2012
sg34
g2
(g35
g4
Ntp2849
Rp2850
(dp2851
g39
F-38.00752684299994
sg40
g27
sg41
F142.18651013700003
sbsbsVAUS0000429
p2852
g2
(g3
g4
Ntp2853
Rp2854
(dp2855
g8
Nsg9
g10
sg11
g12
((lp2856
tp2857
Rp2858
sg16
F0.18
sg17
VMonash University (Clayton Campus) Solar Array
p2859
sg19
g967
sg21
g22
sg23
g24
sg25
Nsg26
g27
sg28
g2852
sg29
Nsg30
g10
sg31
VMonash University
p2860
sg33
I2012
sg34
g2
(g35
g4
Ntp2861
Rp2862
(dp2863
g39
F-37.91178734799996
sg40
g27
sg41
F145.13299610500007
sbsbsVAUS0000428
p2864
g2
(g3
g4
Ntp2865
Rp2866
(dp2867
g8
Nsg9
g10
sg11
g12
((lp2868
tp2869
Rp2870
sg16
F0.14
sg17
VBridgewater Solar
p2871
sg19
g967
sg21
g22
sg23
g24
sg25
Nsg26
g27
sg28
g2864
sg29
Nsg30
g10
sg31
VSilex Systems
p2872
sg33
I2012
sg34
g2
(g35
g4
Ntp2873
Rp2874
(dp2875
g39
F-36.61349914099998
sg40
g27
sg41
F143.9528805340001
sbsbsVAUS0000427
p2876
g2
(g3
g4
Ntp2877
Rp2878
(dp2879
g8
Nsg9
g10
sg11
g12
((lp2880
tp2881
Rp2882
sg16
F0.24
sg17
VTulla Calder Interchange Solar Array
p2883
sg19
g967
sg21
g22
sg23
g24
sg25
Nsg26
g27
sg28
g2876
sg29
Nsg30
g10
sg31
VTullamarine Calder Alliance
p2884
sg33
I2012
sg34
g2
(g35
g4
Ntp2885
Rp2886
(dp2887
g39
F-37.73527874299998
sg40
g27
sg41
F144.894816826
sbsbsVAUS0000426
p2888
g2
(g3
g4
Ntp2889
Rp2890
(dp2891
g8
Nsg9
g10
sg11
g12
((lp2892
tp2893
Rp2894
sg16
F2.37
sg17
VPerth Zoo
p2895
sg19
g967
sg21
g22
sg23
g24
sg25
Nsg26
g27
sg28
g2888
sg29
Nsg30
g10
sg31
VPerth Zoo
p2896
sg33
I2012
sg34
g2
(g35
g4
Ntp2897
Rp2898
(dp2899
g39
F-31.976662782999938
sg40
g27
sg41
F115.85478006900007
sbsbsVAUS0000425
p2900
g2
(g3
g4
Ntp2901
Rp2902
(dp2903
g8
Nsg9
g10
sg11
g12
((lp2904
tp2905
Rp2906
sg16
F1.2
sg17
VUniversity of Queensland (St Lucia Campus) Solar Array
p2907
sg19
g967
sg21
g22
sg23
g24
sg25
Nsg26
g27
sg28
g2900
sg29
Nsg30
g10
sg31
VUniversity of Queensland
p2908
sg33
I2012
sg34
g2
(g35
g4
Ntp2909
Rp2910
(dp2911
g39
F-27.494958560999976
sg40
g27
sg41
F153.01013752400002
sbsbsVAUS0000424
p2912
g2
(g3
g4
Ntp2913
Rp2914
(dp2915
g8
Nsg9
g10
sg11
g12
((lp2916
tp2917
Rp2918
sg16
F20.9
sg17
VMcArthur River Mine
p2919
sg19
g20
sg21
g22
sg23
g24
sg25
Nsg26
g27
sg28
g2912
sg29
Nsg30
g10
sg31
VEnergy Developments Ltd
p2920
sg33
I2012
sg34
g2
(g35
g4
Ntp2921
Rp2922
(dp2923
g39
F-16.433498250999946
sg40
g27
sg41
F136.09345945200005
sbsbsVAUS0000230
p2924
g2
(g3
g4
Ntp2925
Rp2926
(dp2927
g8
Nsg9
g10
sg11
g12
((lp2928
tp2929
Rp2930
sg16
F159.0
sg17
VTelfer Gold Mine
p2931
sg19
g20
sg21
g22
sg23
g24
sg25
Nsg26
g27
sg28
g2924
sg29
Nsg30
g10
sg31
VNewcrest Mining Ltd
p2932
sg33
I2012
sg34
g2
(g35
g4
Ntp2933
Rp2934
(dp2935
g39
F-21.712910999999963
sg40
g27
sg41
F122.20910300000003
sbsbsVAUS0000421
p2936
g2
(g3
g4
Ntp2937
Rp2938
(dp2939
g8
Nsg9
g10
sg11
g12
((lp2940
tp2941
Rp2942
sg16
F0.24
sg17
VKings Canyon
p2943
sg19
g967
sg21
g22
sg23
g24
sg25
Nsg26
g27
sg28
g2936
sg29
Nsg30
g10
sg31
VPower and Water Corporation
p2944
sg33
I2012
sg34
g2
(g35
g4
Ntp2945
Rp2946
(dp2947
g39
F-24.25091958799993
sg40
g27
sg41
F131.50064981900005
sbsbsVAUS0000420
p2948
g2
(g3
g4
Ntp2949
Rp2950
(dp2951
g8
Nsg9
g10
sg11
g12
((lp2952
tp2953
Rp2954
sg16
F168.0
sg17
VMusselroe
p2955
sg19
g184
sg21
g22
sg23
g24
sg25
Nsg26
g27
sg28
g2948
sg29
Nsg30
g10
sg31
VHydro Tasmania Wind Operations Pty Ltd
p2956
sg33
I2013
sg34
g2
(g35
g4
Ntp2957
Rp2958
(dp2959
g39
F-40.779757995999944
sg40
g27
sg41
F148.00975916900006
sbsbsVAUS0000258
p2960
g2
(g3
g4
Ntp2961
Rp2962
(dp2963
g8
Nsg9
g10
sg11
g12
((lp2964
tp2965
Rp2966
sg16
F34.76
sg17
VPine Creek
p2967
sg19
g20
sg21
g22
sg23
g24
sg25
Nsg26
g27
sg28
g2960
sg29
Nsg30
g10
sg31
VNGD (NT) / Cosmo Power
p2968
sg33
I2012
sg34
g2
(g35
g4
Ntp2969
Rp2970
(dp2971
g39
F-13.785609999999963
sg40
g27
sg41
F131.86236200000008
sbsbsVAUS0000259
p2972
g2
(g3
g4
Ntp2973
Rp2974
(dp2975
g8
Nsg9
g10
sg11
g12
((lp2976
tp2977
Rp2978
sg16
F21.0
sg17
VKatherine
p2979
sg19
g20
sg21
g22
sg23
g24
sg25
Nsg26
g27
sg28
g2972
sg29
Nsg30
g10
sg31
VNT Power and Water
p2980
sg33
I2012
sg34
g2
(g35
g4
Ntp2981
Rp2982
(dp2983
g39
F-14.458692999999926
sg40
g27
sg41
F132.24450600000011
sbsbsVAUS0000393
p2984
g2
(g3
g4
Ntp2985
Rp2986
(dp2987
g8
Nsg9
g10
sg11
g12
((lp2988
tp2989
Rp2990
sg16
F120.0
sg17
VMuja A
p2991
sg19
g75
sg21
g22
sg23
g24
sg25
Nsg26
g27
sg28
g2984
sg29
Nsg30
g10
sg31
VVerve Energy
p2992
sg33
I2012
sg34
g2
(g35
g4
Ntp2993
Rp2994
(dp2995
g39
F-33.44667107299995
sg40
g27
sg41
F116.30810859200005
sbsbsVAUS0000231
p2996
g2
(g3
g4
Ntp2997
Rp2998
(dp2999
g8
Nsg9
g10
sg11
g12
((lp3000
tp3001
Rp3002
sg16
F4.0
sg17
VAmcor Gawler
p3003
sg19
g209
sg21
g22
sg23
g24
sg25
Nsg26
g27
sg28
g2996
sg29
Nsg30
g10
sg31
VEnergy Response
p3004
sg33
I2012
sg34
g2
(g35
g4
Ntp3005
Rp3006
(dp3007
g39
F-34.55085699999995
sg40
g27
sg41
F138.76586400000008
sbsbsVAUS0000395
p3008
g2
(g3
g4
Ntp3009
Rp3010
(dp3011
g8
Nsg9
g10
sg11
g12
((lp3012
tp3013
Rp3014
sg16
F200.0
sg17
VBen Lomond
p3015
sg19
g184
sg21
g22
sg23
g24
sg25
Nsg26
g27
sg28
g3008
sg29
Nsg30
g10
sg31
VAGL Energy
p3016
sg33
I2012
sg34
g2
(g35
g4
Ntp3017
Rp3018
(dp3019
g39
F-29.962256424999964
sg40
g27
sg41
F151.65852993400006
sbsbsVAUS0000394
p3020
g2
(g3
g4
Ntp3021
Rp3022
(dp3023
g8
Nsg9
g10
sg11
g12
((lp3024
tp3025
Rp3026
sg16
F270.0
sg17
VBoco Rock
p3027
sg19
g184
sg21
g22
sg23
g24
sg25
Nsg26
g27
sg28
g3020
sg29
Nsg30
g10
sg31
VBoco Rock Wind Farm Pty Ltd
p3028
sg33
I2012
sg34
g2
(g35
g4
Ntp3029
Rp3030
(dp3031
g39
F-36.591414215999976
sg40
g27
sg41
F149.12967511600004
sbsbsVAUS0000397
p3032
g2
(g3
g4
Ntp3033
Rp3034
(dp3035
g8
Nsg9
g10
sg11
g12
((lp3036
tp3037
Rp3038
sg16
F320.0
sg17
VBamarang
p3039
sg19
g20
sg21
g22
sg23
g24
sg25
Nsg26
g27
sg28
g3032
sg29
Nsg30
g10
sg31
VInfratil Energy Australia Pty Ltd
p3040
sg33
I2012
sg34
g2
(g35
g4
Ntp3041
Rp3042
(dp3043
g39
F-34.902981058999956
sg40
g27
sg41
F150.52582206400007
sbsbsVAUS0000396
p3044
g2
(g3
g4
Ntp3045
Rp3046
(dp3047
g8
Nsg9
g10
sg11
g12
((lp3048
tp3049
Rp3050
sg16
F600.0
sg17
VBannaby
p3051
sg19
g20
sg21
g22
sg23
g24
sg25
Nsg26
g27
sg28
g3044
sg29
Nsg30
g10
sg31
VSnowy Hydro Ltd
p3052
sg33
I2012
sg34
g2
(g35
g4
Ntp3053
Rp3054
(dp3055
g39
F-34.43176223299997
sg40
g27
sg41
F150.05305831200008
sbsbsVAUS0000250
p3056
g2
(g3
g4
Ntp3057
Rp3058
(dp3059
g8
Nsg9
g10
sg11
g12
((lp3060
tp3061
Rp3062
sg16
F228.3
sg17
VHallett
p3063
sg19
g20
sg21
g22
sg23
g24
sg25
Nsg26
g27
sg28
g3056
sg29
Nsg30
g10
sg31
VTRUenergy
p3064
sg33
I2012
sg34
g2
(g35
g4
Ntp3065
Rp3066
(dp3067
g39
F-33.34865199999996
sg40
g27
sg41
F138.75165900000002
sbsbsVAUS0000251
p3068
g2
(g3
g4
Ntp3069
Rp3070
(dp3071
g8
Nsg9
g10
sg11
g12
((lp3072
tp3073
Rp3074
sg16
F10.0
sg17
VBerrimah
p3075
sg19
g20
sg21
g22
sg23
g24
sg25
Nsg26
g27
sg28
g3068
sg29
Nsg30
g10
sg31
VNT Power and Water
p3076
sg33
I2012
sg34
g2
(g35
g4
Ntp3077
Rp3078
(dp3079
g39
F-12.426175999999941
sg40
g27
sg41
F130.91947600000003
sbsbsVAUS0000252
p3080
g2
(g3
g4
Ntp3081
Rp3082
(dp3083
g8
Nsg9
g10
sg11
g12
((lp3084
tp3085
Rp3086
sg16
F1.1
sg17
VLandfill Management Services Shoal Bay
p3087
sg19
g246
sg21
g22
sg23
g24
sg25
Nsg26
g27
sg28
g3080
sg29
Nsg30
g10
sg31
VLMS Energy Generation Pty Ltd
p3088
sg33
I2012
sg34
g2
(g35
g4
Ntp3089
Rp3090
(dp3091
g39
F-12.389173999999969
sg40
g27
sg41
F130.92540800000006
sbsbsVAUS0000253
p3092
g2
(g3
g4
Ntp3093
Rp3094
(dp3095
g8
Nsg9
g10
sg11
g12
((lp3096
tp3097
Rp3098
sg16
F18.2
sg17
VTennant Creek
p3099
sg19
g20
sg21
g22
sg23
g24
sg25
Nsg26
g27
sg28
g3092
sg29
Nsg30
g10
sg31
VNT Power and Water
p3100
sg33
I2012
sg34
g2
(g35
g4
Ntp3101
Rp3102
(dp3103
g39
F-19.65492999999998
sg40
g27
sg41
F134.17528500000003
sbsbsVAUS0000254
p3104
g2
(g3
g4
Ntp3105
Rp3106
(dp3107
g8
Nsg9
g10
sg11
g12
((lp3108
tp3109
Rp3110
sg16
F59.6
sg17
VRon Goodin
p3111
sg19
g20
sg21
g22
sg23
g24
sg25
Nsg26
g27
sg28
g3104
sg29
Nsg30
g10
sg31
VNT Power and Water
p3112
sg33
I2012
sg34
g2
(g35
g4
Ntp3113
Rp3114
(dp3115
g39
F-23.709108999999955
sg40
g27
sg41
F133.8911750000001
sbsbsVAUS0000255
p3116
g2
(g3
g4
Ntp3117
Rp3118
(dp3119
g8
Nsg9
g10
sg11
g12
((lp3120
tp3121
Rp3122
sg16
F36.7
sg17
VOwen Springs
p3123
sg19
g20
sg21
g22
sg23
g24
sg25
Nsg26
g27
sg28
g3116
sg29
Nsg30
g10
sg31
VNT Power and Water
p3124
sg33
I2012
sg34
g2
(g35
g4
Ntp3125
Rp3126
(dp3127
g39
F-23.863610999999935
sg40
g27
sg41
F133.82548700000007
sbsbsVAUS0000256
p3128
g2
(g3
g4
Ntp3129
Rp3130
(dp3131
g8
Nsg9
g10
sg11
g12
((lp3132
tp3133
Rp3134
sg16
F8.5
sg17
VBrewer
p3135
sg19
g20
sg21
g22
sg23
g24
sg25
Nsg26
g27
sg28
g3128
sg29
Nsg30
g10
sg31
VCentral Energy Power
p3136
sg33
I2012
sg34
g2
(g35
g4
Ntp3137
Rp3138
(dp3139
g39
F-23.88169799999997
sg40
g27
sg41
F133.82814300000007
sbsbsVAUS0000257
p3140
g2
(g3
g4
Ntp3141
Rp3142
(dp3143
g8
Nsg9
g10
sg11
g12
((lp3144
tp3145
Rp3146
sg16
F4.5
sg17
VYulara
p3147
sg19
g20
sg21
g22
sg23
g24
sg25
Nsg26
g27
sg28
g3140
sg29
Nsg30
g10
sg31
VNT Power and Water
p3148
sg33
I2012
sg34
g2
(g35
g4
Ntp3149
Rp3150
(dp3151
g39
F-25.232312999999976
sg40
g27
sg41
F130.9911810000001
sbsbsVAUS0000153
p3152
g2
(g3
g4
Ntp3153
Rp3154
(dp3155
g8
Nsg9
g10
sg11
g12
((lp3156
tp3157
Rp3158
sg16
F519.0
sg17
VBraemar 2
p3159
sg19
g20
sg21
g22
sg23
g24
sg25
Nsg26
g27
sg28
g3152
sg29
Nsg30
g10
sg31
VArrow Energy
p3160
sg33
I2013
sg34
g2
(g35
g4
Ntp3161
Rp3162
(dp3163
g39
F-27.112811267999973
sg40
g27
sg41
F150.90487826100002
sbsbsVAUS0000152
p3164
g2
(g3
g4
Ntp3165
Rp3166
(dp3167
g8
Nsg9
g10
sg11
g12
((lp3168
tp3169
Rp3170
sg16
F504.0
sg17
VBraemar 1
p3171
sg19
g20
sg21
g22
sg23
g24
sg25
Nsg26
g27
sg28
g3164
sg29
Nsg30
g10
sg31
VAlinta Energy
p3172
sg33
I2012
sg34
g2
(g35
g4
Ntp3173
Rp3174
(dp3175
g39
F-27.11093399999993
sg40
g27
sg41
F150.90533700000003
sbsbsVAUS0000151
p3176
g2
(g3
g4
Ntp3177
Rp3178
(dp3179
g8
Nsg9
g10
sg11
g12
((lp3180
tp3181
Rp3182
sg16
F66.0
sg17
VBarron Gorge
p3183
sg19
g62
sg21
g22
sg23
g24
sg25
Nsg26
g27
sg28
g3176
sg29
Nsg30
g10
sg31
VStanwell Corporation Ltd
p3184
sg33
I2012
sg34
g2
(g35
g4
Ntp3185
Rp3186
(dp3187
g39
F-16.850198999999975
sg40
g27
sg41
F145.64649500000007
sbsbsVAUS0000099
p3188
g2
(g3
g4
Ntp3189
Rp3190
(dp3191
g8
Nsg9
g10
sg11
g12
((lp3192
tp3193
Rp3194
sg16
F1.8
sg17
VLake William Hovell
p3195
sg19
g62
sg21
g22
sg23
g24
sg25
Nsg26
g27
sg28
g3188
sg29
Nsg30
g10
sg31
VPacific Hydro Investments Pty Ltd
p3196
sg33
I2012
sg34
g2
(g35
g4
Ntp3197
Rp3198
(dp3199
g39
F-36.91317699999996
sg40
g27
sg41
F146.3915720000001
sbsbsVAUS0000157
p3200
g2
(g3
g4
Ntp3201
Rp3202
(dp3203
g8
Nsg9
g10
sg11
g12
((lp3204
tp3205
Rp3206
sg16
F31.8
sg17
VGerman Creek
p3207
sg19
g20
sg21
g22
sg23
g24
sg25
Nsg26
g27
sg28
g3200
sg29
Nsg30
g10
sg31
VEnergy Developments CSM (Qld) Pty Ltd
p3208
sg33
I2012
sg34
g2
(g35
g4
Ntp3209
Rp3210
(dp3211
g39
F-22.928146999999967
sg40
g27
sg41
F148.55149700000004
sbsbsVAUS0000156
p3212
g2
(g3
g4
Ntp3213
Rp3214
(dp3215
g8
Nsg9
g10
sg11
g12
((lp3216
tp3217
Rp3218
sg16
F644.0
sg17
VDarling Downs
p3219
sg19
g20
sg21
g22
sg23
g24
sg25
Nsg26
g27
sg28
g3212
sg29
Nsg30
g10
sg31
VOrigin Energy
p3220
sg33
I2012
sg34
g2
(g35
g4
Ntp3221
Rp3222
(dp3223
g39
F-27.116891412999962
sg40
g27
sg41
F150.89421701800006
sbsbsVAUS0000155
p3224
g2
(g3
g4
Ntp3225
Rp3226
(dp3227
g8
Nsg9
g10
sg11
g12
((lp3228
tp3229
Rp3230
sg16
F30.0
sg17
VDaandine
p3231
sg19
g20
sg21
g22
sg23
g24
sg25
Nsg26
g27
sg28
g3224
sg29
Nsg30
g10
sg31
VEnergy Infrastructure Investments Pty Ltd
p3232
sg33
I2012
sg34
g2
(g35
g4
Ntp3233
Rp3234
(dp3235
g39
F-27.08631996699995
sg40
g27
sg41
F150.94300545900012
sbsbsVAUS0000154
p3236
g2
(g3
g4
Ntp3237
Rp3238
(dp3239
g8
Nsg9
g10
sg11
g12
((lp3240
tp3241
Rp3242
sg16
F144.0
sg17
VCondamine A
p3243
sg19
g20
sg21
g22
sg23
g24
sg25
Nsg26
g27
sg28
g3236
sg29
Nsg30
g10
sg31
VQueensland Gas Company
p3244
sg33
I2012
sg34
g2
(g35
g4
Ntp3245
Rp3246
(dp3247
g39
F-26.668222211999932
sg40
g27
sg41
F150.27001446500003
sbsbsVAUS0000092
p3248
g2
(g3
g4
Ntp3249
Rp3250
(dp3251
g8
Nsg9
g10
sg11
g12
((lp3252
tp3253
Rp3254
sg16
F2180.0
sg17
VLoy Yang A
p3255
sg19
g75
sg21
g22
sg23
g24
sg25
Nsg26
g27
sg28
g3248
sg29
Nsg30
g10
sg31
VGEAC Great Energy Alliance Corporation
p3256
sg33
I2012
sg34
g2
(g35
g4
Ntp3257
Rp3258
(dp3259
g39
F-38.25359999999995
sg40
g27
sg41
F146.5745690000001
sbsbsVAUS0000093
p3260
g2
(g3
g4
Ntp3261
Rp3262
(dp3263
g8
Nsg9
g10
sg11
g12
((lp3264
tp3265
Rp3266
sg16
F0.8
sg17
VMornington
p3267
sg19
g246
sg21
g22
sg23
g24
sg25
Nsg26
g27
sg28
g3260
sg29
Nsg30
g10
sg31
VLMS Generation Pty Ltd
p3268
sg33
I2012
sg34
g2
(g35
g4
Ntp3269
Rp3270
(dp3271
g39
F-38.39163099999996
sg40
g27
sg41
F144.85532200000011
sbsbsVAUS0000090
p3272
g2
(g3
g4
Ntp3273
Rp3274
(dp3275
g8
Nsg9
g10
sg11
g12
((lp3276
tp3277
Rp3278
sg16
F312.0
sg17
VLaverton North
p3279
sg19
g20
sg21
g22
sg23
g24
sg25
Nsg26
g27
sg28
g3272
sg29
Nsg30
g10
sg31
VSnowy Hydro Ltd
p3280
sg33
I2012
sg34
g2
(g35
g4
Ntp3281
Rp3282
(dp3283
g39
F-37.841579999999965
sg40
g27
sg41
F144.78871100000003
sbsbsVAUS0000091
p3284
g2
(g3
g4
Ntp3285
Rp3286
(dp3287
g8
Nsg9
g10
sg11
g12
((lp3288
tp3289
Rp3290
sg16
F31.8
sg17
VLongford
p3291
sg19
g20
sg21
g22
sg23
g24
sg25
Nsg26
g27
sg28
g3284
sg29
Nsg30
g10
sg31
VTRUenergy
p3292
sg33
I2012
sg34
g2
(g35
g4
Ntp3293
Rp3294
(dp3295
g39
F-38.16399999999993
sg40
g27
sg41
F147.0870000000001
sbsbsVAUS0000096
p3296
g2
(g3
g4
Ntp3297
Rp3298
(dp3299
g8
Nsg9
g10
sg11
g12
((lp3300
tp3301
Rp3302
sg16
F160.0
sg17
VSomerton
p3303
sg19
g20
sg21
g22
sg23
g24
sg25
Nsg26
g27
sg28
g3296
sg29
Nsg30
g10
sg31
VAGL Energy Pty Ltd
p3304
sg33
I2012
sg34
g2
(g35
g4
Ntp3305
Rp3306
(dp3307
g39
F-37.63182199999994
sg40
g27
sg41
F144.95307700000012
sbsbsVAUS0000097
p3308
g2
(g3
g4
Ntp3309
Rp3310
(dp3311
g8
Nsg9
g10
sg11
g12
((lp3312
tp3313
Rp3314
sg16
F5.9
sg17
VSymex Port Melbourne
p3315
sg19
g20
sg21
g22
sg23
g24
sg25
Nsg26
g27
sg28
g3308
sg29
Nsg30
g10
sg31
VSymex Holding Ltd
p3316
sg33
I2012
sg34
g2
(g35
g4
Ntp3317
Rp3318
(dp3319
g39
F-37.829793999999936
sg40
g27
sg41
F144.94436500000006
sbsbsVAUS0000094
p3320
g2
(g3
g4
Ntp3321
Rp3322
(dp3323
g8
Nsg9
g10
sg11
g12
((lp3324
tp3325
Rp3326
sg16
F500.0
sg17
VNewport
p3327
sg19
g20
sg21
g22
sg23
g24
sg25
Nsg26
g27
sg28
g3320
sg29
Nsg30
g10
sg31
VIndustry Funds Management
p3328
sg33
I2012
sg34
g2
(g35
g4
Ntp3329
Rp3330
(dp3331
g39
F-37.84146199999998
sg40
g27
sg41
F144.89419700000008
sbsbsVAUS0000095
p3332
g2
(g3
g4
Ntp3333
Rp3334
(dp3335
g8
Nsg9
g10
sg11
g12
((lp3336
tp3337
Rp3338
sg16
F9.6
sg17
VRubicon
p3339
sg19
g62
sg21
g22
sg23
g24
sg25
Nsg26
g27
sg28
g3332
sg29
Nsg30
g10
sg31
VAGL Energy Pty Ltd
p3340
sg33
I2012
sg34
g2
(g35
g4
Ntp3341
Rp3342
(dp3343
g39
F-37.327219999999954
sg40
g27
sg41
F145.86052000000007
sbsbsVAUS0000418
p3344
g2
(g3
g4
Ntp3345
Rp3346
(dp3347
g8
Nsg9
g10
sg11
g12
((lp3348
tp3349
Rp3350
sg16
F1.6
sg17
VGlenorchy
p3351
sg19
g246
sg21
g22
sg23
g24
sg25
Nsg26
g27
sg28
g3344
sg29
Nsg30
g10
sg31
VAGL Energy Pty Ltd
p3352
sg33
I2012
sg34
g2
(g35
g4
Ntp3353
Rp3354
(dp3355
g39
F-42.84146316999994
sg40
g27
sg41
F147.25504660000001
sbsbsVAUS0000419
p3356
g2
(g3
g4
Ntp3357
Rp3358
(dp3359
g8
Nsg9
g10
sg11
g12
((lp3360
tp3361
Rp3362
sg16
F1.0
sg17
VHobart
p3363
sg19
g246
sg21
g22
sg23
g24
sg25
Nsg26
g27
sg28
g3356
sg29
Nsg30
g10
sg31
VAGL Energy Pty Ltd
p3364
sg33
I2012
sg34
g2
(g35
g4
Ntp3365
Rp3366
(dp3367
g39
F-42.88825951299998
sg40
g27
sg41
F147.28882975800002
sbsbsVAUS0000458
p3368
g2
(g3
g4
Ntp3369
Rp3370
(dp3371
g8
Nsg9
g10
sg11
g12
((lp3372
tp3373
Rp3374
sg16
F125.0
sg17
VSolomon Iron Ore Mine
p3375
sg19
g20
sg21
g22
sg23
g24
sg25
Nsg26
g27
sg28
g3368
sg29
Nsg30
g10
sg31
g27
sg33
Nsg34
g2
(g35
g4
Ntp3376
Rp3377
(dp3378
g39
F-22.158138793999967
sg40
g27
sg41
F117.98486380600002
sbsbsVAUS0000459
p3379
g2
(g3
g4
Ntp3380
Rp3381
(dp3382
g8
Nsg9
g10
sg11
g12
((lp3383
tp3384
Rp3385
sg16
F242.0
sg17
VDiamantina
p3386
sg19
g20
sg21
g22
sg23
g24
sg25
Nsg26
g27
sg28
g3379
sg29
Nsg30
g10
sg31
VAPA Group and AGL Energy Ltd
p3387
sg33
Nsg34
g2
(g35
g4
Ntp3388
Rp3389
(dp3390
g39
F-20.78374957699998
sg40
g27
sg41
F139.48326740100003
sbsbsVAUS0000452
p3391
g2
(g3
g4
Ntp3392
Rp3393
(dp3394
g8
Nsg9
g10
sg11
g12
((lp3395
tp3396
Rp3397
sg16
F40.0
sg17
VCannington Mine
p3398
sg19
g20
sg21
g22
sg23
g24
sg25
Nsg26
g27
sg28
g3391
sg29
Nsg30
g10
sg31
VBHP Billiton
p3399
sg33
Nsg34
g2
(g35
g4
Ntp3400
Rp3401
(dp3402
g39
F-21.86013328799993
sg40
g27
sg41
F140.91576749900003
sbsbsVAUS0000453
p3403
g2
(g3
g4
Ntp3404
Rp3405
(dp3406
g8
Nsg9
g10
sg11
g12
((lp3407
tp3408
Rp3409
sg16
F94.5
sg17
VHallett 1 Brown Hill  Wind Farm
p3410
sg19
g184
sg21
g22
sg23
g24
sg25
Nsg26
g27
sg28
g3403
sg29
Nsg30
g10
sg31
VAGL Energy Pty Ltd
p3411
sg33
I2012
sg34
g2
(g35
g4
Ntp3412
Rp3413
(dp3414
g39
F-33.39496020399997
sg40
g27
sg41
F138.7299433710001
sbsbsVAUS0000450
p3415
g2
(g3
g4
Ntp3416
Rp3417
(dp3418
g8
Nsg9
g10
sg11
g12
((lp3419
tp3420
Rp3421
sg16
F82.0
sg17
VMerredin
p3422
sg19
g20
sg21
g22
sg23
g24
sg25
Nsg26
g27
sg28
g3415
sg29
Nsg30
g10
sg31
g27
sg33
Nsg34
g2
(g35
g4
Ntp3423
Rp3424
(dp3425
g39
F-31.542313845999956
sg40
g27
sg41
F118.22699785900011
sbsbsVAUS0000451
p3426
g2
(g3
g4
Ntp3427
Rp3428
(dp3429
g8
Nsg9
g10
sg11
g12
((lp3430
tp3431
Rp3432
sg16
F86.0
sg17
VWest Angelas Mine
p3433
sg19
g20
sg21
g22
sg23
g24
sg25
Nsg26
g27
sg28
g3426
sg29
Nsg30
g10
sg31
VRio Tinto
p3434
sg33
Nsg34
g2
(g35
g4
Ntp3435
Rp3436
(dp3437
g39
F-23.154648546999965
sg40
g27
sg41
F118.72452167400002
sbsbsVAUS0000456
p3438
g2
(g3
g4
Ntp3439
Rp3440
(dp3441
g8
Nsg9
g10
sg11
g12
((lp3442
tp3443
Rp3444
sg16
F98.7
sg17
VSnowtown Wind Farm Stage 2
p3445
sg19
g184
sg21
g22
sg23
g24
sg25
Nsg26
g27
sg28
g3438
sg29
Nsg30
g10
sg31
VTrustPower Ltd
p3446
sg33
I2012
sg34
g2
(g35
g4
Ntp3447
Rp3448
(dp3449
g39
F-33.83008204299995
sg40
g27
sg41
F138.11841139700005
sbsbsVAUS0000201
p3450
g2
(g3
g4
Ntp3451
Rp3452
(dp3453
g8
Nsg9
g10
sg11
g12
((lp3454
tp3455
Rp3456
sg16
F280.0
sg17
VPinjarra Bauxite Mine and Alumina Refinery
p3457
sg19
g20
sg21
g22
sg23
g24
sg25
Nsg26
g27
sg28
g3450
sg29
Nsg30
g10
sg31
VAlinta Energy
p3458
sg33
I2012
sg34
g2
(g35
g4
Ntp3459
Rp3460
(dp3461
g39
F-32.647302999999965
sg40
g27
sg41
F115.94689400000004
sbsbsVAUS0000454
p3462
g2
(g3
g4
Ntp3463
Rp3464
(dp3465
g8
Nsg9
g10
sg11
g12
((lp3466
tp3467
Rp3468
sg16
F94.5
sg17
VHallett 5 The Bluff  Wind Farm
p3469
sg19
g184
sg21
g22
sg23
g24
sg25
Nsg26
g27
sg28
g3462
sg29
Nsg30
g10
sg31
VAGL Energy Pty Ltd
p3470
sg33
I2012
sg34
g2
(g35
g4
Ntp3471
Rp3472
(dp3473
g39
F-33.385546259999956
sg40
g27
sg41
F138.79283152200003
sbsbsVAUS0000422
p3474
g2
(g3
g4
Ntp3475
Rp3476
(dp3477
g8
Nsg9
g10
sg11
g12
((lp3478
tp3479
Rp3480
sg16
F100.0
sg17
VBodangora Wind Farm
p3481
sg19
g184
sg21
g22
sg23
g24
sg25
Nsg26
g27
sg28
g3474
sg29
Nsg30
g10
sg31
VInfigen Energy
p3482
sg33
I2012
sg34
g2
(g35
g4
Ntp3483
Rp3484
(dp3485
g39
F-32.41367217299995
sg40
g27
sg41
F149.05896359300004
sbsbsVAUS0000200
p3486
g2
(g3
g4
Ntp3487
Rp3488
(dp3489
g8
Nsg9
g10
sg11
g12
((lp3490
tp3491
Rp3492
sg16
F584.0
sg17
VPinjar
p3493
sg19
g20
sg21
g22
sg23
g24
sg25
Nsg26
g27
sg28
g3486
sg29
Nsg30
g10
sg31
VVerve Energy
p3494
sg33
I2012
sg34
g2
(g35
g4
Ntp3495
Rp3496
(dp3497
g39
F-31.557681354999943
sg40
g27
sg41
F115.82041110400007
sbsbsVAUS0000328
p3498
g2
(g3
g4
Ntp3499
Rp3500
(dp3501
g8
Nsg9
g10
sg11
g12
((lp3502
tp3503
Rp3504
sg16
F1.0
sg17
VShenton Park WMRC Project
p3505
sg19
g246
sg21
g22
sg23
g24
sg25
Nsg26
g27
sg28
g3498
sg29
Nsg30
g10
sg31
VAnaeCo Ltd
p3506
sg33
I2012
sg34
g2
(g35
g4
Ntp3507
Rp3508
(dp3509
g39
F-31.957666655999958
sg40
g27
sg41
F115.79244349800001
sbsbsVAUS0000329
p3510
g2
(g3
g4
Ntp3511
Rp3512
(dp3513
g8
Nsg9
g10
sg11
g12
((lp3514
tp3515
Rp3516
sg16
F1.3
sg17
VKalamunda
p3517
sg19
g209
sg21
g22
sg23
g24
sg25
Nsg26
g27
sg28
g3510
sg29
Nsg30
g10
sg31
VLandfill Gas and Power Pty Ltd
p3518
sg33
I2012
sg34
g2
(g35
g4
Ntp3519
Rp3520
(dp3521
g39
F-31.976778615999933
sg40
g27
sg41
F115.99879332700004
sbsbsVAUS0000324
p3522
g2
(g3
g4
Ntp3523
Rp3524
(dp3525
g8
Nsg9
g10
sg11
g12
((lp3526
tp3527
Rp3528
sg16
F36.0
sg17
VCloudbreak
p3529
sg19
g209
sg21
g22
sg23
g24
sg25
Nsg26
g27
sg28
g3522
sg29
Nsg30
g10
sg31
VContract Power
p3530
sg33
I2012
sg34
g2
(g35
g4
Ntp3531
Rp3532
(dp3533
g39
F-22.324710271999948
sg40
g27
sg41
F119.40401695100002
sbsbsVAUS0000325
p3534
g2
(g3
g4
Ntp3535
Rp3536
(dp3537
g8
Nsg9
g10
sg11
g12
((lp3538
tp3539
Rp3540
sg16
F84.0
sg17
VPort Hedland
p3541
sg19
g20
sg21
g22
sg23
g24
sg25
Nsg26
g27
sg28
g3534
sg29
Nsg30
g10
sg31
VAlinta Energy
p3542
sg33
I2012
sg34
g2
(g35
g4
Ntp3543
Rp3544
(dp3545
g39
F-20.378178960999946
sg40
g27
sg41
F118.53837434500008
sbsbsVAUS0000326
p3546
g2
(g3
g4
Ntp3547
Rp3548
(dp3549
g8
Nsg9
g10
sg11
g12
((lp3550
tp3551
Rp3552
sg16
F1.1
sg17
VNoranda
p3553
sg19
g246
sg21
g22
sg23
g24
sg25
Nsg26
g27
sg28
g3546
sg29
Nsg30
g10
sg31
VLMS Energy Generation Pty Ltd
p3554
sg33
I2012
sg34
g2
(g35
g4
Ntp3555
Rp3556
(dp3557
g39
F-31.86538940199995
sg40
g27
sg41
F115.87732708800002
sbsbsVAUS0000327
p3558
g2
(g3
g4
Ntp3559
Rp3560
(dp3561
g8
Nsg9
g10
sg11
g12
((lp3562
tp3563
Rp3564
sg16
F3.65
sg17
VRed Hill
p3565
sg19
g246
sg21
g22
sg23
g24
sg25
Nsg26
g27
sg28
g3558
sg29
Nsg30
g10
sg31
VLandfill Gas and Power Pty Ltd
p3566
sg33
I2012
sg34
g2
(g35
g4
Ntp3567
Rp3568
(dp3569
g39
F-31.83165058299994
sg40
g27
sg41
F116.09923967700001
sbsbsVAUS0000320
p3570
g2
(g3
g4
Ntp3571
Rp3572
(dp3573
g8
Nsg9
g10
sg11
g12
((lp3574
tp3575
Rp3576
sg16
F9.0
sg17
VNorseman Mine
p3577
sg19
g209
sg21
g22
sg23
g24
sg25
Nsg26
g27
sg28
g3570
sg29
Nsg30
g10
sg31
g27
sg33
I2012
sg34
g2
(g35
g4
Ntp3578
Rp3579
(dp3580
g39
F-32.19626480499994
sg40
g27
sg41
F121.79433384300012
sbsbsVAUS0000321
p3581
g2
(g3
g4
Ntp3582
Rp3583
(dp3584
g8
Nsg9
g10
sg11
g12
((lp3585
tp3586
Rp3587
sg16
F11.7
sg17
VDarlot Gold Mine
p3588
sg19
g20
sg21
g22
sg23
g24
sg25
Nsg26
g27
sg28
g3581
sg29
Nsg30
g10
sg31
VBarrick Gold
p3589
sg33
I2012
sg34
g2
(g35
g4
Ntp3590
Rp3591
(dp3592
g39
F-27.897207160999983
sg40
g27
sg41
F121.26976610500003
sbsbsVAUS0000322
p3593
g2
(g3
g4
Ntp3594
Rp3595
(dp3596
g8
Nsg9
g10
sg11
g12
((lp3597
tp3598
Rp3599
sg16
F23.7
sg17
VWindimurra Vanadium Mine
p3600
sg19
g20
sg21
g22
sg23
g24
sg25
Nsg26
g27
sg28
g3593
sg29
Nsg30
g10
sg31
VAtlantic Ltd
p3601
sg33
I2012
sg34
g2
(g35
g4
Ntp3602
Rp3603
(dp3604
g39
F-28.29331302099996
sg40
g27
sg41
F118.53714696400004
sbsbsVAUS0000323
p3605
g2
(g3
g4
Ntp3606
Rp3607
(dp3608
g8
Nsg9
g10
sg11
g12
((lp3609
tp3610
Rp3611
sg16
F0.6
sg17
VRottnest Island Wind Turbine
p3612
sg19
g184
sg21
g22
sg23
g24
sg25
Nsg26
g27
sg28
g3605
sg29
Nsg30
g10
sg31
VVerve Energy
p3613
sg33
I2012
sg34
g2
(g35
g4
Ntp3614
Rp3615
(dp3616
g39
F-31.993751991999943
sg40
g27
sg41
F115.52891392800007
sbsbsVAUS0000391
p3617
g2
(g3
g4
Ntp3618
Rp3619
(dp3620
g8
Nsg9
g10
sg11
g12
((lp3621
tp3622
Rp3623
sg16
F2.03
sg17
VEsperance Wind Farm Ten Mile Lagoon
p3624
sg19
g184
sg21
g22
sg23
g24
sg25
Nsg26
g27
sg28
g3617
sg29
Nsg30
g10
sg31
VVerve Energy
p3625
sg33
I2012
sg34
g2
(g35
g4
Ntp3626
Rp3627
(dp3628
g39
F-33.88016906299998
sg40
g27
sg41
F121.76903887500009
sbsbsVAUS0000390
p3629
g2
(g3
g4
Ntp3630
Rp3631
(dp3632
g8
Nsg9
g10
sg11
g12
((lp3633
tp3634
Rp3635
sg16
F0.02
sg17
VKalbarri PV System
p3636
sg19
g967
sg21
g22
sg23
g24
sg25
Nsg26
g27
sg28
g3629
sg29
Nsg30
g10
sg31
VVerve Energy
p3637
sg33
I2012
sg34
g2
(g35
g4
Ntp3638
Rp3639
(dp3640
g39
F-27.71524694699997
sg40
g27
sg41
F114.16969177900012
sbsbsVAUS0000392
p3641
g2
(g3
g4
Ntp3642
Rp3643
(dp3644
g8
Nsg9
g10
sg11
g12
((lp3645
tp3646
Rp3647
sg16
F120.0
sg17
VMuja B
p3648
sg19
g75
sg21
g22
sg23
g24
sg25
Nsg26
g27
sg28
g3641
sg29
Nsg30
g10
sg31
VVerve Energy
p3649
sg33
I2012
sg34
g2
(g35
g4
Ntp3650
Rp3651
(dp3652
g39
F-33.446806831999936
sg40
g27
sg41
F116.30871950900007
sbsbsVAUS0000209
p3653
g2
(g3
g4
Ntp3654
Rp3655
(dp3656
g8
Nsg9
g10
sg11
g12
((lp3657
tp3658
Rp3659
sg16
F37.0
sg17
VKalgoorlie Nickel Smelter
p3660
sg19
g20
sg21
g22
sg23
g24
sg25
Nsg26
g27
sg28
g3653
sg29
Nsg30
g10
sg31
VSouthern Cross Energy
p3661
sg33
I2012
sg34
g2
(g35
g4
Ntp3662
Rp3663
(dp3664
g39
F-30.87366899999995
sg40
g27
sg41
F121.48418800000002
sbsbsVAUS0000208
p3665
g2
(g3
g4
Ntp3666
Rp3667
(dp3668
g8
Nsg9
g10
sg11
g12
((lp3669
tp3670
Rp3671
sg16
F340.0
sg17
VCollie A
p3672
sg19
g75
sg21
g22
sg23
g24
sg25
Nsg26
g27
sg28
g3665
sg29
Nsg30
g10
sg31
VVerve Energy
p3673
sg33
I2012
sg34
g2
(g35
g4
Ntp3674
Rp3675
(dp3676
g39
F-33.34218099999998
sg40
g27
sg41
F116.261165
sbsbsVAUS0000399
p3677
g2
(g3
g4
Ntp3678
Rp3679
(dp3680
g8
Nsg9
g10
sg11
g12
((lp3681
tp3682
Rp3683
sg16
F2.1
sg17
VBankstown Sports Club
p3684
sg19
g209
sg21
g22
sg23
g24
sg25
Nsg26
g27
sg28
g3677
sg29
Nsg30
g10
sg31
VBankstown Sports Club
p3685
sg33
I2012
sg34
g2
(g35
g4
Ntp3686
Rp3687
(dp3688
g39
F-33.919699597999966
sg40
g27
sg41
F151.03324363800004
sbsbsVAUS0000398
p3689
g2
(g3
g4
Ntp3690
Rp3691
(dp3692
g8
Nsg9
g10
sg11
g12
((lp3693
tp3694
Rp3695
sg16
F200.0
sg17
VBango Wind Farm
p3696
sg19
g184
sg21
g22
sg23
g24
sg25
Nsg26
g27
sg28
g3689
sg29
Nsg30
g10
sg31
VBango Wind Farm Pty Ltd
p3697
sg33
I2012
sg34
g2
(g35
g4
Ntp3698
Rp3699
(dp3700
g39
F-34.60577781699993
sg40
g27
sg41
F148.86955733900004
sbsbsVAUS0000050
p3701
g2
(g3
g4
Ntp3702
Rp3703
(dp3704
g8
Nsg9
g10
sg11
g12
((lp3705
tp3706
Rp3707
sg16
F111.0
sg17
VWaterloo Wind Farm
p3708
sg19
g184
sg21
g22
sg23
g24
sg25
Nsg26
g27
sg28
g3701
sg29
Nsg30
g10
sg31
VTRUenergy
p3709
sg33
I2012
sg34
g2
(g35
g4
Ntp3710
Rp3711
(dp3712
g39
F-34.000357623999946
sg40
g27
sg41
F138.91531889200007
sbsbsVAUS0000180
p3713
g2
(g3
g4
Ntp3714
Rp3715
(dp3716
g8
Nsg9
g10
sg11
g12
((lp3717
tp3718
Rp3719
sg16
F39.6
sg17
VBroome
p3720
sg19
g20
sg21
g22
sg23
g24
sg25
Nsg26
g27
sg28
g3713
sg29
Nsg30
g10
sg31
VEnergy Developments Ltd
p3721
sg33
I2012
sg34
g2
(g35
g4
Ntp3722
Rp3723
(dp3724
g39
F-17.981026999999926
sg40
g27
sg41
F122.20460200000002
sbsbsVAUS0000181
p3725
g2
(g3
g4
Ntp3726
Rp3727
(dp3728
g8
Nsg9
g10
sg11
g12
((lp3729
tp3730
Rp3731
sg16
F240.0
sg17
VBurrup Peninsula (Karratha Gas Plant)
p3732
sg19
g20
sg21
g22
sg23
g24
sg25
Nsg26
g27
sg28
g3725
sg29
Nsg30
g10
sg31
VWoodside Pty Ltd
p3733
sg33
I2012
sg34
g2
(g35
g4
Ntp3734
Rp3735
(dp3736
g39
F-20.62864899999994
sg40
g27
sg41
F116.78214700000001
sbsbsVAUS0000182
p3737
g2
(g3
g4
Ntp3738
Rp3739
(dp3740
g8
Nsg9
g10
sg11
g12
((lp3741
tp3742
Rp3743
sg16
F160.0
sg17
VBurrup Peninsula (Pluto Phase 1)
p3744
sg19
g20
sg21
g22
sg23
g24
sg25
Nsg26
g27
sg28
g3737
sg29
Nsg30
g10
sg31
VWoodside Pty Ltd
p3745
sg33
I2012
sg34
g2
(g35
g4
Ntp3746
Rp3747
(dp3748
g39
F-20.59367999999995
sg40
g27
sg41
F116.78015000000005
sbsbsVAUS0000183
p3749
g2
(g3
g4
Ntp3750
Rp3751
(dp3752
g8
Nsg9
g10
sg11
g12
((lp3753
tp3754
Rp3755
sg16
F240.0
sg17
VCockburn
p3756
sg19
g20
sg21
g22
sg23
g24
sg25
Nsg26
g27
sg28
g3749
sg29
Nsg30
g10
sg31
VVerve Energy
p3757
sg33
I2012
sg34
g2
(g35
g4
Ntp3758
Rp3759
(dp3760
g39
F-32.20011899999997
sg40
g27
sg41
F115.77367900000002
sbsbsVAUS0000184
p3761
g2
(g3
g4
Ntp3762
Rp3763
(dp3764
g8
Nsg9
g10
sg11
g12
((lp3765
tp3766
Rp3767
sg16
F416.0
sg17
VCollie (Bluewaters)
p3768
sg19
g75
sg21
g22
sg23
g24
sg25
Nsg26
g27
sg28
g3761
sg29
Nsg30
g10
sg31
VGriffin Energy
p3769
sg33
I2012
sg34
g2
(g35
g4
Ntp3770
Rp3771
(dp3772
g39
F-33.33099999999996
sg40
g27
sg41
F116.22900000000004
sbsbsVAUS0000185
p3773
g2
(g3
g4
Ntp3774
Rp3775
(dp3776
g8
Nsg9
g10
sg11
g12
((lp3777
tp3778
Rp3779
sg16
F120.0
sg17
VDampier
p3780
sg19
g20
sg21
g22
sg23
g24
sg25
Nsg26
g27
sg28
g3773
sg29
Nsg30
g10
sg31
VRio Tinto Australia Pty Ltd
p3781
sg33
I2012
sg34
g2
(g35
g4
Ntp3782
Rp3783
(dp3784
g39
F-20.64798499999995
sg40
g27
sg41
F116.72190400000011
sbsbsVAUS0000186
p3785
g2
(g3
g4
Ntp3786
Rp3787
(dp3788
g8
Nsg9
g10
sg11
g12
((lp3789
tp3790
Rp3791
sg16
F39.0
sg17
VEsperance
p3792
sg19
g20
sg21
g22
sg23
g24
sg25
Nsg26
g27
sg28
g3785
sg29
Nsg30
g10
sg31
VInfrastructure Capital Group
p3793
sg33
I2012
sg34
g2
(g35
g4
Ntp3794
Rp3795
(dp3796
g39
F-33.87619999999998
sg40
g27
sg41
F121.89980000000003
sbsbsVAUS0000187
p3797
g2
(g3
g4
Ntp3798
Rp3799
(dp3800
g8
Nsg9
g10
sg11
g12
((lp3801
tp3802
Rp3803
sg16
F21.0
sg17
VGeraldton
p3804
sg19
g20
sg21
g22
sg23
g24
sg25
Nsg26
g27
sg28
g3797
sg29
Nsg30
g10
sg31
VVerve Energy
p3805
sg33
I2012
sg34
g2
(g35
g4
Ntp3806
Rp3807
(dp3808
g39
F-28.77010699999994
sg40
g27
sg41
F114.64848200000006
sbsbsVAUS0000188
p3809
g2
(g3
g4
Ntp3810
Rp3811
(dp3812
g8
Nsg9
g10
sg11
g12
((lp3813
tp3814
Rp3815
sg16
F110.0
sg17
VKalgoorlie (Parkeston)
p3816
sg19
g20
sg21
g22
sg23
g24
sg25
Nsg26
g27
sg28
g3809
sg29
Nsg30
g10
sg31
VNewmount Australia / Transalta
p3817
sg33
I2012
sg34
g2
(g35
g4
Ntp3818
Rp3819
(dp3820
g39
F-30.737809999999968
sg40
g27
sg41
F121.50654300000008
sbsbsVAUS0000189
p3821
g2
(g3
g4
Ntp3822
Rp3823
(dp3824
g8
Nsg9
g10
sg11
g12
((lp3825
tp3826
Rp3827
sg16
F86.0
sg17
VKarratha
p3828
sg19
g20
sg21
g22
sg23
g24
sg25
Nsg26
g27
sg28
g3821
sg29
Nsg30
g10
sg31
VATCO Power
p3829
sg33
I2012
sg34
g2
(g35
g4
Ntp3830
Rp3831
(dp3832
g39
F-20.762566999999933
sg40
g27
sg41
F116.83747300000005
sbsbsVAUS0000021
p3833
g2
(g3
g4
Ntp3834
Rp3835
(dp3836
g8
Nsg9
g10
sg11
g12
((lp3837
tp3838
Rp3839
sg16
F1.1
sg17
VJindabyne Dam Mini Hydro
p3840
sg19
g62
sg21
g22
sg23
g24
sg25
Nsg26
g27
sg28
g3833
sg29
Nsg30
g10
sg31
VSnowy Hydro Ltd
p3841
sg33
I2012
sg34
g2
(g35
g4
Ntp3842
Rp3843
(dp3844
g39
F-36.435149999999965
sg40
g27
sg41
F148.6332500000001
sbsbsVAUS0000020
p3845
g2
(g3
g4
Ntp3846
Rp3847
(dp3848
g8
Nsg9
g10
sg11
g12
((lp3849
tp3850
Rp3851
sg16
F30.0
sg17
VYambuk Wind Farm
p3852
sg19
g184
sg21
g22
sg23
g24
sg25
Nsg26
g27
sg28
g3845
sg29
Nsg30
g10
sg31
VEnergy Pacific (Victoria) Pty Ltd
p3853
sg33
I2012
sg34
g2
(g35
g4
Ntp3854
Rp3855
(dp3856
g39
F-38.30835520699998
sg40
g27
sg41
F142.0100325850001
sbsbsVAUS0000027
p3857
g2
(g3
g4
Ntp3858
Rp3859
(dp3860
g8
Nsg9
g10
sg11
g12
((lp3861
tp3862
Rp3863
sg16
F9.9
sg17
VBlayney Wind Farm
p3864
sg19
g184
sg21
g22
sg23
g24
sg25
Nsg26
g27
sg28
g3857
sg29
Nsg30
g10
sg31
VEraring Energy
p3865
sg33
I2012
sg34
g2
(g35
g4
Ntp3866
Rp3867
(dp3868
g39
F-33.62188999999995
sg40
g27
sg41
F149.19821000000002
sbsbsVAUS0000026
p3869
g2
(g3
g4
Ntp3870
Rp3871
(dp3872
g8
Nsg9
g10
sg11
g12
((lp3873
tp3874
Rp3875
sg16
F20.0
sg17
VWyangala A
p3876
sg19
g62
sg21
g22
sg23
g24
sg25
Nsg26
g27
sg28
g3869
sg29
Nsg30
g10
sg31
VCountry Energy
p3877
sg33
I2012
sg34
g2
(g35
g4
Ntp3878
Rp3879
(dp3880
g39
F-33.980988999999965
sg40
g27
sg41
F148.94730600000003
sbsbsVAUS0000025
p3881
g2
(g3
g4
Ntp3882
Rp3883
(dp3884
g8
Nsg9
g10
sg11
g12
((lp3885
tp3886
Rp3887
sg16
F56.7
sg17
VClements Gap Wind Farm
p3888
sg19
g184
sg21
g22
sg23
g24
sg25
Nsg26
g27
sg28
g3881
sg29
Nsg30
g10
sg31
VPacific Hydro Pty Ltd
p3889
sg33
I2012
sg34
g2
(g35
g4
Ntp3890
Rp3891
(dp3892
g39
F-33.508567708999976
sg40
g27
sg41
F138.11917519200006
sbsbsVAUS0000024
p3893
g2
(g3
g4
Ntp3894
Rp3895
(dp3896
g8
Nsg9
g10
sg11
g12
((lp3897
tp3898
Rp3899
sg16
F132.3
sg17
VHallett 4 North Brown Hill  Wind Farm
p3900
sg19
g184
sg21
g22
sg23
g24
sg25
Nsg26
g27
sg28
g3893
sg29
Nsg30
g10
sg31
VAGL Energy Pty Ltd
p3901
sg33
I2012
sg34
g2
(g35
g4
Ntp3902
Rp3903
(dp3904
g39
F-33.30925994199998
sg40
g27
sg41
F138.72959554200008
sbsbsVAUS0000051
p3905
g2
(g3
g4
Ntp3906
Rp3907
(dp3908
g8
Nsg9
g10
sg11
g12
((lp3909
tp3910
Rp3911
sg16
F12.0
sg17
VWindy Hill Wind Farm
p3912
sg19
g184
sg21
g22
sg23
g24
sg25
Nsg26
g27
sg28
g3905
sg29
Nsg30
g10
sg31
VRATCH-Australia
p3913
sg33
I2012
sg34
g2
(g35
g4
Ntp3914
Rp3915
(dp3916
g39
F-17.592199999999934
sg40
g27
sg41
F145.53060000000005
sbsbsVAUS0000098
p3917
g2
(g3
g4
Ntp3918
Rp3919
(dp3920
g8
Nsg9
g10
sg11
g12
((lp3921
tp3922
Rp3923
sg16
F300.0
sg17
VValley (Peaking Facility)
p3924
sg19
g20
sg21
g22
sg23
g24
sg25
Nsg26
g27
sg28
g3917
sg29
Nsg30
g10
sg31
VSnowy Hydro Ltd
p3925
sg33
I2012
sg34
g2
(g35
g4
Ntp3926
Rp3927
(dp3928
g39
F-38.25362199999995
sg40
g27
sg41
F146.5891660000001
sbsbsVAUS0000150
p3929
g2
(g3
g4
Ntp3930
Rp3931
(dp3932
g8
Nsg9
g10
sg11
g12
((lp3933
tp3934
Rp3935
sg16
F500.0
sg17
VWivenhoe Hydroelectric
p3936
sg19
g62
sg21
g22
sg23
g24
sg25
Nsg26
g27
sg28
g3929
sg29
Nsg30
g10
sg31
VCS Energy
p3937
sg33
I2012
sg34
g2
(g35
g4
Ntp3938
Rp3939
(dp3940
g39
F-27.372220999999968
sg40
g27
sg41
F152.6320280000001
sbsbsVAUS0000159
p3941
g2
(g3
g4
Ntp3942
Rp3943
(dp3944
g8
Nsg9
g10
sg11
g12
((lp3945
tp3946
Rp3947
sg16
F25.0
sg17
VIsis Central Sugar Mill
p3948
sg19
g306
sg21
g22
sg23
g24
sg25
Nsg26
g27
sg28
g3941
sg29
Nsg30
g10
sg31
VAGL Energy Pty Ltd
p3949
sg33
I2012
sg34
g2
(g35
g4
Ntp3950
Rp3951
(dp3952
g39
F-25.19398599999994
sg40
g27
sg41
F152.20855600000004
sbsbsVAUS0000294
p3953
g2
(g3
g4
Ntp3954
Rp3955
(dp3956
g8
Nsg9
g10
sg11
g12
((lp3957
tp3958
Rp3959
sg16
F664.0
sg17
VUranquinty
p3960
sg19
g20
sg21
g22
sg23
g24
sg25
Nsg26
g27
sg28
g3953
sg29
Nsg30
g10
sg31
VOrigin Energy
p3961
sg33
I2012
sg34
g2
(g35
g4
Ntp3962
Rp3963
(dp3964
g39
F-35.17939499999994
sg40
g27
sg41
F147.2156920000001
sbsbsVAUS0000295
p3965
g2
(g3
g4
Ntp3966
Rp3967
(dp3968
g8
Nsg9
g10
sg11
g12
((lp3969
tp3970
Rp3971
sg16
F1320.0
sg17
VVales Point B
p3972
sg19
g75
sg21
g22
sg23
g24
sg25
Nsg26
g27
sg28
g3965
sg29
Nsg30
g10
sg31
VDelta Electricity
p3973
sg33
I2012
sg34
g2
(g35
g4
Ntp3974
Rp3975
(dp3976
g39
F-33.16074499999996
sg40
g27
sg41
F151.5431460000001
sbsbsVAUS0000296
p3977
g2
(g3
g4
Ntp3978
Rp3979
(dp3980
g8
Nsg9
g10
sg11
g12
((lp3981
tp3982
Rp3983
sg16
F1000.0
sg17
VWallerawang C
p3984
sg19
g75
sg21
g22
sg23
g24
sg25
Nsg26
g27
sg28
g3977
sg29
Nsg30
g10
sg31
VTRUenergy
p3985
sg33
I2012
sg34
g2
(g35
g4
Ntp3986
Rp3987
(dp3988
g39
F-33.40282399999995
sg40
g27
sg41
F150.08334500000012
sbsbsVAUS0000297
p3989
g2
(g3
g4
Ntp3990
Rp3991
(dp3992
g8
Nsg9
g10
sg11
g12
((lp3993
tp3994
Rp3995
sg16
F50.0
sg17
VWarragamba
p3996
sg19
g62
sg21
g22
sg23
g24
sg25
Nsg26
g27
sg28
g3989
sg29
Nsg30
g10
sg31
VEraring Energy
p3997
sg33
I2012
sg34
g2
(g35
g4
Ntp3998
Rp3999
(dp4000
g39
F-33.88324199999994
sg40
g27
sg41
F150.59654100000012
sbsbsVAUS0000290
p4001
g2
(g3
g4
Ntp4002
Rp4003
(dp4004
g8
Nsg9
g10
sg11
g12
((lp4005
tp4006
Rp4007
sg16
F810.0
sg17
VTomago Aluminium Smelter
p4008
sg19
g20
sg21
g22
sg23
g24
sg25
Nsg26
g27
sg28
g4001
sg29
Nsg30
g10
sg31
VTomago Aluminium
p4009
sg33
I2012
sg34
g2
(g35
g4
Ntp4010
Rp4011
(dp4012
g39
F-32.821650999999974
sg40
g27
sg41
F151.7178090000001
sbsbsVAUS0000291
p4013
g2
(g3
g4
Ntp4014
Rp4015
(dp4016
g8
Nsg9
g10
sg11
g12
((lp4017
tp4018
Rp4019
sg16
F41.2
sg17
VTower Mine
p4020
sg19
g20
sg21
g22
sg23
g24
sg25
Nsg26
g27
sg28
g4013
sg29
Nsg30
g10
sg31
VEnergy Developments Ltd
p4021
sg33
I2012
sg34
g2
(g35
g4
Ntp4022
Rp4023
(dp4024
g39
F-34.22069199999993
sg40
g27
sg41
F150.7179410000001
sbsbsVAUS0000292
p4025
g2
(g3
g4
Ntp4026
Rp4027
(dp4028
g8
Nsg9
g10
sg11
g12
((lp4029
tp4030
Rp4031
sg16
F384.0
sg17
VTumut 1 (Upper Tumut)
p4032
sg19
g62
sg21
g22
sg23
g24
sg25
Nsg26
g27
sg28
g4025
sg29
Nsg30
g10
sg31
VSnowy Hydro Ltd
p4033
sg33
I2012
sg34
g2
(g35
g4
Ntp4034
Rp4035
(dp4036
g39
F-35.95172899999994
sg40
g27
sg41
F148.36371000000008
sbsbsVAUS0000293
p4037
g2
(g3
g4
Ntp4038
Rp4039
(dp4040
g8
Nsg9
g10
sg11
g12
((lp4041
tp4042
Rp4043
sg16
F336.0
sg17
VTumut 2 (Upper Tumut)
p4044
sg19
g62
sg21
g22
sg23
g24
sg25
Nsg26
g27
sg28
g4037
sg29
Nsg30
g10
sg31
VSnowy Hydro Ltd
p4045
sg33
I2012
sg34
g2
(g35
g4
Ntp4046
Rp4047
(dp4048
g39
F-35.881290999999976
sg40
g27
sg41
F148.36725200000012
sbsbsVAUS0000117
p4049
g2
(g3
g4
Ntp4050
Rp4051
(dp4052
g8
Nsg9
g10
sg11
g12
((lp4053
tp4054
Rp4055
sg16
F125.0
sg17
VTungatinah
p4056
sg19
g62
sg21
g22
sg23
g24
sg25
Nsg26
g27
sg28
g4049
sg29
Nsg30
g10
sg31
VHydro-Electric Corporation (Tasmania)
p4057
sg33
I2012
sg34
g2
(g35
g4
Ntp4058
Rp4059
(dp4060
g39
F-42.29667099999995
sg40
g27
sg41
F146.456543
sbsbsVAUS0000116
p4061
g2
(g3
g4
Ntp4062
Rp4063
(dp4064
g8
Nsg9
g10
sg11
g12
((lp4065
tp4066
Rp4067
sg16
F38.3
sg17
VWayatinah
p4068
sg19
g62
sg21
g22
sg23
g24
sg25
Nsg26
g27
sg28
g4061
sg29
Nsg30
g10
sg31
VHydro-Electric Corporation (Tasmania)
p4069
sg33
I2012
sg34
g2
(g35
g4
Ntp4070
Rp4071
(dp4072
g39
F-42.427175999999974
sg40
g27
sg41
F146.53470900000002
sbsbsVAUS0000115
p4073
g2
(g3
g4
Ntp4074
Rp4075
(dp4076
g8
Nsg9
g10
sg11
g12
((lp4077
tp4078
Rp4079
sg16
F2.2
sg17
VRemount
p4080
sg19
g246
sg21
g22
sg23
g24
sg25
Nsg26
g27
sg28
g4073
sg29
Nsg30
g10
sg31
VLMS Energy Generation Pty Ltd
p4081
sg33
I2012
sg34
g2
(g35
g4
Ntp4082
Rp4083
(dp4084
g39
F-41.39504899999997
sg40
g27
sg41
F147.15542500000004
sbsbsVAUS0000114
p4085
g2
(g3
g4
Ntp4086
Rp4087
(dp4088
g8
Nsg9
g10
sg11
g12
((lp4089
tp4090
Rp4091
sg16
F150.0
sg17
VAnglesea
p4092
sg19
g75
sg21
g22
sg23
g24
sg25
Nsg26
g27
sg28
g4085
sg29
Nsg30
g10
sg31
VAlcoa of Australia Ltd
p4093
sg33
I2012
sg34
g2
(g35
g4
Ntp4094
Rp4095
(dp4096
g39
F-38.38605599999994
sg40
g27
sg41
F144.18278900000007
sbsbsVAUS0000298
p4097
g2
(g3
g4
Ntp4098
Rp4099
(dp4100
g8
Nsg9
g10
sg11
g12
((lp4101
tp4102
Rp4103
sg16
F1.0
sg17
VWest Illawarra Leagues Club
p4104
sg19
g209
sg21
g22
sg23
g24
sg25
Nsg26
g27
sg28
g4097
sg29
Nsg30
g10
sg31
VWest Illawarra Leagues Club
p4105
sg33
I2012
sg34
g2
(g35
g4
Ntp4106
Rp4107
(dp4108
g39
F-34.45153699999997
sg40
g27
sg41
F150.84290700000008
sbsbsVAUS0000299
p4109
g2
(g3
g4
Ntp4110
Rp4111
(dp4112
g8
Nsg9
g10
sg11
g12
((lp4113
tp4114
Rp4115
sg16
F1.3
sg17
VWestern Suburbs Leagues Club (Campbelltown)
p4116
sg19
g209
sg21
g22
sg23
g24
sg25
Nsg26
g27
sg28
g4109
sg29
Nsg30
g10
sg31
VWestern Suburbs Leagues Club (Campbelltown)
p4117
sg33
I2012
sg34
g2
(g35
g4
Ntp4118
Rp4119
(dp4120
g39
F-34.05132599999996
sg40
g27
sg41
F150.8328600000001
sbsbsVAUS0000111
p4121
g2
(g3
g4
Ntp4122
Rp4123
(dp4124
g8
Nsg9
g10
sg11
g12
((lp4125
tp4126
Rp4127
sg16
F44.0
sg17
VCape Nelson South Wind Farm
p4128
sg19
g184
sg21
g22
sg23
g24
sg25
Nsg26
g27
sg28
g4121
sg29
Nsg30
g10
sg31
VPacific Hydro Pty Ltd
p4129
sg33
I2012
sg34
g2
(g35
g4
Ntp4130
Rp4131
(dp4132
g39
F-38.41199999999998
sg40
g27
sg41
F141.54300000000012
sbsbsVAUS0000110
p4133
g2
(g3
g4
Ntp4134
Rp4135
(dp4136
g8
Nsg9
g10
sg11
g12
((lp4137
tp4138
Rp4139
sg16
F54.0
sg17
VCape Sir William Grant Wind Farm
p4140
sg19
g184
sg21
g22
sg23
g24
sg25
Nsg26
g27
sg28
g4133
sg29
Nsg30
g10
sg31
VPacific Hydro Pty Ltd
p4141
sg33
I2012
sg34
g2
(g35
g4
Ntp4142
Rp4143
(dp4144
g39
F-38.39759299999997
sg40
g27
sg41
F141.62085000000002
sbsbsVAUS0000368
p4145
g2
(g3
g4
Ntp4146
Rp4147
(dp4148
g8
Nsg9
g10
sg11
g12
((lp4149
tp4150
Rp4151
sg16
F3.69
sg17
VHalls Creek
p4152
sg19
g20
sg21
g22
sg23
g24
sg25
Nsg26
g27
sg28
g4145
sg29
Nsg30
g10
sg31
VEnergy Developments Ltd
p4153
sg33
I2012
sg34
g2
(g35
g4
Ntp4154
Rp4155
(dp4156
g39
F-18.232751479999934
sg40
g27
sg41
F127.66189702200006
sbsbsVAUS0000369
p4157
g2
(g3
g4
Ntp4158
Rp4159
(dp4160
g8
Nsg9
g10
sg11
g12
((lp4161
tp4162
Rp4163
sg16
F1.3
sg17
VWarmun
p4164
sg19
g209
sg21
g22
sg23
g24
sg25
Nsg26
g27
sg28
g4157
sg29
Nsg30
g10
sg31
VEnergy Developments Ltd
p4165
sg33
I2012
sg34
g2
(g35
g4
Ntp4166
Rp4167
(dp4168
g39
F-17.025883502999932
sg40
g27
sg41
F128.21131963900007
sbsbsVAUS0000414
p4169
g2
(g3
g4
Ntp4170
Rp4171
(dp4172
g8
Nsg9
g10
sg11
g12
((lp4173
tp4174
Rp4175
sg16
F1.04
sg17
VCamballin
p4176
sg19
g20
sg21
g22
sg23
g24
sg25
Nsg26
g27
sg28
g4169
sg29
Nsg30
g10
sg31
VEnergy Developments Ltd
p4177
sg33
I2012
sg34
g2
(g35
g4
Ntp4178
Rp4179
(dp4180
g39
F-18.027757491999978
sg40
g27
sg41
F124.16208514900006
sbsbsVAUS0000415
p4181
g2
(g3
g4
Ntp4182
Rp4183
(dp4184
g8
Nsg9
g10
sg11
g12
((lp4185
tp4186
Rp4187
sg16
F16.5
sg17
VCawse Nickel Mine
p4188
sg19
g20
sg21
g22
sg23
g24
sg25
Nsg26
g27
sg28
g4181
sg29
Nsg30
g10
sg31
g27
sg33
I2012
sg34
g2
(g35
g4
Ntp4189
Rp4190
(dp4191
g39
F-30.380805807999934
sg40
g27
sg41
F121.16348091600003
sbsbsVAUS0000412
p4192
g2
(g3
g4
Ntp4193
Rp4194
(dp4195
g8
Nsg9
g10
sg11
g12
((lp4196
tp4197
Rp4198
sg16
F1.3
sg17
VHopetoun Diesel Backup
p4199
sg19
g209
sg21
g22
sg23
g24
sg25
Nsg26
g27
sg28
g4192
sg29
Nsg30
g10
sg31
VVerve Energy
p4200
sg33
I2012
sg34
g2
(g35
g4
Ntp4201
Rp4202
(dp4203
g39
F-33.90504892299998
sg40
g27
sg41
F120.12993402100005
sbsbsVAUS0000413
p4204
g2
(g3
g4
Ntp4205
Rp4206
(dp4207
g8
Nsg9
g10
sg11
g12
((lp4208
tp4209
Rp4210
sg16
F1.2
sg17
VHopetoun Wind Turbines
p4211
sg19
g184
sg21
g22
sg23
g24
sg25
Nsg26
g27
sg28
g4204
sg29
Nsg30
g10
sg31
VVerve Energy
p4212
sg33
I2012
sg34
g2
(g35
g4
Ntp4213
Rp4214
(dp4215
g39
F-33.90776359299997
sg40
g27
sg41
F120.1296811840001
sbsbsVAUS0000410
p4216
g2
(g3
g4
Ntp4217
Rp4218
(dp4219
g8
Nsg9
g10
sg11
g12
((lp4220
tp4221
Rp4222
sg16
F0.3
sg17
VMenzies
p4223
sg19
g209
sg21
g22
sg23
g24
sg25
Nsg26
g27
sg28
g4216
sg29
Nsg30
g10
sg31
g27
sg33
I2012
sg34
g2
(g35
g4
Ntp4224
Rp4225
(dp4226
g39
F-29.690601898999944
sg40
g27
sg41
F121.0251779460001
sbsbsVAUS0000411
p4227
g2
(g3
g4
Ntp4228
Rp4229
(dp4230
g8
Nsg9
g10
sg11
g12
((lp4231
tp4232
Rp4233
sg16
F3.6
sg17
VOnslow
p4234
sg19
g20
sg21
g22
sg23
g24
sg25
Nsg26
g27
sg28
g4227
sg29
Nsg30
g10
sg31
g27
sg33
I2012
sg34
g2
(g35
g4
Ntp4235
Rp4236
(dp4237
g39
F-21.65822155199993
sg40
g27
sg41
F115.09902478800007
sbsbsVAUS0000360
p4238
g2
(g3
g4
Ntp4239
Rp4240
(dp4241
g8
Nsg9
g10
sg11
g12
((lp4242
tp4243
Rp4244
sg16
F0.8
sg17
VCue
p4245
sg19
g209
sg21
g22
sg23
g24
sg25
Nsg26
g27
sg28
g4238
sg29
Nsg30
g10
sg31
VEnergy Developments
p4246
sg33
I2012
sg34
g2
(g35
g4
Ntp4247
Rp4248
(dp4249
g39
F-27.421247747999928
sg40
g27
sg41
F117.88948432200004
sbsbsVAUS0000361
p4250
g2
(g3
g4
Ntp4251
Rp4252
(dp4253
g8
Nsg9
g10
sg11
g12
((lp4254
tp4255
Rp4256
sg16
F0.4
sg17
VSandstone
p4257
sg19
g209
sg21
g22
sg23
g24
sg25
Nsg26
g27
sg28
g4250
sg29
Nsg30
g10
sg31
VEnergy Developments
p4258
sg33
I2012
sg34
g2
(g35
g4
Ntp4259
Rp4260
(dp4261
g39
F-27.985269348999964
sg40
g27
sg41
F119.29495929900008
sbsbsVAUS0000362
p4262
g2
(g3
g4
Ntp4263
Rp4264
(dp4265
g8
Nsg9
g10
sg11
g12
((lp4266
tp4267
Rp4268
sg16
F0.2
sg17
VNullagine Solar Farm
p4269
sg19
g967
sg21
g22
sg23
g24
sg25
Nsg26
g27
sg28
g4262
sg29
Nsg30
g10
sg31
VHorizon Power
p4270
sg33
I2012
sg34
g2
(g35
g4
Ntp4271
Rp4272
(dp4273
g39
F-21.87950110099996
sg40
g27
sg41
F120.11172335900005
sbsbsVAUS0000363
p4274
g2
(g3
g4
Ntp4275
Rp4276
(dp4277
g8
Nsg9
g10
sg11
g12
((lp4278
tp4279
Rp4280
sg16
F0.96
sg17
VNullagine Diesel Backup
p4281
sg19
g209
sg21
g22
sg23
g24
sg25
Nsg26
g27
sg28
g4274
sg29
Nsg30
g10
sg31
VHorizon Power
p4282
sg33
I2012
sg34
g2
(g35
g4
Ntp4283
Rp4284
(dp4285
g39
F-21.87944414599997
sg40
g27
sg41
F120.112862457
sbsbsVAUS0000364
p4286
g2
(g3
g4
Ntp4287
Rp4288
(dp4289
g8
Nsg9
g10
sg11
g12
((lp4290
tp4291
Rp4292
sg16
F0.3
sg17
VMarble Bar Solar Farm
p4293
sg19
g967
sg21
g22
sg23
g24
sg25
Nsg26
g27
sg28
g4286
sg29
Nsg30
g10
sg31
VHorizon Power
p4294
sg33
I2012
sg34
g2
(g35
g4
Ntp4295
Rp4296
(dp4297
g39
F-21.164344633999974
sg40
g27
sg41
F119.7412000060001
sbsbsVAUS0000365
p4298
g2
(g3
g4
Ntp4299
Rp4300
(dp4301
g8
Nsg9
g10
sg11
g12
((lp4302
tp4303
Rp4304
sg16
F1.28
sg17
VMarble Bar Diesel Backup
p4305
sg19
g209
sg21
g22
sg23
g24
sg25
Nsg26
g27
sg28
g4298
sg29
Nsg30
g10
sg31
VHorizon Power
p4306
sg33
I2012
sg34
g2
(g35
g4
Ntp4307
Rp4308
(dp4309
g39
F-21.164922926999964
sg40
g27
sg41
F119.74185150000005
sbsbsVAUS0000366
p4310
g2
(g3
g4
Ntp4311
Rp4312
(dp4313
g8
Nsg9
g10
sg11
g12
((lp4314
tp4315
Rp4316
sg16
F12.53
sg17
VDerby
p4317
sg19
g20
sg21
g22
sg23
g24
sg25
Nsg26
g27
sg28
g4310
sg29
Nsg30
g10
sg31
VEnergy Developments Ltd
p4318
sg33
I2012
sg34
g2
(g35
g4
Ntp4319
Rp4320
(dp4321
g39
F-17.31414106999995
sg40
g27
sg41
F123.64414998000007
sbsbsVAUS0000367
p4322
g2
(g3
g4
Ntp4323
Rp4324
(dp4325
g8
Nsg9
g10
sg11
g12
((lp4326
tp4327
Rp4328
sg16
F4.06
sg17
VFitzroy Crossing
p4329
sg19
g20
sg21
g22
sg23
g24
sg25
Nsg26
g27
sg28
g4322
sg29
Nsg30
g10
sg31
VEnergy Developments Ltd
p4330
sg33
I2012
sg34
g2
(g35
g4
Ntp4331
Rp4332
(dp4333
g39
F-18.195575047999967
sg40
g27
sg41
F125.55971118500008
sbsbsVAUS0000203
p4334
g2
(g3
g4
Ntp4335
Rp4336
(dp4337
g8
Nsg9
g10
sg11
g12
((lp4338
tp4339
Rp4340
sg16
F98.0
sg17
VWagerup Bauxite Mine and Alumina Refinery
p4341
sg19
g20
sg21
g22
sg23
g24
sg25
Nsg26
g27
sg28
g4334
sg29
Nsg30
g10
sg31
VAlcoa of Australia Ltd
p4342
sg33
I2012
sg34
g2
(g35
g4
Ntp4343
Rp4344
(dp4345
g39
F-32.91449499999993
sg40
g27
sg41
F115.91699500000004
sbsbsVAUS0000202
p4346
g2
(g3
g4
Ntp4347
Rp4348
(dp4349
g8
Nsg9
g10
sg11
g12
((lp4350
tp4351
Rp4352
sg16
F56.0
sg17
VRavensthorpe
p4353
sg19
g209
sg21
g22
sg23
g24
sg25
Nsg26
g27
sg28
g4346
sg29
Nsg30
g10
sg31
VFirst Quantum Minerals
p4354
sg33
I2012
sg34
g2
(g35
g4
Ntp4355
Rp4356
(dp4357
g39
F-33.60999999999996
sg40
g27
sg41
F120.36000000000001
sbsbsVAUS0000168
p4358
g2
(g3
g4
Ntp4359
Rp4360
(dp4361
g8
Nsg9
g10
sg11
g12
((lp4362
tp4363
Rp4364
sg16
F1460.0
sg17
VStanwell
p4365
sg19
g75
sg21
g22
sg23
g24
sg25
Nsg26
g27
sg28
g4358
sg29
Nsg30
g10
sg31
VStanwell Corporation Ltd
p4366
sg33
I2012
sg34
g2
(g35
g4
Ntp4367
Rp4368
(dp4369
g39
F-23.50971999999996
sg40
g27
sg41
F150.31946600000003
sbsbsVAUS0000169
p4370
g2
(g3
g4
Ntp4371
Rp4372
(dp4373
g8
Nsg9
g10
sg11
g12
((lp4374
tp4375
Rp4376
sg16
F15.0
sg17
VTarong
p4377
sg19
g209
sg21
g22
sg23
g24
sg25
Nsg26
g27
sg28
g4370
sg29
Nsg30
g10
sg31
VTarong Energy Corporation
p4378
sg33
I2012
sg34
g2
(g35
g4
Ntp4379
Rp4380
(dp4381
g39
F-26.785766999999964
sg40
g27
sg41
F151.91716400000007
sbsbsVAUS0000207
p4382
g2
(g3
g4
Ntp4383
Rp4384
(dp4385
g8
Nsg9
g10
sg11
g12
((lp4386
tp4387
Rp4388
sg16
F1.9
sg17
VMount Magnet
p4389
sg19
g20
sg21
g22
sg23
g24
sg25
Nsg26
g27
sg28
g4382
sg29
Nsg30
g10
sg31
g27
sg33
I2012
sg34
g2
(g35
g4
Ntp4390
Rp4391
(dp4392
g39
F-28.087084337999954
sg40
g27
sg41
F117.83271097700003
sbsbsVAUS0000206
p4393
g2
(g3
g4
Ntp4394
Rp4395
(dp4396
g8
Nsg9
g10
sg11
g12
((lp4397
tp4398
Rp4399
sg16
F126.0
sg17
VPort Hedland
p4400
sg19
g20
sg21
g22
sg23
g24
sg25
Nsg26
g27
sg28
g4393
sg29
Nsg30
g10
sg31
VAlinta Energy
p4401
sg33
I2012
sg34
g2
(g35
g4
Ntp4402
Rp4403
(dp4404
g39
F-20.42829999999998
sg40
g27
sg41
F118.54980000000012
sbsbsVAUS0000205
p4405
g2
(g3
g4
Ntp4406
Rp4407
(dp4408
g8
Nsg9
g10
sg11
g12
((lp4409
tp4410
Rp4411
sg16
F60.0
sg17
VWest Kalgoorlie
p4412
sg19
g209
sg21
g22
sg23
g24
sg25
Nsg26
g27
sg28
g4405
sg29
Nsg30
g10
sg31
VVerve Energy
p4413
sg33
I2012
sg34
g2
(g35
g4
Ntp4414
Rp4415
(dp4416
g39
F-30.78063499999996
sg40
g27
sg41
F121.42335500000002
sbsbsVAUS0000204
p4417
g2
(g3
g4
Ntp4418
Rp4419
(dp4420
g8
Nsg9
g10
sg11
g12
((lp4421
tp4422
Rp4423
sg16
F380.0
sg17
VWagerup
p4424
sg19
g20
sg21
g22
sg23
g24
sg25
Nsg26
g27
sg28
g4417
sg29
Nsg30
g10
sg31
VAlinta Energy
p4425
sg33
I2012
sg34
g2
(g35
g4
Ntp4426
Rp4427
(dp4428
g39
F-32.916016999999954
sg40
g27
sg41
F115.91864700000008
sbsbsVAUS0000162
p4429
g2
(g3
g4
Ntp4430
Rp4431
(dp4432
g8
Nsg9
g10
sg11
g12
((lp4433
tp4434
Rp4435
sg16
F744.0
sg17
VKogan Creek
p4436
sg19
g75
sg21
g22
sg23
g24
sg25
Nsg26
g27
sg28
g4429
sg29
Nsg30
g10
sg31
VCS Energy
p4437
sg33
I2013
sg34
g2
(g35
g4
Ntp4438
Rp4439
(dp4440
g39
F-26.917683332999957
sg40
g27
sg41
F150.7492833330001
sbsbsVAUS0000163
p4441
g2
(g3
g4
Ntp4442
Rp4443
(dp4444
g8
Nsg9
g10
sg11
g12
((lp4445
tp4446
Rp4447
sg16
F856.0
sg17
VMillmerran
p4448
sg19
g75
sg21
g22
sg23
g24
sg25
Nsg26
g27
sg28
g4441
sg29
Nsg30
g10
sg31
VIntergen
p4449
sg33
I2012
sg34
g2
(g35
g4
Ntp4450
Rp4451
(dp4452
g39
F-27.96154199999995
sg40
g27
sg41
F151.278949
sbsbsVAUS0000160
p4453
g2
(g3
g4
Ntp4454
Rp4455
(dp4456
g8
Nsg9
g10
sg11
g12
((lp4457
tp4458
Rp4459
sg16
F9.0
sg17
VKalamia Sugar Mill
p4460
sg19
g306
sg21
g22
sg23
g24
sg25
Nsg26
g27
sg28
g4453
sg29
Nsg30
g10
sg31
VSucrogen (Kalamia) Pty ltd
p4461
sg33
I2012
sg34
g2
(g35
g4
Ntp4462
Rp4463
(dp4464
g39
F-19.52233899999993
sg40
g27
sg41
F147.41523700000005
sbsbsVAUS0000161
p4465
g2
(g3
g4
Ntp4466
Rp4467
(dp4468
g8
Nsg9
g10
sg11
g12
((lp4469
tp4470
Rp4471
sg16
F88.0
sg17
VKareeya
p4472
sg19
g62
sg21
g22
sg23
g24
sg25
Nsg26
g27
sg28
g4465
sg29
Nsg30
g10
sg31
VStanwell Corporation Ltd
p4473
sg33
I2012
sg34
g2
(g35
g4
Ntp4474
Rp4475
(dp4476
g39
F-17.767001999999934
sg40
g27
sg41
F145.5778650000001
sbsbsVAUS0000166
p4477
g2
(g3
g4
Ntp4478
Rp4479
(dp4480
g8
Nsg9
g10
sg11
g12
((lp4481
tp4482
Rp4483
sg16
F282.0
sg17
VOakey
p4484
sg19
g20
sg21
g22
sg23
g24
sg25
Nsg26
g27
sg28
g4477
sg29
Nsg30
g10
sg31
VOakey Power Pty Ltd
p4485
sg33
I2012
sg34
g2
(g35
g4
Ntp4486
Rp4487
(dp4488
g39
F-27.418361999999945
sg40
g27
sg41
F151.67976700000008
sbsbsVAUS0000167
p4489
g2
(g3
g4
Ntp4490
Rp4491
(dp4492
g8
Nsg9
g10
sg11
g12
((lp4493
tp4494
Rp4495
sg16
F20.0
sg17
VOaky Creek
p4496
sg19
g20
sg21
g22
sg23
g24
sg25
Nsg26
g27
sg28
g4489
sg29
Nsg30
g10
sg31
VEnvironGen (Oaky) Pty Ltd
p4497
sg33
I2012
sg34
g2
(g35
g4
Ntp4498
Rp4499
(dp4500
g39
F-22.98777599999994
sg40
g27
sg41
F148.58170200000006
sbsbsVAUS0000164
p4501
g2
(g3
g4
Ntp4502
Rp4503
(dp4504
g8
Nsg9
g10
sg11
g12
((lp4505
tp4506
Rp4507
sg16
F12.0
sg17
VMoranbah
p4508
sg19
g20
sg21
g22
sg23
g24
sg25
Nsg26
g27
sg28
g4501
sg29
Nsg30
g10
sg31
VEnergy Developments Ltd
p4509
sg33
I2012
sg34
g2
(g35
g4
Ntp4510
Rp4511
(dp4512
g39
F-21.98513020799993
sg40
g27
sg41
F148.02464716200006
sbsbsVAUS0000165
p4513
g2
(g3
g4
Ntp4514
Rp4515
(dp4516
g8
Nsg9
g10
sg11
g12
((lp4517
tp4518
Rp4519
sg16
F424.0
sg17
VMount Stuart
p4520
sg19
g209
sg21
g22
sg23
g24
sg25
Nsg26
g27
sg28
g4513
sg29
Nsg30
g10
sg31
VOrigin Energy
p4521
sg33
I2012
sg34
g2
(g35
g4
Ntp4522
Rp4523
(dp4524
g39
F-19.33799799999997
sg40
g27
sg41
F146.85117100000002
sbsbsVAUS0000067
p4525
g2
(g3
g4
Ntp4526
Rp4527
(dp4528
g8
Nsg9
g10
sg11
g12
((lp4529
tp4530
Rp4531
sg16
F4.4
sg17
VWollert
p4532
sg19
g246
sg21
g22
sg23
g24
sg25
Nsg26
g27
sg28
g4525
sg29
Nsg30
g10
sg31
VLMS Energy Generation Pty Ltd
p4533
sg33
I2012
sg34
g2
(g35
g4
Ntp4534
Rp4535
(dp4536
g39
F-37.582956999999965
sg40
g27
sg41
F145.04870400000004
sbsbsVAUS0000066
p4537
g2
(g3
g4
Ntp4538
Rp4539
(dp4540
g8
Nsg9
g10
sg11
g12
((lp4541
tp4542
Rp4543
sg16
F1.1
sg17
VWyndham
p4544
sg19
g246
sg21
g22
sg23
g24
sg25
Nsg26
g27
sg28
g4537
sg29
Nsg30
g10
sg31
VLMS Energy
p4545
sg33
I2012
sg34
g2
(g35
g4
Ntp4546
Rp4547
(dp4548
g39
F-37.93748799999997
sg40
g27
sg41
F144.59017900000003
sbsbsVAUS0000065
p4549
g2
(g3
g4
Ntp4550
Rp4551
(dp4552
g8
Nsg9
g10
sg11
g12
((lp4553
tp4554
Rp4555
sg16
F21.6
sg17
VAlbany Wind Farm
p4556
sg19
g184
sg21
g22
sg23
g24
sg25
Nsg26
g27
sg28
g4549
sg29
Nsg30
g10
sg31
VVerve Energy
p4557
sg33
I2012
sg34
g2
(g35
g4
Ntp4558
Rp4559
(dp4560
g39
F-35.064146999999934
sg40
g27
sg41
F117.79769500000009
sbsbsVAUS0000064
p4561
g2
(g3
g4
Ntp4562
Rp4563
(dp4564
g8
Nsg9
g10
sg11
g12
((lp4565
tp4566
Rp4567
sg16
F46.0
sg17
VCanunda Wind Farm
p4568
sg19
g184
sg21
g22
sg23
g24
sg25
Nsg26
g27
sg28
g4561
sg29
Nsg30
g10
sg31
VInternational Power - GDF Suez Australia
p4569
sg33
I2012
sg34
g2
(g35
g4
Ntp4570
Rp4571
(dp4572
g39
F-37.76025335999998
sg40
g27
sg41
F140.40331128800005
sbsbsVAUS0000063
p4573
g2
(g3
g4
Ntp4574
Rp4575
(dp4576
g8
Nsg9
g10
sg11
g12
((lp4577
tp4578
Rp4579
sg16
F66.0
sg17
VCathedral Rocks Wind Farm
p4580
sg19
g184
sg21
g22
sg23
g24
sg25
Nsg26
g27
sg28
g4573
sg29
Nsg30
g10
sg31
VTRUenergy & Acciona Energy
p4581
sg33
I2012
sg34
g2
(g35
g4
Ntp4582
Rp4583
(dp4584
g39
F-34.85086099999995
sg40
g27
sg41
F135.58517200000006
sbsbsVAUS0000062
p4585
g2
(g3
g4
Ntp4586
Rp4587
(dp4588
g8
Nsg9
g10
sg11
g12
((lp4589
tp4590
Rp4591
sg16
F159.0
sg17
VLake Bonney Wind Farm
p4592
sg19
g184
sg21
g22
sg23
g24
sg25
Nsg26
g27
sg28
g4585
sg29
Nsg30
g10
sg31
VInfigen Energy Pty Ltd
p4593
sg33
I2012
sg34
g2
(g35
g4
Ntp4594
Rp4595
(dp4596
g39
F-37.77134988199998
sg40
g27
sg41
F140.39808392700002
sbsbsVAUS0000061
p4597
g2
(g3
g4
Ntp4598
Rp4599
(dp4600
g8
Nsg9
g10
sg11
g12
((lp4601
tp4602
Rp4603
sg16
F70.0
sg17
VMount Millar Wind Farm
p4604
sg19
g184
sg21
g22
sg23
g24
sg25
Nsg26
g27
sg28
g4597
sg29
Nsg30
g10
sg31
VMeridian Energy Australia
p4605
sg33
I2012
sg34
g2
(g35
g4
Ntp4606
Rp4607
(dp4608
g39
F-33.62672799999996
sg40
g27
sg41
F136.704562
sbsbsVAUS0000060
p4609
g2
(g3
g4
Ntp4610
Rp4611
(dp4612
g8
Nsg9
g10
sg11
g12
((lp4613
tp4614
Rp4615
sg16
F30.0
sg17
VRocky Point Sugar Sugar Mill
p4616
sg19
g306
sg21
g22
sg23
g24
sg25
Nsg26
g27
sg28
g4609
sg29
Nsg30
g10
sg31
VStanwell Corporation Ltd
p4617
sg33
I2012
sg34
g2
(g35
g4
Ntp4618
Rp4619
(dp4620
g39
F-27.73344899999995
sg40
g27
sg41
F153.32760700000006
sbsbsVAUS0000069
p4621
g2
(g3
g4
Ntp4622
Rp4623
(dp4624
g8
Nsg9
g10
sg11
g12
((lp4625
tp4626
Rp4627
sg16
F21.0
sg17
VToora Wind Farm
p4628
sg19
g184
sg21
g22
sg23
g24
sg25
Nsg26
g27
sg28
g4621
sg29
Nsg30
g10
sg31
VRATCH-Australia
p4629
sg33
I2012
sg34
g2
(g35
g4
Ntp4630
Rp4631
(dp4632
g39
F-38.645059999999944
sg40
g27
sg41
F146.34413200000006
sbsbsVAUS0000068
p4633
g2
(g3
g4
Ntp4634
Rp4635
(dp4636
g8
Nsg9
g10
sg11
g12
((lp4637
tp4638
Rp4639
sg16
F1.1
sg17
VWhitwood Road
p4640
sg19
g246
sg21
g22
sg23
g24
sg25
Nsg26
g27
sg28
g4633
sg29
Nsg30
g10
sg31
VLMS Energy Generation Pty Ltd
p4641
sg33
I2012
sg34
g2
(g35
g4
Ntp4642
Rp4643
(dp4644
g39
F-27.659013999999956
sg40
g27
sg41
F152.82374300000004
sbsbsVAUS0000028
p4645
g2
(g3
g4
Ntp4646
Rp4647
(dp4648
g8
Nsg9
g10
sg11
g12
((lp4649
tp4650
Rp4651
sg16
F48.3
sg17
VWoodlawn Wind Farm
p4652
sg19
g184
sg21
g22
sg23
g24
sg25
Nsg26
g27
sg28
g4645
sg29
Nsg30
g10
sg31
VInfigen Energy Pty Ltd
p4653
sg33
I2012
sg34
g2
(g35
g4
Ntp4654
Rp4655
(dp4656
g39
F-35.086059700999954
sg40
g27
sg41
F149.57160577900004
sbsbsVAUS0000012
p4657
g2
(g3
g4
Ntp4658
Rp4659
(dp4660
g8
Nsg9
g10
sg11
g12
((lp4661
tp4662
Rp4663
sg16
F5.7
sg17
VPindari
p4664
sg19
g62
sg21
g22
sg23
g24
sg25
Nsg26
g27
sg28
g4657
sg29
Nsg30
g10
sg31
VAGL Energy Pty Ltd
p4665
sg33
I2012
sg34
g2
(g35
g4
Ntp4666
Rp4667
(dp4668
g39
F-29.38862599999993
sg40
g27
sg41
F151.2442020000001
sbsbsVAUS0000013
p4669
g2
(g3
g4
Ntp4670
Rp4671
(dp4672
g8
Nsg9
g10
sg11
g12
((lp4673
tp4674
Rp4675
sg16
F2.2
sg17
VNieterana
p4676
sg19
g62
sg21
g22
sg23
g24
sg25
Nsg26
g27
sg28
g4669
sg29
Nsg30
g10
sg31
VHydro-Electric Corporation (Tasmania)
p4677
sg33
I2012
sg34
g2
(g35
g4
Ntp4678
Rp4679
(dp4680
g39
F-42.26858699999997
sg40
g27
sg41
F146.2628830000001
sbsbsVAUS0000010
p4681
g2
(g3
g4
Ntp4682
Rp4683
(dp4684
g8
Nsg9
g10
sg11
g12
((lp4685
tp4686
Rp4687
sg16
F75.0
sg17
VStudland Bay (Woolnorth) Wind Farm
p4688
sg19
g184
sg21
g22
sg23
g24
sg25
Nsg26
g27
sg28
g4681
sg29
Nsg30
g10
sg31
VHydro-Electric Corporation (Tasmania)
p4689
sg33
I2012
sg34
g2
(g35
g4
Ntp4690
Rp4691
(dp4692
g39
F-40.778753999999935
sg40
g27
sg41
F144.73620400000004
sbsbsVAUS0000011
p4693
g2
(g3
g4
Ntp4694
Rp4695
(dp4696
g8
Nsg9
g10
sg11
g12
((lp4697
tp4698
Rp4699
sg16
F2.5
sg17
VThe Drop
p4700
sg19
g62
sg21
g22
sg23
g24
sg25
Nsg26
g27
sg28
g4693
sg29
Nsg30
g10
sg31
VPacific Hydro Investments Pty Ltd
p4701
sg33
I2012
sg34
g2
(g35
g4
Ntp4702
Rp4703
(dp4704
g39
F-35.60434699999996
sg40
g27
sg41
F145.78372500000012
sbsbsVAUS0000016
p4705
g2
(g3
g4
Ntp4706
Rp4707
(dp4708
g8
Nsg9
g10
sg11
g12
((lp4709
tp4710
Rp4711
sg16
F67.2
sg17
VOakland Hills Wind Farm
p4712
sg19
g184
sg21
g22
sg23
g24
sg25
Nsg26
g27
sg28
g4705
sg29
Nsg30
g10
sg31
VAGL Energy Pty Ltd
p4713
sg33
I2012
sg34
g2
(g35
g4
Ntp4714
Rp4715
(dp4716
g39
F-37.66380099999998
sg40
g27
sg41
F142.5480560000001
sbsbsVAUS0000017
p4717
g2
(g3
g4
Ntp4718
Rp4719
(dp4720
g8
Nsg9
g10
sg11
g12
((lp4721
tp4722
Rp4723
sg16
F1.1
sg17
VShepparton Biogas Generation Plant
p4724
sg19
g246
sg21
g22
sg23
g24
sg25
Nsg26
g27
sg28
g4717
sg29
Nsg30
g10
sg31
VDiamond Energy Pty Ltd
p4725
sg33
I2012
sg34
g2
(g35
g4
Ntp4726
Rp4727
(dp4728
g39
F-36.321774999999946
sg40
g27
sg41
F145.37898300000006
sbsbsVAUS0000014
p4729
g2
(g3
g4
Ntp4730
Rp4731
(dp4732
g8
Nsg9
g10
sg11
g12
((lp4733
tp4734
Rp4735
sg16
F12.5
sg17
VBanimboola
p4736
sg19
g62
sg21
g22
sg23
g24
sg25
Nsg26
g27
sg28
g4729
sg29
Nsg30
g10
sg31
VAGL Energy Pty Ltd
p4737
sg33
I2012
sg34
g2
(g35
g4
Ntp4738
Rp4739
(dp4740
g39
F-36.534208999999976
sg40
g27
sg41
F147.45942600000012
sbsbsVAUS0000015
p4741
g2
(g3
g4
Ntp4742
Rp4743
(dp4744
g8
Nsg9
g10
sg11
g12
((lp4745
tp4746
Rp4747
sg16
F18.2
sg17
VCodrington Wind Farm
p4748
sg19
g184
sg21
g22
sg23
g24
sg25
Nsg26
g27
sg28
g4741
sg29
Nsg30
g10
sg31
VEnergy Pacific (Victoria) Pty Ltd
p4749
sg33
I2012
sg34
g2
(g35
g4
Ntp4750
Rp4751
(dp4752
g39
F-38.28351622699995
sg40
g27
sg41
F141.9547286720001
sbsbsVAUS0000018
p4753
g2
(g3
g4
Ntp4754
Rp4755
(dp4756
g8
Nsg9
g10
sg11
g12
((lp4757
tp4758
Rp4759
sg16
F1.1
sg17
VTatura Biogas Generation Plant
p4760
sg19
g246
sg21
g22
sg23
g24
sg25
Nsg26
g27
sg28
g4753
sg29
Nsg30
g10
sg31
VDiamond Energy Pty Ltd
p4761
sg33
I2012
sg34
g2
(g35
g4
Ntp4762
Rp4763
(dp4764
g39
F-36.47926099999995
sg40
g27
sg41
F145.23502600000006
sbsbsVAUS0000019
p4765
g2
(g3
g4
Ntp4766
Rp4767
(dp4768
g8
Nsg9
g10
sg11
g12
((lp4769
tp4770
Rp4771
sg16
F192.0
sg17
VWaubra Wind Farm
p4772
sg19
g184
sg21
g22
sg23
g24
sg25
Nsg26
g27
sg28
g4765
sg29
Nsg30
g10
sg31
VAcciona Energy Australia
p4773
sg33
I2012
sg34
g2
(g35
g4
Ntp4774
Rp4775
(dp4776
g39
F-37.355981499999984
sg40
g27
sg41
F143.6059150000001
sbsbsVAUS0000158
p4777
g2
(g3
g4
Ntp4778
Rp4779
(dp4780
g8
Nsg9
g10
sg11
g12
((lp4781
tp4782
Rp4783
sg16
F1680.0
sg17
VGladstone
p4784
sg19
g75
sg21
g22
sg23
g24
sg25
Nsg26
g27
sg28
g4777
sg29
Nsg30
g10
sg31
VGPS Joint Venture
p4785
sg33
I2012
sg34
g2
(g35
g4
Ntp4786
Rp4787
(dp4788
g39
F-23.85075299999994
sg40
g27
sg41
F151.21865300000002
sbsbsVAUS0000058
p4789
g2
(g3
g4
Ntp4790
Rp4791
(dp4792
g8
Nsg9
g10
sg11
g12
((lp4793
tp4794
Rp4795
sg16
F2.5
sg17
VTerminal Storage
p4796
sg19
g62
sg21
g22
sg23
g24
sg25
Nsg26
g27
sg28
g4789
sg29
Nsg30
g10
sg31
VHydro-Electric Corp Tasmania/SA Water
p4797
sg33
I2012
sg34
g2
(g35
g4
Ntp4798
Rp4799
(dp4800
g39
F-34.83932299999998
sg40
g27
sg41
F138.711226
sbsbsVAUS0000059
p4801
g2
(g3
g4
Ntp4802
Rp4803
(dp4804
g8
Nsg9
g10
sg11
g12
((lp4805
tp4806
Rp4807
sg16
F1.5
sg17
VSuncoast Gold Macadamia
p4808
sg19
g306
sg21
g22
sg23
g24
sg25
Nsg26
g27
sg28
g4801
sg29
Nsg30
g10
sg31
VAGL Energy Pty Ltd
p4809
sg33
I2012
sg34
g2
(g35
g4
Ntp4810
Rp4811
(dp4812
g39
F-26.226124999999968
sg40
g27
sg41
F152.69810200000006
sbsbsVAUS0000457
p4813
g2
(g3
g4
Ntp4814
Rp4815
(dp4816
g8
Nsg9
g10
sg11
g12
((lp4817
tp4818
Rp4819
sg16
F450.0
sg17
VCape Preston
p4820
sg19
g20
sg21
g22
sg23
g24
sg25
Nsg26
g27
sg28
g4813
sg29
Nsg30
g10
sg31
VCitic Pacific Mining
p4821
sg33
Nsg34
g2
(g35
g4
Ntp4822
Rp4823
(dp4824
g39
F-21.076706137999963
sg40
g27
sg41
F116.15901566800005
sbsbsVAUS0000455
p4825
g2
(g3
g4
Ntp4826
Rp4827
(dp4828
g8
Nsg9
g10
sg11
g12
((lp4829
tp4830
Rp4831
sg16
F71.4
sg17
VHallett 2 Hallet Hill  Wind Farm
p4832
sg19
g184
sg21
g22
sg23
g24
sg25
Nsg26
g27
sg28
g4825
sg29
Nsg30
g10
sg31
VANZ Energy Infrastructure Trust
p4833
sg33
I2012
sg34
g2
(g35
g4
Ntp4834
Rp4835
(dp4836
g39
F-33.57166811999997
sg40
g27
sg41
F138.85795056000006
sbsbsVAUS0000249
p4837
g2
(g3
g4
Ntp4838
Rp4839
(dp4840
g8
Nsg9
g10
sg11
g12
((lp4841
tp4842
Rp4843
sg16
F90.0
sg17
VMintaro
p4844
sg19
g20
sg21
g22
sg23
g24
sg25
Nsg26
g27
sg28
g4837
sg29
Nsg30
g10
sg31
VSynergen Power
p4845
sg33
I2012
sg34
g2
(g35
g4
Ntp4846
Rp4847
(dp4848
g39
F-33.90309999999994
sg40
g27
sg41
F138.7383000000001
sbsbsVAUS0000248
p4849
g2
(g3
g4
Ntp4850
Rp4851
(dp4852
g8
Nsg9
g10
sg11
g12
((lp4853
tp4854
Rp4855
sg16
F530.0
sg17
VNorthern
p4856
sg19
g75
sg21
g22
sg23
g24
sg25
Nsg26
g27
sg28
g4849
sg29
Nsg30
g10
sg31
VAlinta Energy
p4857
sg33
I2012
sg34
g2
(g35
g4
Ntp4858
Rp4859
(dp4860
g39
F-32.54325399999993
sg40
g27
sg41
F137.78820400000006
sbsbsVAUS0000247
p4861
g2
(g3
g4
Ntp4862
Rp4863
(dp4864
g8
Nsg9
g10
sg11
g12
((lp4865
tp4866
Rp4867
sg16
F240.0
sg17
VPlayford
p4868
sg19
g75
sg21
g22
sg23
g24
sg25
Nsg26
g27
sg28
g4861
sg29
Nsg30
g10
sg31
VAlinta Energy
p4869
sg33
I2012
sg34
g2
(g35
g4
Ntp4870
Rp4871
(dp4872
g39
F-32.539278999999965
sg40
g27
sg41
F137.78188000000011
sbsbsVAUS0000246
p4873
g2
(g3
g4
Ntp4874
Rp4875
(dp4876
g8
Nsg9
g10
sg11
g12
((lp4877
tp4878
Rp4879
sg16
Nsg17
VSnowtown
p4880
sg19
g20
sg21
g22
sg23
g24
sg25
Nsg26
g27
sg28
g4873
sg29
Nsg30
g10
sg31
g27
sg33
I2012
sg34
g2
(g35
g4
Ntp4881
Rp4882
(dp4883
g39
F-33.71386699999994
sg40
g27
sg41
F138.14036700000008
sbsbsVAUS0000245
p4884
g2
(g3
g4
Ntp4885
Rp4886
(dp4887
g8
Nsg9
g10
sg11
g12
((lp4888
tp4889
Rp4890
sg16
F63.0
sg17
VSnuggery
p4891
sg19
g20
sg21
g22
sg23
g24
sg25
Nsg26
g27
sg28
g4884
sg29
Nsg30
g10
sg31
VInternational Power - GDF Suez Australia
p4892
sg33
I2012
sg34
g2
(g35
g4
Ntp4893
Rp4894
(dp4895
g39
F-37.66455099999996
sg40
g27
sg41
F140.41555800000003
sbsbsVAUS0000244
p4896
g2
(g3
g4
Ntp4897
Rp4898
(dp4899
g8
Nsg9
g10
sg11
g12
((lp4900
tp4901
Rp4902
sg16
F80.0
sg17
VLadbroke Grove
p4903
sg19
g20
sg21
g22
sg23
g24
sg25
Nsg26
g27
sg28
g4896
sg29
Nsg30
g10
sg31
VOrigin Energy
p4904
sg33
I2012
sg34
g2
(g35
g4
Ntp4905
Rp4906
(dp4907
g39
F-37.45667299999997
sg40
g27
sg41
F140.7826920000001
sbsbsVAUS0000243
p4908
g2
(g3
g4
Ntp4909
Rp4910
(dp4911
g8
Nsg9
g10
sg11
g12
((lp4912
tp4913
Rp4914
sg16
F4.1
sg17
VWingfield II
p4915
sg19
g246
sg21
g22
sg23
g24
sg25
Nsg26
g27
sg28
g4908
sg29
Nsg30
g10
sg31
VEnergy Developments LFG (SA) Pty Ltd
p4916
sg33
I2012
sg34
g2
(g35
g4
Ntp4917
Rp4918
(dp4919
g39
F-34.83208099999996
sg40
g27
sg41
F138.5489030000001
sbsbsVAUS0000242
p4920
g2
(g3
g4
Ntp4921
Rp4922
(dp4923
g8
Nsg9
g10
sg11
g12
((lp4924
tp4925
Rp4926
sg16
F4.1
sg17
VWingfield I
p4927
sg19
g246
sg21
g22
sg23
g24
sg25
Nsg26
g27
sg28
g4920
sg29
Nsg30
g10
sg31
VEnergy Developments LFG (SA) Pty Ltd
p4928
sg33
I2012
sg34
g2
(g35
g4
Ntp4929
Rp4930
(dp4931
g39
F-34.83481999999998
sg40
g27
sg41
F138.55724700000007
sbsbsVAUS0000241
p4932
g2
(g3
g4
Ntp4933
Rp4934
(dp4935
g8
Nsg9
g10
sg11
g12
((lp4936
tp4937
Rp4938
sg16
F800.0
sg17
VTorrens Island B
p4939
sg19
g20
sg21
g22
sg23
g24
sg25
Nsg26
g27
sg28
g4932
sg29
Nsg30
g10
sg31
VAGL Energy Pty Ltd
p4940
sg33
I2012
sg34
g2
(g35
g4
Ntp4941
Rp4942
(dp4943
g39
F-34.80517099999997
sg40
g27
sg41
F138.52262000000007
sbsbsVAUS0000240
p4944
g2
(g3
g4
Ntp4945
Rp4946
(dp4947
g8
Nsg9
g10
sg11
g12
((lp4948
tp4949
Rp4950
sg16
F480.0
sg17
VTorrens Island A
p4951
sg19
g20
sg21
g22
sg23
g24
sg25
Nsg26
g27
sg28
g4944
sg29
Nsg30
g10
sg31
VAGL Energy Pty Ltd
p4952
sg33
I2012
sg34
g2
(g35
g4
Ntp4953
Rp4954
(dp4955
g39
F-34.806843999999955
sg40
g27
sg41
F138.52132200000005
sbsbsVAUS0000126
p4956
g2
(g3
g4
Ntp4957
Rp4958
(dp4959
g8
Nsg9
g10
sg11
g12
((lp4960
tp4961
Rp4962
sg16
F48.0
sg17
VCatagunya
p4963
sg19
g62
sg21
g22
sg23
g24
sg25
Nsg26
g27
sg28
g4956
sg29
Nsg30
g10
sg31
VHydro-Electric Corporation (Tasmania)
p4964
sg33
I2012
sg34
g2
(g35
g4
Ntp4965
Rp4966
(dp4967
g39
F-42.452380999999946
sg40
g27
sg41
F146.59768700000006
sbsbsVAUS0000088
p4968
g2
(g3
g4
Ntp4969
Rp4970
(dp4971
g8
Nsg9
g10
sg11
g12
((lp4972
tp4973
Rp4974
sg16
F212.0
sg17
VJeeralang A
p4975
sg19
g20
sg21
g22
sg23
g24
sg25
Nsg26
g27
sg28
g4968
sg29
Nsg30
g10
sg31
VIndustry Funds Management Nominees Ltd Ecogen Holdings
p4976
sg33
I2012
sg34
g2
(g35
g4
Ntp4977
Rp4978
(dp4979
g39
F-38.27532499999995
sg40
g27
sg41
F146.4262960000001
sbsbsVAUS0000124
p4980
g2
(g3
g4
Ntp4981
Rp4982
(dp4983
g8
Nsg9
g10
sg11
g12
((lp4984
tp4985
Rp4986
sg16
F32.0
sg17
VLake Echo
p4987
sg19
g62
sg21
g22
sg23
g24
sg25
Nsg26
g27
sg28
g4980
sg29
Nsg30
g10
sg31
VHydro-Electric Corporation (Tasmania)
p4988
sg33
I2012
sg34
g2
(g35
g4
Ntp4989
Rp4990
(dp4991
g39
F-42.253701999999976
sg40
g27
sg41
F146.62069900000006
sbsbsVAUS0000125
p4992
g2
(g3
g4
Ntp4993
Rp4994
(dp4995
g8
Nsg9
g10
sg11
g12
((lp4996
tp4997
Rp4998
sg16
F17.0
sg17
VCluny
p4999
sg19
g62
sg21
g22
sg23
g24
sg25
Nsg26
g27
sg28
g4992
sg29
Nsg30
g10
sg31
VHydro-Electric Corporation (Tasmania)
p5000
sg33
I2012
sg34
g2
(g35
g4
Ntp5001
Rp5002
(dp5003
g39
F-42.506422999999984
sg40
g27
sg41
F146.68116200000009
sbsbsVAUS0000122
p5004
g2
(g3
g4
Ntp5005
Rp5006
(dp5007
g8
Nsg9
g10
sg11
g12
((lp5008
tp5009
Rp5010
sg16
F40.0
sg17
VMeadowbank
p5011
sg19
g62
sg21
g22
sg23
g24
sg25
Nsg26
g27
sg28
g5004
sg29
Nsg30
g10
sg31
VHydro-Electric Corporation (Tasmania)
p5012
sg33
I2012
sg34
g2
(g35
g4
Ntp5013
Rp5014
(dp5015
g39
F-42.61119899999994
sg40
g27
sg41
F146.84567600000003
sbsbsVAUS0000123
p5016
g2
(g3
g4
Ntp5017
Rp5018
(dp5019
g8
Nsg9
g10
sg11
g12
((lp5020
tp5021
Rp5022
sg16
F87.3
sg17
VLiapootah
p5023
sg19
g62
sg21
g22
sg23
g24
sg25
Nsg26
g27
sg28
g5016
sg29
Nsg30
g10
sg31
VHydro-Electric Corporation (Tasmania)
p5024
sg33
I2012
sg34
g2
(g35
g4
Ntp5025
Rp5026
(dp5027
g39
F-42.37631699999997
sg40
g27
sg41
F146.50989000000004
sbsbsVAUS0000120
p5028
g2
(g3
g4
Ntp5029
Rp5030
(dp5031
g8
Nsg9
g10
sg11
g12
((lp5032
tp5033
Rp5034
sg16
F28.0
sg17
VRepulse
p5035
sg19
g62
sg21
g22
sg23
g24
sg25
Nsg26
g27
sg28
g5028
sg29
Nsg30
g10
sg31
VHydro-Electric Corporation (Tasmania)
p5036
sg33
I2012
sg34
g2
(g35
g4
Ntp5037
Rp5038
(dp5039
g39
F-42.507694999999956
sg40
g27
sg41
F146.64696000000004
sbsbsVAUS0000121
p5040
g2
(g3
g4
Ntp5041
Rp5042
(dp5043
g8
Nsg9
g10
sg11
g12
((lp5044
tp5045
Rp5046
sg16
F300.0
sg17
VPoatina
p5047
sg19
g62
sg21
g22
sg23
g24
sg25
Nsg26
g27
sg28
g5040
sg29
Nsg30
g10
sg31
VHydro-Electric Corporation (Tasmania)
p5048
sg33
I2012
sg34
g2
(g35
g4
Ntp5049
Rp5050
(dp5051
g39
F-41.81157299999995
sg40
g27
sg41
F146.9190380000001
sbsbsVAUS0000081
p5052
g2
(g3
g4
Ntp5053
Rp5054
(dp5055
g8
Nsg9
g10
sg11
g12
((lp5056
tp5057
Rp5058
sg16
F94.0
sg17
VBairnsdale
p5059
sg19
g20
sg21
g22
sg23
g24
sg25
Nsg26
g27
sg28
g5052
sg29
Nsg30
g10
sg31
VAlinta DEBO
p5060
sg33
I2012
sg34
g2
(g35
g4
Ntp5061
Rp5062
(dp5063
g39
F-37.842858999999976
sg40
g27
sg41
F147.56393000000003
sbsbsVAUS0000080
p5064
g2
(g3
g4
Ntp5065
Rp5066
(dp5067
g8
Nsg9
g10
sg11
g12
((lp5068
tp5069
Rp5070
sg16
F4.6
sg17
VBerwick
p5071
sg19
g246
sg21
g22
sg23
g24
sg25
Nsg26
g27
sg28
g5064
sg29
Nsg30
g10
sg31
VEnergy Developments LFG (Victoria) Pty Ltd
p5072
sg33
I2012
sg34
g2
(g35
g4
Ntp5073
Rp5074
(dp5075
g39
F-38.11970199999996
sg40
g27
sg41
F145.26646100000005
sbsbsVAUS0000083
p5076
g2
(g3
g4
Ntp5077
Rp5078
(dp5079
g8
Nsg9
g10
sg11
g12
((lp5080
tp5081
Rp5082
sg16
F11.0
sg17
VClayton
p5083
sg19
g246
sg21
g22
sg23
g24
sg25
Nsg26
g27
sg28
g5076
sg29
Nsg30
g10
sg31
VEnergy Developments LFG (Victoria) Pty Ltd
p5084
sg33
I2012
sg34
g2
(g35
g4
Ntp5085
Rp5086
(dp5087
g39
F-37.95019999999994
sg40
g27
sg41
F145.11872200000005
sbsbsVAUS0000082
p5088
g2
(g3
g4
Ntp5089
Rp5090
(dp5091
g8
Nsg9
g10
sg11
g12
((lp5092
tp5093
Rp5094
sg16
F6.2
sg17
VBroadmeadows
p5095
sg19
g246
sg21
g22
sg23
g24
sg25
Nsg26
g27
sg28
g5088
sg29
Nsg30
g10
sg31
VEnergy Developments LFG (Victoria) Pty Ltd
p5096
sg33
I2012
sg34
g2
(g35
g4
Ntp5097
Rp5098
(dp5099
g39
F-37.68778599999996
sg40
g27
sg41
F144.9663190000001
sbsbsVAUS0000085
p5100
g2
(g3
g4
Ntp5101
Rp5102
(dp5103
g8
Nsg9
g10
sg11
g12
((lp5104
tp5105
Rp5106
sg16
F189.0
sg17
VEnergy Brix
p5107
sg19
g75
sg21
g22
sg23
g24
sg25
Nsg26
g27
sg28
g5100
sg29
Nsg30
g10
sg31
VEnergy Brix (Aust) Corp
p5108
sg33
I2012
sg34
g2
(g35
g4
Ntp5109
Rp5110
(dp5111
g39
F-38.25455999999997
sg40
g27
sg41
F146.41372200000012
sbsbsVAUS0000084
p5112
g2
(g3
g4
Ntp5113
Rp5114
(dp5115
g8
Nsg9
g10
sg11
g12
((lp5116
tp5117
Rp5118
sg16
F135.0
sg17
VEildon
p5119
sg19
g62
sg21
g22
sg23
g24
sg25
Nsg26
g27
sg28
g5112
sg29
Nsg30
g10
sg31
VAGL Energy Pty Ltd
p5120
sg33
I2012
sg34
g2
(g35
g4
Ntp5121
Rp5122
(dp5123
g39
F-37.22200499999997
sg40
g27
sg41
F145.92145200000004
sbsbsVAUS0000087
p5124
g2
(g3
g4
Ntp5125
Rp5126
(dp5127
g8
Nsg9
g10
sg11
g12
((lp5128
tp5129
Rp5130
sg16
F1600.0
sg17
VHazelwood
p5131
sg19
g75
sg21
g22
sg23
g24
sg25
Nsg26
g27
sg28
g5124
sg29
Nsg30
g10
sg31
VHazelwood Power
p5132
sg33
I2012
sg34
g2
(g35
g4
Ntp5133
Rp5134
(dp5135
g39
F-38.273102999999935
sg40
g27
sg41
F146.39226300000007
sbsbsVAUS0000086
p5136
g2
(g3
g4
Ntp5137
Rp5138
(dp5139
g8
Nsg9
g10
sg11
g12
((lp5140
tp5141
Rp5142
sg16
F3.8
sg17
VLake Glenmaggie
p5143
sg19
g62
sg21
g22
sg23
g24
sg25
Nsg26
g27
sg28
g5136
sg29
Nsg30
g10
sg31
VPacific Hydro Investments Pty Ltd
p5144
sg33
I2012
sg34
g2
(g35
g4
Ntp5145
Rp5146
(dp5147
g39
F-37.904744999999934
sg40
g27
sg41
F146.80108500000006
sbsbsVAUS0000449
p5148
g2
(g3
g4
Ntp5149
Rp5150
(dp5151
g8
Nsg9
g10
sg11
g12
((lp5152
tp5153
Rp5154
sg16
F8.55
sg17
VKing Island (Currie)
p5155
sg19
g209
sg21
g22
sg23
g24
sg25
Nsg26
g27
sg28
g5148
sg29
Nsg30
g10
sg31
VHydro Tasmania
p5156
sg33
Nsg34
g2
(g35
g4
Ntp5157
Rp5158
(dp5159
g39
F-39.93878522399996
sg40
g27
sg41
F143.891964593
sbsbsVAUS0000448
p5160
g2
(g3
g4
Ntp5161
Rp5162
(dp5163
g8
Nsg9
g10
sg11
g12
((lp5164
tp5165
Rp5166
sg16
F1.5
sg17
VMildura Solar Farm
p5167
sg19
g967
sg21
g22
sg23
g24
sg25
Nsg26
g27
sg28
g5160
sg29
Nsg30
g10
sg31
VSilex Systems
p5168
sg33
I2014
sg34
g2
(g35
g4
Ntp5169
Rp5170
(dp5171
g39
F-34.467089802999965
sg40
g27
sg41
F142.183286693
sbsbsVAUS0000441
p5172
g2
(g3
g4
Ntp5173
Rp5174
(dp5175
g8
Nsg9
g10
sg11
g12
((lp5176
tp5177
Rp5178
sg16
F0.16
sg17
VKogarah Town Square Solar Array
p5179
sg19
g967
sg21
g22
sg23
g24
sg25
Nsg26
g27
sg28
g5172
sg29
Nsg30
g10
sg31
VKogarah Council
p5180
sg33
I2012
sg34
g2
(g35
g4
Ntp5181
Rp5182
(dp5183
g39
F-33.965174529999956
sg40
g27
sg41
F151.1331504310001
sbsbsVAUS0000440
p5184
g2
(g3
g4
Ntp5185
Rp5186
(dp5187
g8
Nsg9
g10
sg11
g12
((lp5188
tp5189
Rp5190
sg16
F0.39
sg17
VSingleton Solar Farm
p5191
sg19
g967
sg21
g22
sg23
g24
sg25
Nsg26
g27
sg28
g5184
sg29
Nsg30
g10
sg31
VAusgrid
p5192
sg33
I2012
sg34
g2
(g35
g4
Ntp5193
Rp5194
(dp5195
g39
F-32.59238450699996
sg40
g27
sg41
F151.18120867400012
sbsbsVAUS0000443
p5196
g2
(g3
g4
Ntp5197
Rp5198
(dp5199
g8
Nsg9
g10
sg11
g12
((lp5200
tp5201
Rp5202
sg16
F10.0
sg17
VMt Gambier
p5203
sg19
g306
sg21
g22
sg23
g24
sg25
Nsg26
g27
sg28
g5196
sg29
Nsg30
g10
sg31
VCarter Holt Harvey Wood Products Australia Pty Limited
p5204
sg33
I2013
sg34
g2
(g35
g4
Ntp5205
Rp5206
(dp5207
g39
F-37.83884532999997
sg40
g27
sg41
F140.8056959710001
sbsbsVAUS0000442
p5208
g2
(g3
g4
Ntp5209
Rp5210
(dp5211
g8
Nsg9
g10
sg11
g12
((lp5212
tp5213
Rp5214
sg16
F0.14
sg17
VStadium Australia
p5215
sg19
g967
sg21
g22
sg23
g24
sg25
Nsg26
g27
sg28
g5208
sg29
Nsg30
g10
sg31
g27
sg33
I2012
sg34
g2
(g35
g4
Ntp5216
Rp5217
(dp5218
g39
F-33.84517807299994
sg40
g27
sg41
F151.06403926100006
sbsbsVAUS0000445
p5219
g2
(g3
g4
Ntp5220
Rp5221
(dp5222
g8
Nsg9
g10
sg11
g12
((lp5223
tp5224
Rp5225
sg16
F2.0
sg17
VVisy Paper Gibson Island
p5226
sg19
g306
sg21
g22
sg23
g24
sg25
Nsg26
g27
sg28
g5219
sg29
Nsg30
g10
sg31
VVisy Pulp & Paper
p5227
sg33
Nsg34
g2
(g35
g4
Ntp5228
Rp5229
(dp5230
g39
F-27.44051322399997
sg40
g27
sg41
F153.11579455700007
sbsbsVAUS0000444
p5231
g2
(g3
g4
Ntp5232
Rp5233
(dp5234
g8
Nsg9
g10
sg11
g12
((lp5235
tp5236
Rp5237
sg16
F1.0
sg17
VNarrogin Bioenergy Plant
p5238
sg19
g306
sg21
g22
sg23
g24
sg25
Nsg26
g27
sg28
g5231
sg29
Nsg30
g10
sg31
VVerve Energy  Western Power  Oil Mallee Co  Enecon P/L
p5239
sg33
I2013
sg34
g2
(g35
g4
Ntp5240
Rp5241
(dp5242
g39
F-32.95211794599993
sg40
g27
sg41
F117.19158099000003
sbsbsVAUS0000447
p5243
g2
(g3
g4
Ntp5244
Rp5245
(dp5246
g8
Nsg9
g10
sg11
g12
((lp5247
tp5248
Rp5249
sg16
F145.0
sg17
VWilpena Solar Farm
p5250
sg19
g967
sg21
g22
sg23
g24
sg25
Nsg26
g27
sg28
g5243
sg29
Nsg30
g10
sg31
VAGL
p5251
sg33
I2014
sg34
g2
(g35
g4
Ntp5252
Rp5253
(dp5254
g39
F-31.523392487999956
sg40
g27
sg41
F138.6197569530001
sbsbsVAUS0000446
p5255
g2
(g3
g4
Ntp5256
Rp5257
(dp5258
g8
Nsg9
g10
sg11
g12
((lp5259
tp5260
Rp5261
sg16
F325.0
sg17
VMica Creek
p5262
sg19
g20
sg21
g22
sg23
g24
sg25
Nsg26
g27
sg28
g5255
sg29
Nsg30
g10
sg31
VStanwell Corporation
p5263
sg33
I2013
sg34
g2
(g35
g4
Ntp5264
Rp5265
(dp5266
g39
F-20.777726239999936
sg40
g27
sg41
F139.49046429100008
sbsbsVAUS0000333
p5267
g2
(g3
g4
Ntp5268
Rp5269
(dp5270
g8
Nsg9
g10
sg11
g12
((lp5271
tp5272
Rp5273
sg16
F1.2
sg17
VMelbourne
p5274
sg19
g20
sg21
g22
sg23
g24
sg25
Nsg26
g27
sg28
g5267
sg29
Nsg30
g10
sg31
VCogent Energy
p5275
sg33
I2012
sg34
g2
(g35
g4
Ntp5276
Rp5277
(dp5278
g39
F-37.808596002999934
sg40
g27
sg41
F144.96848012300006
sbsbsVAUS0000332
p5279
g2
(g3
g4
Ntp5280
Rp5281
(dp5282
g8
Nsg9
g10
sg11
g12
((lp5283
tp5284
Rp5285
sg16
F4.2
sg17
VKRC Cogeneration Plant
p5286
sg19
g20
sg21
g22
sg23
g24
sg25
Nsg26
g27
sg28
g5279
sg29
Nsg30
g10
sg31
VAGL
p5287
sg33
I2012
sg34
g2
(g35
g4
Ntp5288
Rp5289
(dp5290
g39
F-27.445266808999975
sg40
g27
sg41
F153.11846693600012
sbsbsVAUS0000331
p5291
g2
(g3
g4
Ntp5292
Rp5293
(dp5294
g8
Nsg9
g10
sg11
g12
((lp5295
tp5296
Rp5297
sg16
F1.1
sg17
VGosnells
p5298
sg19
g246
sg21
g22
sg23
g24
sg25
Nsg26
g27
sg28
g5291
sg29
Nsg30
g10
sg31
VAGL Energy Pty Ltd
p5299
sg33
I2012
sg34
g2
(g35
g4
Ntp5300
Rp5301
(dp5302
g39
F-32.022750963999954
sg40
g27
sg41
F116.01287154800002
sbsbsVAUS0000239
p5303
g2
(g3
g4
Ntp5304
Rp5305
(dp5306
g8
Nsg9
g10
sg11
g12
((lp5307
tp5308
Rp5309
sg16
F224.0
sg17
VQuarantine
p5310
sg19
g20
sg21
g22
sg23
g24
sg25
Nsg26
g27
sg28
g5303
sg29
Nsg30
g10
sg31
VOrigin Energy
p5311
sg33
I2012
sg34
g2
(g35
g4
Ntp5312
Rp5313
(dp5314
g39
F-34.77928399999996
sg40
g27
sg41
F138.52235200000007
sbsbsVAUS0000337
p5315
g2
(g3
g4
Ntp5316
Rp5317
(dp5318
g8
Nsg9
g10
sg11
g12
((lp5319
tp5320
Rp5321
sg16
F0.25
sg17
VSouth East Water Hallam Plant
p5322
sg19
g62
sg21
g22
sg23
g24
sg25
Nsg26
g27
sg28
g5315
sg29
Nsg30
g10
sg31
VSouth East Water
p5323
sg33
I2012
sg34
g2
(g35
g4
Ntp5324
Rp5325
(dp5326
g39
F-38.02317811299997
sg40
g27
sg41
F145.2781215440001
sbsbsVAUS0000336
p5327
g2
(g3
g4
Ntp5328
Rp5329
(dp5330
g8
Nsg9
g10
sg11
g12
((lp5331
tp5332
Rp5333
sg16
F1.0
sg17
VCorio
p5334
sg19
g246
sg21
g22
sg23
g24
sg25
Nsg26
g27
sg28
g5327
sg29
Nsg30
g10
sg31
VEDL LFG Vic Pty Ltd
p5335
sg33
I2012
sg34
g2
(g35
g4
Ntp5336
Rp5337
(dp5338
g39
F-38.05865887699997
sg40
g27
sg41
F144.405575687
sbsbsVAUS0000335
p5339
g2
(g3
g4
Ntp5340
Rp5341
(dp5342
g8
Nsg9
g10
sg11
g12
((lp5343
tp5344
Rp5345
sg16
F4.5
sg17
VEildon Small Hydro
p5346
sg19
g62
sg21
g22
sg23
g24
sg25
Nsg26
g27
sg28
g5339
sg29
Nsg30
g10
sg31
VPacific Hydro Investments Pty Ltd
p5347
sg33
I2012
sg34
g2
(g35
g4
Ntp5348
Rp5349
(dp5350
g39
F-37.24307176099995
sg40
g27
sg41
F145.89740990000007
sbsbsVAUS0000334
p5351
g2
(g3
g4
Ntp5352
Rp5353
(dp5354
g8
Nsg9
g10
sg11
g12
((lp5355
tp5356
Rp5357
sg16
F0.4
sg17
VCarlton
p5358
sg19
g20
sg21
g22
sg23
g24
sg25
Nsg26
g27
sg28
g5351
sg29
Nsg30
g10
sg31
VCogent Energy
p5359
sg33
I2012
sg34
g2
(g35
g4
Ntp5360
Rp5361
(dp5362
g39
F-37.806118228999935
sg40
g27
sg41
F144.96065012300005
sbsbsVAUS0000232
p5363
g2
(g3
g4
Ntp5364
Rp5365
(dp5366
g8
Nsg9
g10
sg11
g12
((lp5367
tp5368
Rp5369
sg16
F50.0
sg17
VAngaston
p5370
sg19
g209
sg21
g22
sg23
g24
sg25
Nsg26
g27
sg28
g5363
sg29
Nsg30
g10
sg31
VInfratil Energy Australia Pty Ltd
p5371
sg33
I2012
sg34
g2
(g35
g4
Ntp5372
Rp5373
(dp5374
g39
F-34.50347999999997
sg40
g27
sg41
F139.024537
sbsbsVAUS0000233
p5375
g2
(g3
g4
Ntp5376
Rp5377
(dp5378
g8
Nsg9
g10
sg11
g12
((lp5379
tp5380
Rp5381
sg16
F156.0
sg17
VDry Creek
p5382
sg19
g20
sg21
g22
sg23
g24
sg25
Nsg26
g27
sg28
g5375
sg29
Nsg30
g10
sg31
VSynergen Power
p5383
sg33
I2012
sg34
g2
(g35
g4
Ntp5384
Rp5385
(dp5386
g39
F-34.84746299999995
sg40
g27
sg41
F138.58175800000004
sbsbsVAUS0000339
p5387
g2
(g3
g4
Ntp5388
Rp5389
(dp5390
g8
Nsg9
g10
sg11
g12
((lp5391
tp5392
Rp5393
sg16
F0.9
sg17
VRoyston
p5394
sg19
g62
sg21
g22
sg23
g24
sg25
Nsg26
g27
sg28
g5387
sg29
Nsg30
g10
sg31
VAGL Energy Pty Ltd
p5395
sg33
I2012
sg34
g2
(g35
g4
Ntp5396
Rp5397
(dp5398
g39
F-37.373920675999955
sg40
g27
sg41
F145.86452681800006
sbsbsVAUS0000338
p5399
g2
(g3
g4
Ntp5400
Rp5401
(dp5402
g8
Nsg9
g10
sg11
g12
((lp5403
tp5404
Rp5405
sg16
F2.7
sg17
VLower Rubicon
p5406
sg19
g62
sg21
g22
sg23
g24
sg25
Nsg26
g27
sg28
g5399
sg29
Nsg30
g10
sg31
VAGL Energy Pty Ltd
p5407
sg33
I2012
sg34
g2
(g35
g4
Ntp5408
Rp5409
(dp5410
g39
F-37.30272459099996
sg40
g27
sg41
F145.84577523000007
sbsbsVAUS0000236
p5411
g2
(g3
g4
Ntp5412
Rp5413
(dp5414
g8
Nsg9
g10
sg11
g12
((lp5415
tp5416
Rp5417
sg16
F3.1
sg17
VPedler Creek
p5418
sg19
g246
sg21
g22
sg23
g24
sg25
Nsg26
g27
sg28
g5411
sg29
Nsg30
g10
sg31
VEnergy Developments LFG (SA) Pty Ltd
p5419
sg33
I2012
sg34
g2
(g35
g4
Ntp5420
Rp5421
(dp5422
g39
F-35.20232099999998
sg40
g27
sg41
F138.50209400000006
sbsbsVAUS0000237
p5423
g2
(g3
g4
Ntp5424
Rp5425
(dp5426
g8
Nsg9
g10
sg11
g12
((lp5427
tp5428
Rp5429
sg16
F478.0
sg17
VPelican Point
p5430
sg19
g20
sg21
g22
sg23
g24
sg25
Nsg26
g27
sg28
g5423
sg29
Nsg30
g10
sg31
VInternational Power - GDF Suez Australia
p5431
sg33
I2012
sg34
g2
(g35
g4
Ntp5432
Rp5433
(dp5434
g39
F-34.76497199999994
sg40
g27
sg41
F138.50532500000008
sbsbsVAUS0000234
p5435
g2
(g3
g4
Ntp5436
Rp5437
(dp5438
g8
Nsg9
g10
sg11
g12
((lp5439
tp5440
Rp5441
sg16
F20.7
sg17
VLonsdale
p5442
sg19
g209
sg21
g22
sg23
g24
sg25
Nsg26
g27
sg28
g5435
sg29
Nsg30
g10
sg31
VInfratil Energy Australia Pty Ltd
p5443
sg33
I2012
sg34
g2
(g35
g4
Ntp5444
Rp5445
(dp5446
g39
F-35.10966855399994
sg40
g27
sg41
F138.49100682100004
sbsbsVAUS0000235
p5447
g2
(g3
g4
Ntp5448
Rp5449
(dp5450
g8
Nsg9
g10
sg11
g12
((lp5451
tp5452
Rp5453
sg16
F180.0
sg17
VOsborne
p5454
sg19
g20
sg21
g22
sg23
g24
sg25
Nsg26
g27
sg28
g5447
sg29
Nsg30
g10
sg31
VOrigin Energy
p5455
sg33
I2012
sg34
g2
(g35
g4
Ntp5456
Rp5457
(dp5458
g39
F-34.79802099999995
sg40
g27
sg41
F138.5078840000001
sbsbsVAUS0000433
p5459
g2
(g3
g4
Ntp5460
Rp5461
(dp5462
g8
Nsg9
g10
sg11
g12
((lp5463
tp5464
Rp5465
sg16
F0.11
sg17
VAdelaide Airport
p5466
sg19
g967
sg21
g22
sg23
g24
sg25
Nsg26
g27
sg28
g5459
sg29
Nsg30
g10
sg31
VAdelaide Airport Ltd
p5467
sg33
I2012
sg34
g2
(g35
g4
Ntp5468
Rp5469
(dp5470
g39
F-34.93867455299994
sg40
g27
sg41
F138.5376555360001
sbsbsVAUS0000351
p5471
g2
(g3
g4
Ntp5472
Rp5473
(dp5474
g8
Nsg9
g10
sg11
g12
((lp5475
tp5476
Rp5477
sg16
F2.24
sg17
VCoral Bay Diesel Backup
p5478
sg19
g209
sg21
g22
sg23
g24
sg25
Nsg26
g27
sg28
g5471
sg29
Nsg30
g10
sg31
VVerve Energy
p5479
sg33
I2012
sg34
g2
(g35
g4
Ntp5480
Rp5481
(dp5482
g39
F-23.152144317999955
sg40
g27
sg41
F113.776179006
sbsbsVAUS0000350
p5483
g2
(g3
g4
Ntp5484
Rp5485
(dp5486
g8
Nsg9
g10
sg11
g12
((lp5487
tp5488
Rp5489
sg16
F0.83
sg17
VCoral Bay Wind Turbines
p5490
sg19
g184
sg21
g22
sg23
g24
sg25
Nsg26
g27
sg28
g5483
sg29
Nsg30
g10
sg31
VVerve Energy
p5491
sg33
I2012
sg34
g2
(g35
g4
Ntp5492
Rp5493
(dp5494
g39
F-23.154419166999958
sg40
g27
sg41
F113.77206677900006
sbsbsVAUS0000383
p5495
g2
(g3
g4
Ntp5496
Rp5497
(dp5498
g8
Nsg9
g10
sg11
g12
((lp5499
tp5500
Rp5501
sg16
F0.4
sg17
VGascoyne Junction
p5502
sg19
g209
sg21
g22
sg23
g24
sg25
Nsg26
g27
sg28
g5495
sg29
Nsg30
g10
sg31
VEnergy Developments
p5503
sg33
I2012
sg34
g2
(g35
g4
Ntp5504
Rp5505
(dp5506
g39
F-25.05569375799996
sg40
g27
sg41
F115.20828921500004
sbsbsVAUS0000197
p5507
g2
(g3
g4
Ntp5508
Rp5509
(dp5510
g8
Nsg9
g10
sg11
g12
((lp5511
tp5512
Rp5513
sg16
F120.0
sg17
VKwinana Swift
p5514
sg19
g20
sg21
g22
sg23
g24
sg25
Nsg26
g27
sg28
g5507
sg29
Nsg30
g10
sg31
VWestern Energy Pty Ltd
p5515
sg33
I2012
sg34
g2
(g35
g4
Ntp5516
Rp5517
(dp5518
g39
F-32.22425832899995
sg40
g27
sg41
F115.7782769050001
sbsbsVAUS0000196
p5519
g2
(g3
g4
Ntp5520
Rp5521
(dp5522
g8
Nsg9
g10
sg11
g12
((lp5523
tp5524
Rp5525
sg16
F320.0
sg17
VKwinana (NewGen)
p5526
sg19
g20
sg21
g22
sg23
g24
sg25
Nsg26
g27
sg28
g5519
sg29
Nsg30
g10
sg31
VNewgen Power Kwinana Partnership
p5527
sg33
I2012
sg34
g2
(g35
g4
Ntp5528
Rp5529
(dp5530
g39
F-32.201979999999935
sg40
g27
sg41
F115.77282100000002
sbsbsVAUS0000195
p5531
g2
(g3
g4
Ntp5532
Rp5533
(dp5534
g8
Nsg9
g10
sg11
g12
((lp5535
tp5536
Rp5537
sg16
F200.0
sg17
VKwinana High Efficiency Gas Turbine Plant
p5538
sg19
g20
sg21
g22
sg23
g24
sg25
Nsg26
g27
sg28
g5531
sg29
Nsg30
g10
sg31
VVerve Energy
p5539
sg33
I2012
sg34
g2
(g35
g4
Ntp5540
Rp5541
(dp5542
g39
F-32.197295434999944
sg40
g27
sg41
F115.77538637200007
sbsbsVAUS0000194
p5543
g2
(g3
g4
Ntp5544
Rp5545
(dp5546
g8
Nsg9
g10
sg11
g12
((lp5547
tp5548
Rp5549
sg16
F21.0
sg17
VKwinan
p5550
sg19
g20
sg21
g22
sg23
g24
sg25
Nsg26
g27
sg28
g5543
sg29
Nsg30
g10
sg31
VVerve Energy
p5551
sg33
I2012
sg34
g2
(g35
g4
Ntp5552
Rp5553
(dp5554
g39
F-32.19700263699997
sg40
g27
sg41
F115.7759455040001
sbsbsVAUS0000193
p5555
g2
(g3
g4
Ntp5556
Rp5557
(dp5558
g8
Nsg9
g10
sg11
g12
((lp5559
tp5560
Rp5561
sg16
F123.0
sg17
VKwinana Cogeneration
p5562
sg19
g20
sg21
g22
sg23
g24
sg25
Nsg26
g27
sg28
g5555
sg29
Nsg30
g10
sg31
VInternational Power Plc & Mitsui & Co Ltd & Transfield
p5563
sg33
I2012
sg34
g2
(g35
g4
Ntp5564
Rp5565
(dp5566
g39
F-32.222531999999944
sg40
g27
sg41
F115.76612100000011
sbsbsVAUS0000192
p5567
g2
(g3
g4
Ntp5568
Rp5569
(dp5570
g8
Nsg9
g10
sg11
g12
((lp5571
tp5572
Rp5573
sg16
F400.0
sg17
VKwinana C
p5574
sg19
g75
sg21
g22
sg23
g24
sg25
Nsg26
g27
sg28
g5567
sg29
Nsg30
g10
sg31
VVerve Energy
p5575
sg33
I2012
sg34
g2
(g35
g4
Ntp5576
Rp5577
(dp5578
g39
F-32.19922939299994
sg40
g27
sg41
F115.77470218600001
sbsbsVAUS0000191
p5579
g2
(g3
g4
Ntp5580
Rp5581
(dp5582
g8
Nsg9
g10
sg11
g12
((lp5583
tp5584
Rp5585
sg16
F240.0
sg17
VKwinana A
p5586
sg19
g75
sg21
g22
sg23
g24
sg25
Nsg26
g27
sg28
g5579
sg29
Nsg30
g10
sg31
VVerve Energy
p5587
sg33
I2012
sg34
g2
(g35
g4
Ntp5588
Rp5589
(dp5590
g39
F-32.19795289599995
sg40
g27
sg41
F115.7751616490001
sbsbsVAUS0000190
p5591
g2
(g3
g4
Ntp5592
Rp5593
(dp5594
g8
Nsg9
g10
sg11
g12
((lp5595
tp5596
Rp5597
sg16
F66.0
sg17
VKwinana (Alcoa Refinery)
p5598
sg19
g20
sg21
g22
sg23
g24
sg25
Nsg26
g27
sg28
g5591
sg29
Nsg30
g10
sg31
VAlcoa of Australia Ltd
p5599
sg33
I2012
sg34
g2
(g35
g4
Ntp5600
Rp5601
(dp5602
g39
F-32.19463499999995
sg40
g27
sg41
F115.77967600000011
sbsbsVAUS0000056
p5603
g2
(g3
g4
Ntp5604
Rp5605
(dp5606
g8
Nsg9
g10
sg11
g12
((lp5607
tp5608
Rp5609
sg16
F50.0
sg17
VInvicta Sugar Mill
p5610
sg19
g306
sg21
g22
sg23
g24
sg25
Nsg26
g27
sg28
g5603
sg29
Nsg30
g10
sg31
VCSR
p5611
sg33
I2012
sg34
g2
(g35
g4
Ntp5612
Rp5613
(dp5614
g39
F-19.516696999999965
sg40
g27
sg41
F147.10652600000003
sbsbsVAUS0000057
p5615
g2
(g3
g4
Ntp5616
Rp5617
(dp5618
g8
Nsg9
g10
sg11
g12
((lp5619
tp5620
Rp5621
sg16
F4.5
sg17
VWivenhoe
p5622
sg19
g62
sg21
g22
sg23
g24
sg25
Nsg26
g27
sg28
g5615
sg29
Nsg30
g10
sg31
VStanwell Corporation Ltd
p5623
sg33
I2012
sg34
g2
(g35
g4
Ntp5624
Rp5625
(dp5626
g39
F-27.395211999999958
sg40
g27
sg41
F152.6091530000001
sbsbsVAUS0000054
p5627
g2
(g3
g4
Ntp5628
Rp5629
(dp5630
g8
Nsg9
g10
sg11
g12
((lp5631
tp5632
Rp5633
sg16
F45.6
sg17
VMoranbah North
p5634
sg19
g20
sg21
g22
sg23
g24
sg25
Nsg26
g27
sg28
g5627
sg29
Nsg30
g10
sg31
VEnergy Development Projects (Australia) Pty Ltd
p5635
sg33
I2012
sg34
g2
(g35
g4
Ntp5636
Rp5637
(dp5638
g39
F-21.896655255999974
sg40
g27
sg41
F147.95065540500002
sbsbsVAUS0000055
p5639
g2
(g3
g4
Ntp5640
Rp5641
(dp5642
g8
Nsg9
g10
sg11
g12
((lp5643
tp5644
Rp5645
sg16
F7.3
sg17
VKoombooloomba
p5646
sg19
g62
sg21
g22
sg23
g24
sg25
Nsg26
g27
sg28
g5639
sg29
Nsg30
g10
sg31
VStanwell Corporation Ltd
p5647
sg33
I2012
sg34
g2
(g35
g4
Ntp5648
Rp5649
(dp5650
g39
F-17.831283999999982
sg40
g27
sg41
F145.60336200000006
sbsbsVAUS0000052
p5651
g2
(g3
g4
Ntp5652
Rp5653
(dp5654
g8
Nsg9
g10
sg11
g12
((lp5655
tp5656
Rp5657
sg16
F34.5
sg17
VStarfish Hill Wind Farm
p5658
sg19
g184
sg21
g22
sg23
g24
sg25
Nsg26
g27
sg28
g5651
sg29
Nsg30
g10
sg31
VRATCH-Australia
p5659
sg33
I2012
sg34
g2
(g35
g4
Ntp5660
Rp5661
(dp5662
g39
F-35.56776499999995
sg40
g27
sg41
F138.1432380000001
sbsbsVAUS0000053
p5663
g2
(g3
g4
Ntp5664
Rp5665
(dp5666
g8
Nsg9
g10
sg11
g12
((lp5667
tp5668
Rp5669
sg16
F67.8
sg17
VPioneer Sugar Mill
p5670
sg19
g306
sg21
g22
sg23
g24
sg25
Nsg26
g27
sg28
g5663
sg29
Nsg30
g10
sg31
VCSR
p5671
sg33
I2012
sg34
g2
(g35
g4
Ntp5672
Rp5673
(dp5674
g39
F-19.55746499999998
sg40
g27
sg41
F147.33080100000006
sbsbsVAUS0000199
p5675
g2
(g3
g4
Ntp5676
Rp5677
(dp5678
g8
Nsg9
g10
sg11
g12
((lp5679
tp5680
Rp5681
sg16
F140.0
sg17
VNewman Iron Ore Mine
p5682
sg19
g20
sg21
g22
sg23
g24
sg25
Nsg26
g27
sg28
g5675
sg29
Nsg30
g10
sg31
VAlinta Energy
p5683
sg33
I2012
sg34
g2
(g35
g4
Ntp5684
Rp5685
(dp5686
g39
F-23.344274999999982
sg40
g27
sg41
F119.70858700000008
sbsbsVAUS0000198
p5687
g2
(g3
g4
Ntp5688
Rp5689
(dp5690
g8
Nsg9
g10
sg11
g12
((lp5691
tp5692
Rp5693
sg16
F330.0
sg17
VNeerabup
p5694
sg19
g20
sg21
g22
sg23
g24
sg25
Nsg26
g27
sg28
g5687
sg29
Nsg30
g10
sg31
VNewgen Neerabup Partnership
p5695
sg33
I2012
sg34
g2
(g35
g4
Ntp5696
Rp5697
(dp5698
g39
F-31.67124999999993
sg40
g27
sg41
F115.8021490000001
sbsbsVAUS0000359
p5699
g2
(g3
g4
Ntp5700
Rp5701
(dp5702
g8
Nsg9
g10
sg11
g12
((lp5703
tp5704
Rp5705
sg16
F3.3
sg17
VSouth Cardup (Shale Road Landfill)
p5706
sg19
g246
sg21
g22
sg23
g24
sg25
Nsg26
g27
sg28
g5699
sg29
Nsg30
g10
sg31
VWestern Australian Landfill Services
p5707
sg33
I2012
sg34
g2
(g35
g4
Ntp5708
Rp5709
(dp5710
g39
F-32.266436158999966
sg40
g27
sg41
F116.01931443900003
sbsbsVAUS0000385
p5711
g2
(g3
g4
Ntp5712
Rp5713
(dp5714
g8
Nsg9
g10
sg11
g12
((lp5715
tp5716
Rp5717
sg16
F0.4
sg17
VYalgoo
p5718
sg19
g209
sg21
g22
sg23
g24
sg25
Nsg26
g27
sg28
g5711
sg29
Nsg30
g10
sg31
VEnergy Developments
p5719
sg33
I2012
sg34
g2
(g35
g4
Ntp5720
Rp5721
(dp5722
g39
F-28.337536633999946
sg40
g27
sg41
F116.68349161800006
sbsbsVAUS0000358
p5723
g2
(g3
g4
Ntp5724
Rp5725
(dp5726
g8
Nsg9
g10
sg11
g12
((lp5727
tp5728
Rp5729
sg16
F2.1
sg17
VRockingham
p5730
sg19
g246
sg21
g22
sg23
g24
sg25
Nsg26
g27
sg28
g5723
sg29
Nsg30
g10
sg31
VAGL Energy Pty Ltd
p5731
sg33
I2012
sg34
g2
(g35
g4
Ntp5732
Rp5733
(dp5734
g39
F-32.28632251299996
sg40
g27
sg41
F115.81538889600006
sbsbs.