(dp0
VAUS0000289
p1
ccopy_reg
_reconstructor
p2
(cpowerplant_database
PowerPlant
p3
c__builtin__
object
p4
Ntp5
Rp6
(dp7
S'coord_source'
p8
VAustralian Renewable Energy Mapping Infrastructure
p9
sS'capacity'
p10
F4.0
sS'name'
p11
VTeralba
p12
sS'commissioning_year'
p13
NsS'url'
p14
Vhttp://services.ga.gov.au/site_3/rest/services/Electricity_Infrastructure/MapServer
p15
sS'country'
p16
VAustralia
p17
sS'generation'
p18
NsS'nat_lang'
p19
V
p20
sS'idnr'
p21
g1
sS'estimated_generation_gwh'
p22
NsS'source'
p23
g9
sS'fuel'
p24
c__builtin__
set
p25
((lp26
VGas
p27
atp28
Rp29
sS'owner'
p30
VEnviroGen Pty Ltd
p31
sS'cap_year'
p32
I2012
sS'location'
p33
g2
(cpowerplant_database
LocationObject
p34
g4
Ntp35
Rp36
(dp37
S'latitude'
p38
F-32.94548999999995
sS'description'
p39
g20
sS'longitude'
p40
F151.6119070000001
sbsbsVAUS0000288
p41
g2
(g3
g4
Ntp42
Rp43
(dp44
g8
g9
sg10
F420.0
sg11
VTallawarra
p45
sg13
Nsg14
g15
sg16
g17
sg18
Nsg19
g20
sg21
g41
sg22
Nsg23
g9
sg24
g25
((lp46
g27
atp47
Rp48
sg30
VTRUenergy
p49
sg32
I2012
sg33
g2
(g34
g4
Ntp50
Rp51
(dp52
g38
F-34.52277799999996
sg39
g20
sg40
F150.80805600000008
sbsbsVAUS0000283
p53
g2
(g3
g4
Ntp54
Rp55
(dp56
g8
g9
sg10
F33.6
sg11
VNymboida
p57
sg13
Nsg14
g15
sg16
g17
sg18
Nsg19
g20
sg21
g53
sg22
Nsg23
g9
sg24
g25
((lp58
VHydro
p59
atp60
Rp61
sg30
VEssential Energy
p62
sg32
I2012
sg33
g2
(g34
g4
Ntp63
Rp64
(dp65
g38
F-29.925737999999967
sg39
g20
sg40
F152.74170800000002
sbsbsVAUS0000282
p66
g2
(g3
g4
Ntp67
Rp68
(dp69
g8
g9
sg10
F600.0
sg11
VMunmorah
p70
sg13
Nsg14
g15
sg16
g17
sg18
Nsg19
g20
sg21
g66
sg22
Nsg23
g9
sg24
g25
((lp71
VCoal
p72
atp73
Rp74
sg30
VDelta Electricity
p75
sg32
I2012
sg33
g2
(g34
g4
Ntp76
Rp77
(dp78
g38
F-33.21169099999997
sg39
g20
sg40
F151.5418370000001
sbsbsVAUS0000281
p79
g2
(g3
g4
Ntp80
Rp81
(dp82
g8
g9
sg10
F1400.0
sg11
VMt Piper
p83
sg13
Nsg14
g15
sg16
g17
sg18
Nsg19
g20
sg21
g79
sg22
Nsg23
g9
sg24
g25
((lp84
g72
atp85
Rp86
sg30
VDelta
p87
sg32
I2012
sg33
g2
(g34
g4
Ntp88
Rp89
(dp90
g38
F-33.35889199999997
sg39
g20
sg40
F150.03132200000005
sbsbsVAUS0000280
p91
g2
(g3
g4
Ntp92
Rp93
(dp94
g8
g9
sg10
F2000.0
sg11
VLiddell
p95
sg13
Nsg14
g15
sg16
g17
sg18
Nsg19
g20
sg21
g91
sg22
Nsg23
g9
sg24
g25
((lp96
g72
atp97
Rp98
sg30
VMacquarie Generation
p99
sg32
I2012
sg33
g2
(g34
g4
Ntp100
Rp101
(dp102
g38
F-32.37126699999993
sg39
g20
sg40
F150.97757000000001
sbsbsVAUS0000287
p103
g2
(g3
g4
Ntp104
Rp105
(dp106
g8
g9
sg10
F7.0
sg11
VTahmoor
p107
sg13
Nsg14
g15
sg16
g17
sg18
Nsg19
g20
sg21
g103
sg22
Nsg23
g9
sg24
g25
((lp108
g27
atp109
Rp110
sg30
VEnviroGen Pty Ltd
p111
sg32
I2012
sg33
g2
(g34
g4
Ntp112
Rp113
(dp114
g38
F-34.24823299999997
sg39
g20
sg40
F150.58077000000003
sbsbsVAUS0000286
p115
g2
(g3
g4
Ntp116
Rp117
(dp118
g8
g9
sg10
F170.9
sg11
VSmithfield Energy
p119
sg13
Nsg14
g15
sg16
g17
sg18
Nsg19
g20
sg21
g115
sg22
Nsg23
g9
sg24
g25
((lp120
g27
atp121
Rp122
sg30
VMarubeni Australia Power Services
p123
sg32
I2012
sg33
g2
(g34
g4
Ntp124
Rp125
(dp126
g38
F-33.85003999999998
sg39
g20
sg40
F150.94946600000003
sbsbsVAUS0000285
p127
g2
(g3
g4
Ntp128
Rp129
(dp130
g8
g9
sg10
F143.8
sg11
VRedbank
p131
sg13
Nsg14
g15
sg16
g17
sg18
Nsg19
g20
sg21
g127
sg22
Nsg23
g9
sg24
g25
((lp132
g72
atp133
Rp134
sg30
VRedbank Energy Ltd
p135
sg32
I2012
sg33
g2
(g34
g4
Ntp136
Rp137
(dp138
g38
F-32.580205999999976
sg39
g20
sg40
F151.07193600000005
sbsbsVAUS0000284
p139
g2
(g3
g4
Ntp140
Rp141
(dp142
g8
g9
sg10
F4.8
sg11
VOaky
p143
sg13
Nsg14
g15
sg16
g17
sg18
Nsg19
g20
sg21
g139
sg22
Nsg23
g9
sg24
g25
((lp144
g59
atp145
Rp146
sg30
VEssential Energy
p147
sg32
I2012
sg33
g2
(g34
g4
Ntp148
Rp149
(dp150
g38
F-30.575118999999972
sg39
g20
sg40
F152.06897000000004
sbsbsVAUS0000148
p151
g2
(g3
g4
Ntp152
Rp153
(dp154
g8
g9
sg10
F480.0
sg11
VSwanbank B
p155
sg13
Nsg14
g15
sg16
g17
sg18
Nsg19
g20
sg21
g151
sg22
Nsg23
g9
sg24
g25
((lp156
g72
atp157
Rp158
sg30
VCS Energy
p159
sg32
I2012
sg33
g2
(g34
g4
Ntp160
Rp161
(dp162
g38
F-27.660064999999975
sg39
g20
sg40
F152.81445200000007
sbsbsVAUS0000260
p163
g2
(g3
g4
Ntp164
Rp165
(dp166
g8
g9
sg10
F86.0
sg11
VWeddell
p167
sg13
Nsg14
g15
sg16
g17
sg18
Nsg19
g20
sg21
g163
sg22
Nsg23
g9
sg24
g25
((lp168
g27
atp169
Rp170
sg30
VNT Power and Water
p171
sg32
I2012
sg33
g2
(g34
g4
Ntp172
Rp173
(dp174
g38
F-12.577195999999958
sg39
g20
sg40
F130.95022600000004
sbsbsVAUS0000405
p175
g2
(g3
g4
Ntp176
Rp177
(dp178
g8
g9
sg10
F1.7
sg11
VKalbarri Wind Farm
p179
sg13
Nsg14
g15
sg16
g17
sg18
Nsg19
g20
sg21
g175
sg22
Nsg23
g9
sg24
g25
((lp180
VWind
p181
atp182
Rp183
sg30
VVerve Energy
p184
sg32
I2012
sg33
g2
(g34
g4
Ntp185
Rp186
(dp187
g38
F-27.899498532999928
sg39
g20
sg40
F114.19455166500006
sbsbsVAUS0000404
p188
g2
(g3
g4
Ntp189
Rp190
(dp191
g8
g9
sg10
F0.6
sg11
VKooragang
p192
sg13
Nsg14
g15
sg16
g17
sg18
Nsg19
g20
sg21
g188
sg22
Nsg23
g9
sg24
g25
((lp193
g181
atp194
Rp195
sg30
VAusgrid
p196
sg32
I2012
sg33
g2
(g34
g4
Ntp197
Rp198
(dp199
g38
F-32.87728143199996
sg39
g20
sg40
F151.74776777500006
sbsbsVAUS0000407
p200
g2
(g3
g4
Ntp201
Rp202
(dp203
g8
g9
sg10
F10.8
sg11
VSavannah Nickel Mine
p204
sg13
Nsg14
g15
sg16
g17
sg18
Nsg19
g20
sg21
g200
sg22
Nsg23
g9
sg24
g25
((lp205
VOil
p206
atp207
Rp208
sg30
VContract Power
p209
sg32
I2012
sg33
g2
(g34
g4
Ntp210
Rp211
(dp212
g38
F-17.363095358999942
sg39
g20
sg40
F128.03307638
sbsbsVAUS0000406
p213
g2
(g3
g4
Ntp214
Rp215
(dp216
g8
g9
sg10
F13.7
sg11
VWodgina
p217
sg13
Nsg14
g15
sg16
g17
sg18
Nsg19
g20
sg21
g213
sg22
Nsg23
g9
sg24
g25
((lp218
g27
atp219
Rp220
sg30
VEnergy Developments Ltd
p221
sg32
I2012
sg33
g2
(g34
g4
Ntp222
Rp223
(dp224
g38
F-21.173883386999933
sg39
g20
sg40
F118.67472103500006
sbsbsVAUS0000401
p225
g2
(g3
g4
Ntp226
Rp227
(dp228
g8
g9
sg10
F2.8
sg11
VCharlestown Square
p229
sg13
Nsg14
g15
sg16
g17
sg18
Nsg19
g20
sg21
g225
sg22
Nsg23
g9
sg24
g25
((lp230
g27
atp231
Rp232
sg30
VGPT RE Limited
p233
sg32
I2012
sg33
g2
(g34
g4
Ntp234
Rp235
(dp236
g38
F-32.96425537599998
sg39
g20
sg40
F151.69361251600003
sbsbsVAUS0000400
p237
g2
(g3
g4
Ntp238
Rp239
(dp240
g8
g9
sg10
F1.0
sg11
VBelconnen
p241
sg13
Nsg14
g15
sg16
g17
sg18
Nsg19
g20
sg21
g237
sg22
Nsg23
g9
sg24
g25
((lp242
VWaste
p243
atp244
Rp245
sg30
VEDL LFG ACT Pty Ltd
p246
sg32
I2012
sg33
g2
(g34
g4
Ntp247
Rp248
(dp249
g38
F-35.21418943599997
sg39
g20
sg40
F148.9872183870001
sbsbsVAUS0000379
p250
g2
(g3
g4
Ntp251
Rp252
(dp253
g8
g9
sg10
F0.8
sg11
VArdyaloon
p254
sg13
Nsg14
g15
sg16
g17
sg18
Nsg19
g20
sg21
g250
sg22
Nsg23
g9
sg24
g25
((lp255
g206
atp256
Rp257
sg30
VEnergy Developments Ltd
p258
sg32
I2012
sg33
g2
(g34
g4
Ntp259
Rp260
(dp261
g38
F-16.44441722099998
sg39
g20
sg40
F123.04137384300009
sbsbsVAUS0000378
p262
g2
(g3
g4
Ntp263
Rp264
(dp265
g8
g9
sg10
F0.7
sg11
VKalumburu
p266
sg13
Nsg14
g15
sg16
g17
sg18
Nsg19
g20
sg21
g262
sg22
Nsg23
g9
sg24
g25
((lp267
g206
atp268
Rp269
sg30
g20
sg32
I2012
sg33
g2
(g34
g4
Ntp270
Rp271
(dp272
g38
F-14.293855534999977
sg39
g20
sg40
F126.64395522900008
sbsbsVAUS0000377
p273
g2
(g3
g4
Ntp274
Rp275
(dp276
g8
g9
sg10
F0.5
sg11
VTatiara Meats
p277
sg13
Nsg14
g15
sg16
g17
sg18
Nsg19
g20
sg21
g273
sg22
Nsg23
g9
sg24
g25
((lp278
g206
atp279
Rp280
sg30
VVibe Energy Pty Ltd
p281
sg32
I2012
sg33
g2
(g34
g4
Ntp282
Rp283
(dp284
g38
F-36.32655638699998
sg39
g20
sg40
F140.73676935800006
sbsbsVAUS0000140
p285
g2
(g3
g4
Ntp286
Rp287
(dp288
g8
g9
sg10
F32.0
sg11
VWilmot
p289
sg13
Nsg14
g15
sg16
g17
sg18
Nsg19
g20
sg21
g285
sg22
Nsg23
g9
sg24
g25
((lp290
g59
atp291
Rp292
sg30
VHydro-Electric Corporation (Tasmania)
p293
sg32
I2012
sg33
g2
(g34
g4
Ntp294
Rp295
(dp296
g38
F-41.483311999999955
sg39
g20
sg40
F146.12507300000004
sbsbsVAUS0000375
p297
g2
(g3
g4
Ntp298
Rp299
(dp300
g8
g9
sg10
F13.0
sg11
VMulgrave
p301
sg13
Nsg14
g15
sg16
g17
sg18
Nsg19
g20
sg21
g297
sg22
Nsg23
g9
sg24
g25
((lp302
VBiomass
p303
atp304
Rp305
sg30
VMSF Sugar
p306
sg32
I2012
sg33
g2
(g34
g4
Ntp307
Rp308
(dp309
g38
F-17.09316550099993
sg39
g20
sg40
F145.78871140400008
sbsbsVAUS0000374
p310
g2
(g3
g4
Ntp311
Rp312
(dp313
g8
g9
sg10
F20.0
sg11
VSouth Johnstone
p314
sg13
Nsg14
g15
sg16
g17
sg18
Nsg19
g20
sg21
g310
sg22
Nsg23
g9
sg24
g25
((lp315
g303
atp316
Rp317
sg30
VMSF Sugar
p318
sg32
I2012
sg33
g2
(g34
g4
Ntp319
Rp320
(dp321
g38
F-17.605685131999962
sg39
g20
sg40
F145.99100041600002
sbsbsVAUS0000373
p322
g2
(g3
g4
Ntp323
Rp324
(dp325
g8
g9
sg10
F7.0
sg11
VTableland
p326
sg13
Nsg14
g15
sg16
g17
sg18
Nsg19
g20
sg21
g322
sg22
Nsg23
g9
sg24
g25
((lp327
g303
atp328
Rp329
sg30
VMSF Sugar
p330
sg32
I2012
sg33
g2
(g34
g4
Ntp331
Rp332
(dp333
g38
F-17.119292186999928
sg39
g20
sg40
F145.34496992100003
sbsbsVAUS0000372
p334
g2
(g3
g4
Ntp335
Rp336
(dp337
g8
g9
sg10
F8.0
sg11
VExmouth
p338
sg13
Nsg14
g15
sg16
g17
sg18
Nsg19
g20
sg21
g334
sg22
Nsg23
g9
sg24
g25
((lp339
g27
atp340
Rp341
sg30
VBurns and Roe Worley
p342
sg32
I2012
sg33
g2
(g34
g4
Ntp343
Rp344
(dp345
g38
F-21.946457949999967
sg39
g20
sg40
F114.12499812400006
sbsbsVAUS0000371
p346
g2
(g3
g4
Ntp347
Rp348
(dp349
g8
g9
sg10
F1.5
sg11
VLaverton
p350
sg13
Nsg14
g15
sg16
g17
sg18
Nsg19
g20
sg21
g346
sg22
Nsg23
g9
sg24
g25
((lp351
g206
atp352
Rp353
sg30
VEnergy Developments
p354
sg32
I2012
sg33
g2
(g34
g4
Ntp355
Rp356
(dp357
g38
F-28.62162366399997
sg39
g20
sg40
F122.39646804400002
sbsbsVAUS0000268
p358
g2
(g3
g4
Ntp359
Rp360
(dp361
g8
g9
sg10
F30.0
sg11
VBroadwater
p362
sg13
Nsg14
g15
sg16
g17
sg18
Nsg19
g20
sg21
g358
sg22
Nsg23
g9
sg24
g25
((lp363
g303
atp364
Rp365
sg30
VNSW Sugar Milling
p366
sg32
I2012
sg33
g2
(g34
g4
Ntp367
Rp368
(dp369
g38
F-29.01182799999998
sg39
g20
sg40
F153.43348100000003
sbsbsVAUS0000179
p370
g2
(g3
g4
Ntp371
Rp372
(dp373
g8
g9
sg10
F190.0
sg11
VCollinsville
p374
sg13
Nsg14
g15
sg16
g17
sg18
Nsg19
g20
sg21
g370
sg22
Nsg23
g9
sg24
g25
((lp375
g72
atp376
Rp377
sg30
VRATCH Australia
p378
sg32
I2012
sg33
g2
(g34
g4
Ntp379
Rp380
(dp381
g38
F-20.544681999999966
sg39
g20
sg40
F147.80488700000012
sbsbsVAUS0000178
p382
g2
(g3
g4
Ntp383
Rp384
(dp385
g8
g9
sg10
F120.0
sg11
VCallide A
p386
sg13
Nsg14
g15
sg16
g17
sg18
Nsg19
g20
sg21
g382
sg22
Nsg23
g9
sg24
g25
((lp387
g72
atp388
Rp389
sg30
VCS Energy
p390
sg32
I2012
sg33
g2
(g34
g4
Ntp391
Rp392
(dp393
g38
F-24.33402499999994
sg39
g20
sg40
F150.6279730000001
sbsbsVAUS0000274
p394
g2
(g3
g4
Ntp395
Rp396
(dp397
g8
g9
sg10
F20.0
sg11
VGadara
p398
sg13
Nsg14
g15
sg16
g17
sg18
Nsg19
g20
sg21
g394
sg22
Nsg23
g9
sg24
g25
((lp399
g303
atp400
Rp401
sg30
VVisy Pulp & Paper
p402
sg32
I2012
sg33
g2
(g34
g4
Ntp403
Rp404
(dp405
g38
F-35.295932999999934
sg39
g20
sg40
F148.13705200000004
sbsbsVAUS0000275
p406
g2
(g3
g4
Ntp407
Rp408
(dp409
g8
g9
sg10
F5.0
sg11
VGlenbawn
p410
sg13
Nsg14
g15
sg16
g17
sg18
Nsg19
g20
sg21
g406
sg22
Nsg23
g9
sg24
g25
((lp411
g59
atp412
Rp413
sg30
VAGL Energy Pty Ltd
p414
sg32
I2012
sg33
g2
(g34
g4
Ntp415
Rp416
(dp417
g38
F-32.10966099999996
sg39
g20
sg40
F150.9981540000001
sbsbsVAUS0000272
p418
g2
(g3
g4
Ntp419
Rp420
(dp421
g8
g9
sg10
F3.9
sg11
VEarthPower Biomass Plant
p422
sg13
Nsg14
g15
sg16
g17
sg18
Nsg19
g20
sg21
g418
sg22
Nsg23
g9
sg24
g25
((lp423
g243
atp424
Rp425
sg30
VEarthpower Technologies Sydney Pty Ltd
p426
sg32
I2012
sg33
g2
(g34
g4
Ntp427
Rp428
(dp429
g38
F-33.82037299999996
sg39
g20
sg40
F151.04203700000005
sbsbsVAUS0000273
p430
g2
(g3
g4
Ntp431
Rp432
(dp433
g8
g9
sg10
F42.0
sg11
VEraring
p434
sg13
Nsg14
g15
sg16
g17
sg18
Nsg19
g20
sg21
g430
sg22
Nsg23
g9
sg24
g25
((lp435
g206
atp436
Rp437
sg30
VEraring Energy
p438
sg32
I2012
sg33
g2
(g34
g4
Ntp439
Rp440
(dp441
g38
F-33.06174875299996
sg39
g20
sg40
F151.5223300680001
sbsbsVAUS0000270
p442
g2
(g3
g4
Ntp443
Rp444
(dp445
g8
g9
sg10
F300.0
sg11
VCapral (Aluminium Smelter)
p446
sg13
Nsg14
g15
sg16
g17
sg18
Nsg19
g20
sg21
g442
sg22
Nsg23
g9
sg24
g25
((lp447
g27
atp448
Rp449
sg30
VCapral Ltd
p450
sg32
I2012
sg33
g2
(g34
g4
Ntp451
Rp452
(dp453
g38
F-32.78972299999998
sg39
g20
sg40
F151.48130500000002
sbsbsVAUS0000271
p454
g2
(g3
g4
Ntp455
Rp456
(dp457
g8
g9
sg10
F724.0
sg11
VColongra
p458
sg13
Nsg14
g15
sg16
g17
sg18
Nsg19
g20
sg21
g454
sg22
Nsg23
g9
sg24
g25
((lp459
g27
atp460
Rp461
sg30
VDelta Electricity
p462
sg32
I2012
sg33
g2
(g34
g4
Ntp463
Rp464
(dp465
g38
F-33.20986899999997
sg39
g20
sg40
F151.54478500000005
sbsbsVAUS0000171
p466
g2
(g3
g4
Ntp467
Rp468
(dp469
g8
g9
sg10
F1400.0
sg11
VTarong
p470
sg13
Nsg14
g15
sg16
g17
sg18
Nsg19
g20
sg21
g466
sg22
Nsg23
g9
sg24
g25
((lp471
g72
atp472
Rp473
sg30
VStanwell Corporation Ltd
p474
sg32
I2012
sg33
g2
(g34
g4
Ntp475
Rp476
(dp477
g38
F-26.78235799999993
sg39
g20
sg40
F151.91527300000007
sbsbsVAUS0000170
p478
g2
(g3
g4
Ntp479
Rp480
(dp481
g8
g9
sg10
F450.0
sg11
VTarong North
p482
sg13
Nsg14
g15
sg16
g17
sg18
Nsg19
g20
sg21
g478
sg22
Nsg23
g9
sg24
g25
((lp483
g72
atp484
Rp485
sg30
VTarong Energy Corporation
p486
sg32
I2012
sg33
g2
(g34
g4
Ntp487
Rp488
(dp489
g38
F-26.775762999999984
sg39
g20
sg40
F151.91460200000006
sbsbsVAUS0000173
p490
g2
(g3
g4
Ntp491
Rp492
(dp493
g8
g9
sg10
F154.0
sg11
VYarwun
p494
sg13
Nsg14
g15
sg16
g17
sg18
Nsg19
g20
sg21
g490
sg22
Nsg23
g9
sg24
g25
((lp495
g27
atp496
Rp497
sg30
VRio Tinto Australia - Yarwun Pty Ltd
p498
sg32
I2012
sg33
g2
(g34
g4
Ntp499
Rp500
(dp501
g38
F-23.830644999999947
sg39
g20
sg40
F151.1519300000001
sbsbsVAUS0000172
p502
g2
(g3
g4
Ntp503
Rp504
(dp505
g8
g9
sg10
F244.0
sg11
VYabulu
p506
sg13
Nsg14
g15
sg16
g17
sg18
Nsg19
g20
sg21
g502
sg22
Nsg23
g9
sg24
g25
((lp507
g27
atp508
Rp509
sg30
VRATCH Australia
p510
sg32
I2012
sg33
g2
(g34
g4
Ntp511
Rp512
(dp513
g38
F-19.201055999999937
sg39
g20
sg40
F146.6187070000001
sbsbsVAUS0000175
p514
g2
(g3
g4
Ntp515
Rp516
(dp517
g8
g9
sg10
F24.0
sg11
VVictoria Sugar Mill
p518
sg13
Nsg14
g15
sg16
g17
sg18
Nsg19
g20
sg21
g514
sg22
Nsg23
g9
sg24
g25
((lp519
g303
atp520
Rp521
sg30
VSucrogen Pty ltd
p522
sg32
I2012
sg33
g2
(g34
g4
Ntp523
Rp524
(dp525
g38
F-18.650803999999937
sg39
g20
sg40
F146.20162700000003
sbsbsVAUS0000174
p526
g2
(g3
g4
Ntp527
Rp528
(dp529
g8
g9
sg10
F8.0
sg11
VMacknade Sugar Mill
p530
sg13
Nsg14
g15
sg16
g17
sg18
Nsg19
g20
sg21
g526
sg22
Nsg23
g9
sg24
g25
((lp531
g303
atp532
Rp533
sg30
VSucrogen (Herbert) Pty ltd
p534
sg32
I2012
sg33
g2
(g34
g4
Ntp535
Rp536
(dp537
g38
F-18.589042999999947
sg39
g20
sg40
F146.25796100000002
sbsbsVAUS0000278
p538
g2
(g3
g4
Ntp539
Rp540
(dp541
g8
g9
sg10
F50.0
sg11
VHunter Valley
p542
sg13
Nsg14
g15
sg16
g17
sg18
Nsg19
g20
sg21
g538
sg22
Nsg23
g9
sg24
g25
((lp543
g27
atp544
Rp545
sg30
VMacquarie Generation
p546
sg32
I2012
sg33
g2
(g34
g4
Ntp547
Rp548
(dp549
g38
F-32.38925299999994
sg39
g20
sg40
F150.96639600000003
sbsbsVAUS0000279
p550
g2
(g3
g4
Ntp551
Rp552
(dp553
g8
g9
sg10
F160.0
sg11
VKangaroo Valley (Shoalhaven Scheme)
p554
sg13
Nsg14
g15
sg16
g17
sg18
Nsg19
g20
sg21
g550
sg22
Nsg23
g9
sg24
g25
((lp555
g59
atp556
Rp557
sg30
VEraring Energy
p558
sg32
I2012
sg33
g2
(g34
g4
Ntp559
Rp560
(dp561
g38
F-34.722969999999975
sg39
g20
sg40
F150.47953000000007
sbsbsVAUS0000308
p562
g2
(g3
g4
Ntp563
Rp564
(dp565
g8
g9
sg10
F54.5
sg11
VMaryvale Mill
p566
sg13
Nsg14
g15
sg16
g17
sg18
Nsg19
g20
sg21
g562
sg22
Nsg23
g9
sg24
g25
((lp567
g303
atp568
Rp569
sg30
VAustralian Paper
p570
sg32
I2012
sg33
g2
(g34
g4
Ntp571
Rp572
(dp573
g38
F-38.18089277399997
sg39
g20
sg40
F146.44794631700006
sbsbsVAUS0000309
p574
g2
(g3
g4
Ntp575
Rp576
(dp577
g8
g9
sg10
F13.8
sg11
VGrasmere Wind Farm (Albany stage II)
p578
sg13
Nsg14
g15
sg16
g17
sg18
Nsg19
g20
sg21
g574
sg22
Nsg23
g9
sg24
g25
((lp579
g181
atp580
Rp581
sg30
VVerve Energy
p582
sg32
I2012
sg33
g2
(g34
g4
Ntp583
Rp584
(dp585
g38
F-35.05065051599996
sg39
g20
sg40
F117.76376090400004
sbsbsVAUS0000302
p586
g2
(g3
g4
Ntp587
Rp588
(dp589
g8
g9
sg10
F16.0
sg11
VWilga Park
p590
sg13
Nsg14
g15
sg16
g17
sg18
Nsg19
g20
sg21
g586
sg22
Nsg23
g9
sg24
g25
((lp591
g27
atp592
Rp593
sg30
VSantos
p594
sg32
I2012
sg33
g2
(g34
g4
Ntp595
Rp596
(dp597
g38
F-30.363436999999976
sg39
g20
sg40
F149.6771530000001
sbsbsVAUS0000303
p598
g2
(g3
g4
Ntp599
Rp600
(dp601
g8
g9
sg10
F60.0
sg11
VGuthega
p602
sg13
Nsg14
g15
sg16
g17
sg18
Nsg19
g20
sg21
g598
sg22
Nsg23
g9
sg24
g25
((lp603
g59
atp604
Rp605
sg30
VSnowy Hydro Ltd
p606
sg32
I2012
sg33
g2
(g34
g4
Ntp607
Rp608
(dp609
g38
F-36.350097999999946
sg39
g20
sg40
F148.41352800000004
sbsbsVAUS0000300
p610
g2
(g3
g4
Ntp611
Rp612
(dp613
g8
g9
sg10
F18.0
sg11
VBurrendong
p614
sg13
Nsg14
g15
sg16
g17
sg18
Nsg19
g20
sg21
g610
sg22
Nsg23
g9
sg24
g25
((lp615
g59
atp616
Rp617
sg30
VAGL Energy Pty Ltd
p618
sg32
I2012
sg33
g2
(g34
g4
Ntp619
Rp620
(dp621
g38
F-32.66461599999997
sg39
g20
sg40
F149.1079860000001
sbsbsVAUS0000301
p622
g2
(g3
g4
Ntp623
Rp624
(dp625
g8
g9
sg10
F20.0
sg11
VCopeton
p626
sg13
Nsg14
g15
sg16
g17
sg18
Nsg19
g20
sg21
g622
sg22
Nsg23
g9
sg24
g25
((lp627
g59
atp628
Rp629
sg30
VAGL Energy Pty Ltd
p630
sg32
I2012
sg33
g2
(g34
g4
Ntp631
Rp632
(dp633
g38
F-29.91019799999998
sg39
g20
sg40
F150.9234620000001
sbsbsVAUS0000306
p634
g2
(g3
g4
Ntp635
Rp636
(dp637
g8
g9
sg10
F2820.0
sg11
VEraring
p638
sg13
Nsg14
g15
sg16
g17
sg18
Nsg19
g20
sg21
g634
sg22
Nsg23
g9
sg24
g25
((lp639
g72
atp640
Rp641
sg30
VOrigin Energy
p642
sg32
I2012
sg33
g2
(g34
g4
Ntp643
Rp644
(dp645
g38
F-33.062074923999944
sg39
g20
sg40
F151.52064791500004
sbsbsVAUS0000307
p646
g2
(g3
g4
Ntp647
Rp648
(dp649
g8
g9
sg10
F206.0
sg11
VCollgar Wind Farm
p650
sg13
Nsg14
g15
sg16
g17
sg18
Nsg19
g20
sg21
g646
sg22
Nsg23
g9
sg24
g25
((lp651
g181
atp652
Rp653
sg30
VUBS IIT/ REST
p654
sg32
I2012
sg33
g2
(g34
g4
Ntp655
Rp656
(dp657
g38
F-31.50015284699998
sg39
g20
sg40
F118.46325039700002
sbsbsVAUS0000304
p658
g2
(g3
g4
Ntp659
Rp660
(dp661
g8
g9
sg10
F6.5
sg11
VLake Keepit
p662
sg13
Nsg14
g15
sg16
g17
sg18
Nsg19
g20
sg21
g658
sg22
Nsg23
g9
sg24
g25
((lp663
g59
atp664
Rp665
sg30
VCountry Energy
p666
sg32
I2012
sg33
g2
(g34
g4
Ntp667
Rp668
(dp669
g38
F-30.87918899999994
sg39
g20
sg40
F150.49139900000011
sbsbsVAUS0000305
p670
g2
(g3
g4
Ntp671
Rp672
(dp673
g8
g9
sg10
F50.0
sg11
VBroken Hill
p674
sg13
Nsg14
g15
sg16
g17
sg18
Nsg19
g20
sg21
g670
sg22
Nsg23
g9
sg24
g25
((lp675
g27
atp676
Rp677
sg30
VEssential Energy
p678
sg32
I2012
sg33
g2
(g34
g4
Ntp679
Rp680
(dp681
g38
F-31.98629599999998
sg39
g20
sg40
F141.42033400000003
sbsbsVAUS0000001
p682
g2
(g3
g4
Ntp683
Rp684
(dp685
g8
g9
sg10
F12.0
sg11
VWonthaggi Wind Farm
p686
sg13
Nsg14
g15
sg16
g17
sg18
Nsg19
g20
sg21
g682
sg22
Nsg23
g9
sg24
g25
((lp687
g181
atp688
Rp689
sg30
VOrigin Energy
p690
sg32
I2012
sg33
g2
(g34
g4
Ntp691
Rp692
(dp693
g38
F-38.60373599999997
sg39
g20
sg40
F145.54616700000008
sbsbsVAUS0000003
p694
g2
(g3
g4
Ntp695
Rp696
(dp697
g8
g9
sg10
F30.0
sg11
VCullerin Range Wind Farm
p698
sg13
Nsg14
g15
sg16
g17
sg18
Nsg19
g20
sg21
g694
sg22
Nsg23
g9
sg24
g25
((lp699
g181
atp700
Rp701
sg30
VOrigin Energy
p702
sg32
I2012
sg33
g2
(g34
g4
Ntp703
Rp704
(dp705
g38
F-34.80498161999998
sg39
g20
sg40
F149.4001295820001
sbsbsVAUS0000002
p706
g2
(g3
g4
Ntp707
Rp708
(dp709
g8
g9
sg10
F89.1
sg11
VWalkaway Wind Farm
p710
sg13
Nsg14
g15
sg16
g17
sg18
Nsg19
g20
sg21
g706
sg22
Nsg23
g9
sg24
g25
((lp711
g181
atp712
Rp713
sg30
VInfigen Energy Pty Ltd
p714
sg32
I2012
sg33
g2
(g34
g4
Ntp715
Rp716
(dp717
g38
F-28.92285099999998
sg39
g20
sg40
F114.92815850000011
sbsbsVAUS0000005
p718
g2
(g3
g4
Ntp719
Rp720
(dp721
g8
g9
sg10
F98.7
sg11
VSnowtown Wind Farm Stage 1
p722
sg13
Nsg14
g15
sg16
g17
sg18
Nsg19
g20
sg21
g718
sg22
Nsg23
g9
sg24
g25
((lp723
g181
atp724
Rp725
sg30
VTrustPower Ltd
p726
sg32
I2012
sg33
g2
(g34
g4
Ntp727
Rp728
(dp729
g38
F-33.72151999999994
sg39
g20
sg40
F138.14708800000005
sbsbsVAUS0000004
p730
g2
(g3
g4
Ntp731
Rp732
(dp733
g8
g9
sg10
F90.75
sg11
VWattle Point Wind Farm
p734
sg13
Nsg14
g15
sg16
g17
sg18
Nsg19
g20
sg21
g730
sg22
Nsg23
g9
sg24
g25
((lp735
g181
atp736
Rp737
sg30
VANZ Energy Infrastructure Trust
p738
sg32
I2012
sg33
g2
(g34
g4
Ntp739
Rp740
(dp741
g38
F-35.12135499999994
sg39
g20
sg40
F137.71661800000004
sbsbsVAUS0000007
p742
g2
(g3
g4
Ntp743
Rp744
(dp745
g8
g9
sg10
F58.0
sg11
VCape Bridgewater Wind Farm
p746
sg13
Nsg14
g15
sg16
g17
sg18
Nsg19
g20
sg21
g742
sg22
Nsg23
g9
sg24
g25
((lp747
g181
atp748
Rp749
sg30
VPacific Hydro Pty Ltd
p750
sg32
I2012
sg33
g2
(g34
g4
Ntp751
Rp752
(dp753
g38
F-38.357654999999966
sg39
g20
sg40
F141.3850440000001
sbsbsVAUS0000006
p754
g2
(g3
g4
Ntp755
Rp756
(dp757
g8
g9
sg10
F52.5
sg11
VChallicum Hills Wind Farm
p758
sg13
Nsg14
g15
sg16
g17
sg18
Nsg19
g20
sg21
g754
sg22
Nsg23
g9
sg24
g25
((lp759
g181
atp760
Rp761
sg30
VPacific Hydro Pty Ltd
p762
sg32
I2012
sg33
g2
(g34
g4
Ntp763
Rp764
(dp765
g38
F-37.38978902399998
sg39
g20
sg40
F143.11397110200005
sbsbsVAUS0000009
p766
g2
(g3
g4
Ntp767
Rp768
(dp769
g8
g9
sg10
F65.0
sg11
VBluff Point (Woolnorth) Wind Farm
p770
sg13
Nsg14
g15
sg16
g17
sg18
Nsg19
g20
sg21
g766
sg22
Nsg23
g9
sg24
g25
((lp771
g181
atp772
Rp773
sg30
VHydro-Electric Corporation (Tasmania)
p774
sg32
I2012
sg33
g2
(g34
g4
Ntp775
Rp776
(dp777
g38
F-40.720673999999974
sg39
g20
sg40
F144.6869190000001
sbsbsVAUS0000008
p778
g2
(g3
g4
Ntp779
Rp780
(dp781
g8
g9
sg10
F55.0
sg11
VBarcaldine (Len Wishaw)
p782
sg13
Nsg14
g15
sg16
g17
sg18
Nsg19
g20
sg21
g778
sg22
Nsg23
g9
sg24
g25
((lp783
g27
atp784
Rp785
sg30
VErgon Energy Qld Pty Ltd
p786
sg32
I2012
sg33
g2
(g34
g4
Ntp787
Rp788
(dp789
g38
F-23.55245199999996
sg39
g20
sg40
F145.31418600000006
sbsbsVAUS0000119
p790
g2
(g3
g4
Ntp791
Rp792
(dp793
g8
g9
sg10
F90.0
sg11
VTarraleah
p794
sg13
Nsg14
g15
sg16
g17
sg18
Nsg19
g20
sg21
g790
sg22
Nsg23
g9
sg24
g25
((lp795
g59
atp796
Rp797
sg30
VHydro-Electric Corporation (Tasmania)
p798
sg32
I2012
sg33
g2
(g34
g4
Ntp799
Rp800
(dp801
g38
F-42.301207999999974
sg39
g20
sg40
F146.45715600000005
sbsbsVAUS0000029
p802
g2
(g3
g4
Ntp803
Rp804
(dp805
g8
g9
sg10
F4.3
sg11
VWoodlawn Bioreactor
p806
sg13
Nsg14
g15
sg16
g17
sg18
Nsg19
g20
sg21
g802
sg22
Nsg23
g9
sg24
g25
((lp807
g243
atp808
Rp809
sg30
VVeolia Environmental Services (Aust) Pty Ltd
p810
sg32
I2012
sg33
g2
(g34
g4
Ntp811
Rp812
(dp813
g38
F-35.05900245999993
sg39
g20
sg40
F149.5769049710001
sbsbsVAUS0000135
p814
g2
(g3
g4
Ntp815
Rp816
(dp817
g8
g9
sg10
F46.0
sg11
VFisher
p818
sg13
Nsg14
g15
sg16
g17
sg18
Nsg19
g20
sg21
g814
sg22
Nsg23
g9
sg24
g25
((lp819
g59
atp820
Rp821
sg30
VHydro-Electric Corporation (Tasmania)
p822
sg32
I2012
sg33
g2
(g34
g4
Ntp823
Rp824
(dp825
g38
F-41.673239999999964
sg39
g20
sg40
F146.26851800000009
sbsbsVAUS0000134
p826
g2
(g3
g4
Ntp827
Rp828
(dp829
g8
g9
sg10
F143.0
sg11
VJohn Butters
p830
sg13
Nsg14
g15
sg16
g17
sg18
Nsg19
g20
sg21
g826
sg22
Nsg23
g9
sg24
g25
((lp831
g59
atp832
Rp833
sg30
VHydro-Electric Corporation (Tasmania)
p834
sg32
I2012
sg33
g2
(g34
g4
Ntp835
Rp836
(dp837
g38
F-42.154834999999935
sg39
g20
sg40
F145.53447700000004
sbsbsVAUS0000137
p838
g2
(g3
g4
Ntp839
Rp840
(dp841
g8
g9
sg10
F79.9
sg11
VBastyan
p842
sg13
Nsg14
g15
sg16
g17
sg18
Nsg19
g20
sg21
g838
sg22
Nsg23
g9
sg24
g25
((lp843
g59
atp844
Rp845
sg30
VHydro-Electric Corporation (Tasmania)
p846
sg32
I2012
sg33
g2
(g34
g4
Ntp847
Rp848
(dp849
g38
F-41.735982999999976
sg39
g20
sg40
F145.5321120000001
sbsbsVAUS0000136
p850
g2
(g3
g4
Ntp851
Rp852
(dp853
g8
g9
sg10
F63.0
sg11
VDevils Gate
p854
sg13
Nsg14
g15
sg16
g17
sg18
Nsg19
g20
sg21
g850
sg22
Nsg23
g9
sg24
g25
((lp855
g59
atp856
Rp857
sg30
VHydro-Electric Corporation (Tasmania)
p858
sg32
I2012
sg33
g2
(g34
g4
Ntp859
Rp860
(dp861
g38
F-41.35046699999998
sg39
g20
sg40
F146.26316700000007
sbsbsVAUS0000131
p862
g2
(g3
g4
Ntp863
Rp864
(dp865
g8
g9
sg10
F3.2
sg11
VLower Lake Margaret
p866
sg13
Nsg14
g15
sg16
g17
sg18
Nsg19
g20
sg21
g862
sg22
Nsg23
g9
sg24
g25
((lp867
g59
atp868
Rp869
sg30
VHydro-Electric Corporation (Tasmania)
p870
sg32
I2012
sg33
g2
(g34
g4
Ntp871
Rp872
(dp873
g38
F-42.01888399999996
sg39
g20
sg40
F145.54249800000002
sbsbsVAUS0000130
p874
g2
(g3
g4
Ntp875
Rp876
(dp877
g8
g9
sg10
F30.0
sg11
VPaloona
p878
sg13
Nsg14
g15
sg16
g17
sg18
Nsg19
g20
sg21
g874
sg22
Nsg23
g9
sg24
g25
((lp879
g59
atp880
Rp881
sg30
VHydro-Electric Corporation (Tasmania)
p882
sg32
I2012
sg33
g2
(g34
g4
Ntp883
Rp884
(dp885
g38
F-41.28261599999996
sg39
g20
sg40
F146.24896400000011
sbsbsVAUS0000133
p886
g2
(g3
g4
Ntp887
Rp888
(dp889
g8
g9
sg10
F8.4
sg11
VUpper Lake Margaret
p890
sg13
Nsg14
g15
sg16
g17
sg18
Nsg19
g20
sg21
g886
sg22
Nsg23
g9
sg24
g25
((lp891
g59
atp892
Rp893
sg30
VHydro-Electric Corporation (Tasmania)
p894
sg32
I2012
sg33
g2
(g34
g4
Ntp895
Rp896
(dp897
g38
F-42.00456699999995
sg39
g20
sg40
F145.54369900000006
sbsbsVAUS0000132
p898
g2
(g3
g4
Ntp899
Rp900
(dp901
g8
g9
sg10
F54.0
sg11
VLemonthyme
p902
sg13
Nsg14
g15
sg16
g17
sg18
Nsg19
g20
sg21
g898
sg22
Nsg23
g9
sg24
g25
((lp903
g59
atp904
Rp905
sg30
VHydro-Electric Corporation (Tasmania)
p906
sg32
I2012
sg33
g2
(g34
g4
Ntp907
Rp908
(dp909
g38
F-41.60376299999996
sg39
g20
sg40
F146.13902200000007
sbsbsVAUS0000139
p910
g2
(g3
g4
Ntp911
Rp912
(dp913
g8
g9
sg10
F120.0
sg11
VBell Bay (Bell Bay Three)
p914
sg13
Nsg14
g15
sg16
g17
sg18
Nsg19
g20
sg21
g910
sg22
Nsg23
g9
sg24
g25
((lp915
g27
atp916
Rp917
sg30
VAurora Energy Tamar Valley Pty Ltd
p918
sg32
I2012
sg33
g2
(g34
g4
Ntp919
Rp920
(dp921
g38
F-41.14289599999995
sg39
g20
sg40
F146.90299800000003
sbsbsVAUS0000138
p922
g2
(g3
g4
Ntp923
Rp924
(dp925
g8
g9
sg10
F390.0
sg11
VTamar Valley
p926
sg13
Nsg14
g15
sg16
g17
sg18
Nsg19
g20
sg21
g922
sg22
Nsg23
g9
sg24
g25
((lp927
g27
atp928
Rp929
sg30
VAurora Energy (Tamar Valley)
p930
sg32
I2012
sg33
g2
(g34
g4
Ntp931
Rp932
(dp933
g38
F-41.140124999999955
sg39
g20
sg40
F146.90363600000012
sbsbsVAUS0000023
p934
g2
(g3
g4
Ntp935
Rp936
(dp937
g8
g9
sg10
F71.4
sg11
VHallett 2 Hallet Hill  Wind Farm
p938
sg13
Nsg14
g15
sg16
g17
sg18
Nsg19
g20
sg21
g934
sg22
Nsg23
g9
sg24
g25
((lp939
g181
atp940
Rp941
sg30
VANZ Energy Infrastructure Trust
p942
sg32
I2012
sg33
g2
(g34
g4
Ntp943
Rp944
(dp945
g38
F-33.52260243499995
sg39
g20
sg40
F138.85515976300007
sbsbsVAUS0000022
p946
g2
(g3
g4
Ntp947
Rp948
(dp949
g8
g9
sg10
F94.5
sg11
VHallett 1 Brown Hill  Wind Farm
p950
sg13
Nsg14
g15
sg16
g17
sg18
Nsg19
g20
sg21
g946
sg22
Nsg23
g9
sg24
g25
((lp951
g181
atp952
Rp953
sg30
VAGL Energy Pty Ltd
p954
sg32
I2012
sg33
g2
(g34
g4
Ntp955
Rp956
(dp957
g38
F-33.33973357899998
sg39
g20
sg40
F138.73233165800002
sbsbsVAUS0000474
p958
g2
(g3
g4
Ntp959
Rp960
(dp961
g8
g9
sg10
F10.0
sg11
VGreenough River Solar Farm
p962
sg13
Nsg14
g15
sg16
g17
sg18
Nsg19
g20
sg21
g958
sg22
Nsg23
g9
sg24
g25
((lp963
VSolar
p964
atp965
Rp966
sg30
VVerve Energy/GE Energy Financial Services JV
p967
sg32
I2014
sg33
g2
(g34
g4
Ntp968
Rp969
(dp970
g38
F-28.90431806199996
sg39
g20
sg40
F115.11193748500011
sbsbsVAUS0000475
p971
g2
(g3
g4
Ntp972
Rp973
(dp974
g8
g9
sg10
F55.0
sg11
VMumbida Wind Farm
p975
sg13
Nsg14
g15
sg16
g17
sg18
Nsg19
g20
sg21
g971
sg22
Nsg23
g9
sg24
g25
((lp976
g181
atp977
Rp978
sg30
VVerve Energy Pty Ltd
p979
sg32
I2014
sg33
g2
(g34
g4
Ntp980
Rp981
(dp982
g38
F-28.991804877999982
sg39
g20
sg40
F114.95988782900008
sbsbsVAUS0000476
p983
g2
(g3
g4
Ntp984
Rp985
(dp986
g8
g9
sg10
F102.0
sg11
VNyngan Solar Plant
p987
sg13
Nsg14
g15
sg16
g17
sg18
Nsg19
g20
sg21
g983
sg22
Nsg23
g9
sg24
g25
((lp988
g964
atp989
Rp990
sg30
VAGL Energy
p991
sg32
I2016
sg33
g2
(g34
g4
Ntp992
Rp993
(dp994
g38
F-31.552740360999962
sg39
g20
sg40
F147.08535195000002
sbsbsVAUS0000477
p995
g2
(g3
g4
Ntp996
Rp997
(dp998
g8
g9
sg10
F53.0
sg11
VBroken Hill Solar Plant
p999
sg13
Nsg14
g15
sg16
g17
sg18
Nsg19
g20
sg21
g995
sg22
Nsg23
g9
sg24
g25
((lp1000
g964
atp1001
Rp1002
sg30
VAGL Energy
p1003
sg32
I2016
sg33
g2
(g34
g4
Ntp1004
Rp1005
(dp1006
g38
F-31.986707426999942
sg39
g20
sg40
F141.3915455120001
sbsbsVAUS0000470
p1007
g2
(g3
g4
Ntp1008
Rp1009
(dp1010
g8
g9
sg10
F1.0
sg11
VUterne Solar
p1011
sg13
Nsg14
g15
sg16
g17
sg18
Nsg19
g20
sg21
g1007
sg22
Nsg23
g9
sg24
g25
((lp1012
g964
atp1013
Rp1014
sg30
VEpuron
p1015
sg32
I2014
sg33
g2
(g34
g4
Ntp1016
Rp1017
(dp1018
g38
F-23.768517390999932
sg39
g20
sg40
F133.86821016400006
sbsbsVAUS0000471
p1019
g2
(g3
g4
Ntp1020
Rp1021
(dp1022
g8
g9
sg10
F0.19
sg11
VHermannsburg
p1023
sg13
Nsg14
g15
sg16
g17
sg18
Nsg19
g20
sg21
g1019
sg22
Nsg23
g9
sg24
g25
((lp1024
g964
atp1025
Rp1026
sg30
VSolar Systems
p1027
sg32
I2014
sg33
g2
(g34
g4
Ntp1028
Rp1029
(dp1030
g38
F-23.93736457899996
sg39
g20
sg40
F132.77192821900007
sbsbsVAUS0000472
p1031
g2
(g3
g4
Ntp1032
Rp1033
(dp1034
g8
g9
sg10
F0.3
sg11
VBallarat Solar Park
p1035
sg13
Nsg14
g15
sg16
g17
sg18
Nsg19
g20
sg21
g1031
sg22
Nsg23
g9
sg24
g25
((lp1036
g964
atp1037
Rp1038
sg30
VCentral Victoria Solar City Consortium
p1039
sg32
I2014
sg33
g2
(g34
g4
Ntp1040
Rp1041
(dp1042
g38
F-37.51437136499993
sg39
g20
sg40
F143.78547291200005
sbsbsVAUS0000473
p1043
g2
(g3
g4
Ntp1044
Rp1045
(dp1046
g8
g9
sg10
F9.3
sg11
VLiddell Solar Thermal
p1047
sg13
Nsg14
g15
sg16
g17
sg18
Nsg19
g20
sg21
g1043
sg22
Nsg23
g9
sg24
g25
((lp1048
g964
atp1049
Rp1050
sg30
VMacquarie Generation
p1051
sg32
I2014
sg33
g2
(g34
g4
Ntp1052
Rp1053
(dp1054
g38
F-32.376069144999974
sg39
g20
sg40
F150.97966729400002
sbsbsVAUS0000229
p1055
g2
(g3
g4
Ntp1056
Rp1057
(dp1058
g8
g9
sg10
F153.0
sg11
VParaburdoo
p1059
sg13
Nsg14
g15
sg16
g17
sg18
Nsg19
g20
sg21
g1055
sg22
Nsg23
g9
sg24
g25
((lp1060
g27
atp1061
Rp1062
sg30
VRio Tinto Australia Pty Ltd
p1063
sg32
I2012
sg33
g2
(g34
g4
Ntp1064
Rp1065
(dp1066
g38
F-23.223478996999972
sg39
g20
sg40
F117.61348122600009
sbsbsVAUS0000228
p1067
g2
(g3
g4
Ntp1068
Rp1069
(dp1070
g8
g9
sg10
F20.0
sg11
VParaburdoo (Standby)
p1071
sg13
Nsg14
g15
sg16
g17
sg18
Nsg19
g20
sg21
g1067
sg22
Nsg23
g9
sg24
g25
((lp1072
g27
atp1073
Rp1074
sg30
VRio Tinto Australia Pty Ltd
p1075
sg32
I2012
sg33
g2
(g34
g4
Ntp1076
Rp1077
(dp1078
g38
F-23.221953285999973
sg39
g20
sg40
F117.61503073100005
sbsbsVAUS0000344
p1079
g2
(g3
g4
Ntp1080
Rp1081
(dp1082
g8
g9
sg10
F1.0
sg11
VTea Tree Gully
p1083
sg13
Nsg14
g15
sg16
g17
sg18
Nsg19
g20
sg21
g1079
sg22
Nsg23
g9
sg24
g25
((lp1084
g243
atp1085
Rp1086
sg30
VEDL LFG SA Pty Ltd
p1087
sg32
I2012
sg33
g2
(g34
g4
Ntp1088
Rp1089
(dp1090
g38
F-34.830327067999974
sg39
g20
sg40
F138.71285098500005
sbsbsVAUS0000345
p1091
g2
(g3
g4
Ntp1092
Rp1093
(dp1094
g8
g9
sg10
F57.6
sg11
VPort Stanvac
p1095
sg13
Nsg14
g15
sg16
g17
sg18
Nsg19
g20
sg21
g1091
sg22
Nsg23
g9
sg24
g25
((lp1096
g206
atp1097
Rp1098
sg30
VInfratil Energy Australia Pty Ltd
p1099
sg32
I2012
sg33
g2
(g34
g4
Ntp1100
Rp1101
(dp1102
g38
F-35.11039534399998
sg39
g20
sg40
F138.49145908000003
sbsbsVAUS0000342
p1103
g2
(g3
g4
Ntp1104
Rp1105
(dp1106
g8
g9
sg10
F25.0
sg11
VBox Hill
p1107
sg13
Nsg14
g15
sg16
g17
sg18
Nsg19
g20
sg21
g1103
sg22
Nsg23
g9
sg24
g25
((lp1108
g181
atp1109
Rp1110
sg30
VAGL Energy
p1111
sg32
I2012
sg33
g2
(g34
g4
Ntp1112
Rp1113
(dp1114
g38
F-30.49941066699995
sg39
g20
sg40
F151.68388987800006
sbsbsVAUS0000343
p1115
g2
(g3
g4
Ntp1116
Rp1117
(dp1118
g8
g9
sg10
F1.0
sg11
VHighbury
p1119
sg13
Nsg14
g15
sg16
g17
sg18
Nsg19
g20
sg21
g1115
sg22
Nsg23
g9
sg24
g25
((lp1120
g243
atp1121
Rp1122
sg30
VEDL LFG SA Pty Ltd
p1123
sg32
I2012
sg33
g2
(g34
g4
Ntp1124
Rp1125
(dp1126
g38
F-34.84902902299996
sg39
g20
sg40
F138.72028357300007
sbsbsVAUS0000340
p1127
g2
(g3
g4
Ntp1128
Rp1129
(dp1130
g8
g9
sg10
F0.3
sg11
VRubicon Falls
p1131
sg13
Nsg14
g15
sg16
g17
sg18
Nsg19
g20
sg21
g1127
sg22
Nsg23
g9
sg24
g25
((lp1132
g59
atp1133
Rp1134
sg30
VAGL Energy Pty Ltd
p1135
sg32
I2012
sg33
g2
(g34
g4
Ntp1136
Rp1137
(dp1138
g38
F-37.34008662499997
sg39
g20
sg40
F145.8476787080001
sbsbsVAUS0000341
p1139
g2
(g3
g4
Ntp1140
Rp1141
(dp1142
g8
g9
sg10
F4.1
sg11
VLeonards Hill
p1143
sg13
Nsg14
g15
sg16
g17
sg18
Nsg19
g20
sg21
g1139
sg22
Nsg23
g9
sg24
g25
((lp1144
g181
atp1145
Rp1146
sg30
VHepburn Community Wind Park Co-operative Ltd
p1147
sg32
I2012
sg33
g2
(g34
g4
Ntp1148
Rp1149
(dp1150
g38
F-37.427135745999976
sg39
g20
sg40
F144.12215301000003
sbsbsVAUS0000221
p1151
g2
(g3
g4
Ntp1152
Rp1153
(dp1154
g8
g9
sg10
F28.0
sg11
VChristmas Creek Iron Ore Mine
p1155
sg13
Nsg14
g15
sg16
g17
sg18
Nsg19
g20
sg21
g1151
sg22
Nsg23
g9
sg24
g25
((lp1156
g206
atp1157
Rp1158
sg30
VContract Power Holdings
p1159
sg32
I2012
sg33
g2
(g34
g4
Ntp1160
Rp1161
(dp1162
g38
F-22.398999999999944
sg39
g20
sg40
F119.73200000000008
sbsbsVAUS0000220
p1163
g2
(g3
g4
Ntp1164
Rp1165
(dp1166
g8
g9
sg10
F32.0
sg11
VArgyle Diamond Mine
p1167
sg13
Nsg14
g15
sg16
g17
sg18
Nsg19
g20
sg21
g1163
sg22
Nsg23
g9
sg24
g25
((lp1168
g206
atp1169
Rp1170
sg30
VRio Tinto - Argyle Diamond Mines
p1171
sg32
I2012
sg33
g2
(g34
g4
Ntp1172
Rp1173
(dp1174
g38
F-16.716156999999953
sg39
g20
sg40
F128.40308000000005
sbsbsVAUS0000223
p1175
g2
(g3
g4
Ntp1176
Rp1177
(dp1178
g8
g9
sg10
F78.0
sg11
VLeonora (Murrin Murrin Nickel Mine)
p1179
sg13
Nsg14
g15
sg16
g17
sg18
Nsg19
g20
sg21
g1175
sg22
Nsg23
g9
sg24
g25
((lp1180
g27
atp1181
Rp1182
sg30
VMinara Resources
p1183
sg32
I2012
sg33
g2
(g34
g4
Ntp1184
Rp1185
(dp1186
g38
F-28.923753999999974
sg39
g20
sg40
F121.32929000000001
sbsbsVAUS0000222
p1187
g2
(g3
g4
Ntp1188
Rp1189
(dp1190
g8
g9
sg10
F21.0
sg11
VJundee Gold Mine
p1191
sg13
Nsg14
g15
sg16
g17
sg18
Nsg19
g20
sg21
g1187
sg22
Nsg23
g9
sg24
g25
((lp1192
g27
atp1193
Rp1194
sg30
VNewmount Australia
p1195
sg32
I2012
sg33
g2
(g34
g4
Ntp1196
Rp1197
(dp1198
g38
F-26.371211999999957
sg39
g20
sg40
F120.57761300000004
sbsbsVAUS0000225
p1199
g2
(g3
g4
Ntp1200
Rp1201
(dp1202
g8
g9
sg10
F28.0
sg11
VPlutonic Gold Mine
p1203
sg13
Nsg14
g15
sg16
g17
sg18
Nsg19
g20
sg21
g1199
sg22
Nsg23
g9
sg24
g25
((lp1204
g27
atp1205
Rp1206
sg30
VBarrick Gold of Australia
p1207
sg32
I2012
sg33
g2
(g34
g4
Ntp1208
Rp1209
(dp1210
g38
F-25.311001999999974
sg39
g20
sg40
F119.45075700000007
sbsbsVAUS0000224
p1211
g2
(g3
g4
Ntp1212
Rp1213
(dp1214
g8
g9
sg10
F30.0
sg11
VOrd River
p1215
sg13
Nsg14
g15
sg16
g17
sg18
Nsg19
g20
sg21
g1211
sg22
Nsg23
g9
sg24
g25
((lp1216
g59
atp1217
Rp1218
sg30
VPacific Hydro Pty Ltd
p1219
sg32
I2012
sg33
g2
(g34
g4
Ntp1220
Rp1221
(dp1222
g38
F-16.120131999999955
sg39
g20
sg40
F128.73832500000003
sbsbsVAUS0000227
p1223
g2
(g3
g4
Ntp1224
Rp1225
(dp1226
g8
g9
sg10
F21.0
sg11
VWiluna Gold Mine
p1227
sg13
Nsg14
g15
sg16
g17
sg18
Nsg19
g20
sg21
g1223
sg22
Nsg23
g9
sg24
g25
((lp1228
g27
atp1229
Rp1230
sg30
VApex Minerals
p1231
sg32
I2012
sg33
g2
(g34
g4
Ntp1232
Rp1233
(dp1234
g38
F-26.63156799999996
sg39
g20
sg40
F120.25188400000002
sbsbsVAUS0000226
p1235
g2
(g3
g4
Ntp1236
Rp1237
(dp1238
g8
g9
sg10
F28.4
sg11
VSunrise Dam
p1239
sg13
Nsg14
g15
sg16
g17
sg18
Nsg19
g20
sg21
g1235
sg22
Nsg23
g9
sg24
g25
((lp1240
g27
atp1241
Rp1242
sg30
VEnergy Generation / AngloGold Ashanti
p1243
sg32
I2012
sg33
g2
(g34
g4
Ntp1244
Rp1245
(dp1246
g38
F-29.09268343599996
sg39
g20
sg40
F122.43928453500007
sbsbsVAUS0000049
p1247
g2
(g3
g4
Ntp1248
Rp1249
(dp1250
g8
g9
sg10
F1.1
sg11
VAwaba
p1251
sg13
Nsg14
g15
sg16
g17
sg18
Nsg19
g20
sg21
g1247
sg22
Nsg23
g9
sg24
g25
((lp1252
g243
atp1253
Rp1254
sg30
VLMS Energy Generation Pty Ltd
p1255
sg32
I2012
sg33
g2
(g34
g4
Ntp1256
Rp1257
(dp1258
g38
F-33.02502999999996
sg39
g20
sg40
F151.5497190000001
sbsbsVAUS0000048
p1259
g2
(g3
g4
Ntp1260
Rp1261
(dp1262
g8
g9
sg10
F27.2
sg11
VBurrinjuck Power Station
p1263
sg13
Nsg14
g15
sg16
g17
sg18
Nsg19
g20
sg21
g1259
sg22
Nsg23
g9
sg24
g25
((lp1264
g59
atp1265
Rp1266
sg30
VEraring Energy
p1267
sg32
I2012
sg33
g2
(g34
g4
Ntp1268
Rp1269
(dp1270
g38
F-35.00251999999995
sg39
g20
sg40
F148.58339300000011
sbsbsVAUS0000045
p1271
g2
(g3
g4
Ntp1272
Rp1273
(dp1274
g8
g9
sg10
F5.0
sg11
VEastern Creek
p1275
sg13
Nsg14
g15
sg16
g17
sg18
Nsg19
g20
sg21
g1271
sg22
Nsg23
g9
sg24
g25
((lp1276
g243
atp1277
Rp1278
sg30
VEnergy Developments LFG(NSW) Pty Ltd
p1279
sg32
I2012
sg33
g2
(g34
g4
Ntp1280
Rp1281
(dp1282
g38
F-33.814156999999966
sg39
g20
sg40
F150.8537020000001
sbsbsVAUS0000044
p1283
g2
(g3
g4
Ntp1284
Rp1285
(dp1286
g8
g9
sg10
F7.7
sg11
VEastern Creek 2
p1287
sg13
Nsg14
g15
sg16
g17
sg18
Nsg19
g20
sg21
g1283
sg22
Nsg23
g9
sg24
g25
((lp1288
g243
atp1289
Rp1290
sg30
VLMS Energy Generation Pty Ltd
p1291
sg32
I2012
sg33
g2
(g34
g4
Ntp1292
Rp1293
(dp1294
g38
F-33.81251499999996
sg39
g20
sg40
F150.86168300000008
sbsbsVAUS0000047
p1295
g2
(g3
g4
Ntp1296
Rp1297
(dp1298
g8
g9
sg10
F140.7
sg11
VCapital Wind Farm
p1299
sg13
Nsg14
g15
sg16
g17
sg18
Nsg19
g20
sg21
g1295
sg22
Nsg23
g9
sg24
g25
((lp1300
g181
atp1301
Rp1302
sg30
VInfigen Energy Pty Ltd
p1303
sg32
I2012
sg33
g2
(g34
g4
Ntp1304
Rp1305
(dp1306
g38
F-35.16603062099995
sg39
g20
sg40
F149.51856862600005
sbsbsVAUS0000046
p1307
g2
(g3
g4
Ntp1308
Rp1309
(dp1310
g8
g9
sg10
F4.8
sg11
VCrookwell Wind Farm
p1311
sg13
Nsg14
g15
sg16
g17
sg18
Nsg19
g20
sg21
g1307
sg22
Nsg23
g9
sg24
g25
((lp1312
g181
atp1313
Rp1314
sg30
VEraring Energy
p1315
sg32
I2012
sg33
g2
(g34
g4
Ntp1316
Rp1317
(dp1318
g38
F-34.51649999999995
sg39
g20
sg40
F149.54248000000007
sbsbsVAUS0000041
p1319
g2
(g3
g4
Ntp1320
Rp1321
(dp1322
g8
g9
sg10
F1.3
sg11
VGrange Avenue
p1323
sg13
Nsg14
g15
sg16
g17
sg18
Nsg19
g20
sg21
g1319
sg22
Nsg23
g9
sg24
g25
((lp1324
g243
atp1325
Rp1326
sg30
VEnergy Developments LFG (NSW) Pty Ltd
p1327
sg32
I2012
sg33
g2
(g34
g4
Ntp1328
Rp1329
(dp1330
g38
F-33.70293799999996
sg39
g20
sg40
F150.8312330000001
sbsbsVAUS0000040
p1331
g2
(g3
g4
Ntp1332
Rp1333
(dp1334
g8
g9
sg10
F46.5
sg11
VGunning
p1335
sg13
Nsg14
g15
sg16
g17
sg18
Nsg19
g20
sg21
g1331
sg22
Nsg23
g9
sg24
g25
((lp1336
g181
atp1337
Rp1338
sg30
VAcciona Energy Australia
p1339
sg32
I2012
sg33
g2
(g34
g4
Ntp1340
Rp1341
(dp1342
g38
F-34.695830899999976
sg39
g20
sg40
F149.3831752110001
sbsbsVAUS0000043
p1343
g2
(g3
g4
Ntp1344
Rp1345
(dp1346
g8
g9
sg10
F79.2
sg11
VEmu Downs Wind Farm
p1347
sg13
Nsg14
g15
sg16
g17
sg18
Nsg19
g20
sg21
g1343
sg22
Nsg23
g9
sg24
g25
((lp1348
g181
atp1349
Rp1350
sg30
VGriffin Energy & Stanwell Corporation Ltd
p1351
sg32
I2012
sg33
g2
(g34
g4
Ntp1352
Rp1353
(dp1354
g38
F-30.488061999999957
sg39
g20
sg40
F115.33700500000009
sbsbsVAUS0000042
p1355
g2
(g3
g4
Ntp1356
Rp1357
(dp1358
g8
g9
sg10
F3.6
sg11
VEsperance Wind Farm Nine Mile Beach
p1359
sg13
Nsg14
g15
sg16
g17
sg18
Nsg19
g20
sg21
g1355
sg22
Nsg23
g9
sg24
g25
((lp1360
g181
atp1361
Rp1362
sg30
VVerve Energy
p1363
sg32
I2012
sg33
g2
(g34
g4
Ntp1364
Rp1365
(dp1366
g38
F-33.892709999999965
sg39
g20
sg40
F121.77778
sbsbsVAUS0000346
p1367
g2
(g3
g4
Ntp1368
Rp1369
(dp1370
g8
g9
sg10
F7.5
sg11
VMaryborough
p1371
sg13
Nsg14
g15
sg16
g17
sg18
Nsg19
g20
sg21
g1367
sg22
Nsg23
g9
sg24
g25
((lp1372
g303
atp1373
Rp1374
sg30
VMSF Sugar
p1375
sg32
I2012
sg33
g2
(g34
g4
Ntp1376
Rp1377
(dp1378
g38
F-25.547588004999966
sg39
g20
sg40
F152.7170960950001
sbsbsVAUS0000347
p1379
g2
(g3
g4
Ntp1380
Rp1381
(dp1382
g8
g9
sg10
F4.8
sg11
VStapylton Green Energy
p1383
sg13
Nsg14
g15
sg16
g17
sg18
Nsg19
g20
sg21
g1379
sg22
Nsg23
g9
sg24
g25
((lp1384
g303
atp1385
Rp1386
sg30
VStapylton Green Energy
p1387
sg32
I2012
sg33
g2
(g34
g4
Ntp1388
Rp1389
(dp1390
g38
F-27.733448959999976
sg39
g20
sg40
F153.24630257800004
sbsbsVAUS0000403
p1391
g2
(g3
g4
Ntp1392
Rp1393
(dp1394
g8
g9
sg10
F0.4
sg11
VErskine Park
p1395
sg13
Nsg14
g15
sg16
g17
sg18
Nsg19
g20
sg21
g1391
sg22
Nsg23
g9
sg24
g25
((lp1396
g27
atp1397
Rp1398
sg30
VCogent Energy
p1399
sg32
I2012
sg33
g2
(g34
g4
Ntp1400
Rp1401
(dp1402
g38
F-33.81820658899994
sg39
g20
sg40
F150.80322730700004
sbsbsVAUS0000402
p1403
g2
(g3
g4
Ntp1404
Rp1405
(dp1406
g8
g9
sg10
F0.8
sg11
VClub Merrylands
p1407
sg13
Nsg14
g15
sg16
g17
sg18
Nsg19
g20
sg21
g1403
sg22
Nsg23
g9
sg24
g25
((lp1408
g206
atp1409
Rp1410
sg30
VClub Merrylands
p1411
sg32
I2012
sg33
g2
(g34
g4
Ntp1412
Rp1413
(dp1414
g38
F-33.83811554999994
sg39
g20
sg40
F150.99050381200004
sbsbsVAUS0000348
p1415
g2
(g3
g4
Ntp1416
Rp1417
(dp1418
g8
g9
sg10
F0.6
sg11
VBremer Bay Wind Turbine
p1419
sg13
Nsg14
g15
sg16
g17
sg18
Nsg19
g20
sg21
g1415
sg22
Nsg23
g9
sg24
g25
((lp1420
g181
atp1421
Rp1422
sg30
VVerve Energy
p1423
sg32
I2012
sg33
g2
(g34
g4
Ntp1424
Rp1425
(dp1426
g38
F-34.399007154999936
sg39
g20
sg40
F119.39148142400006
sbsbsVAUS0000376
p1427
g2
(g3
g4
Ntp1428
Rp1429
(dp1430
g8
g9
sg10
F0.5
sg11
VBlue Lake Milling Power Plant
p1431
sg13
Nsg14
g15
sg16
g17
sg18
Nsg19
g20
sg21
g1427
sg22
Nsg23
g9
sg24
g25
((lp1432
g206
atp1433
Rp1434
sg30
VVibe Energy Pty Ltd
p1435
sg32
I2012
sg33
g2
(g34
g4
Ntp1436
Rp1437
(dp1438
g38
F-36.31643279399998
sg39
g20
sg40
F140.7574619190001
sbsbsVAUS0000349
p1439
g2
(g3
g4
Ntp1440
Rp1441
(dp1442
g8
g9
sg10
F1.3
sg11
VBremer Bay Diesel Backup
p1443
sg13
Nsg14
g15
sg16
g17
sg18
Nsg19
g20
sg21
g1439
sg22
Nsg23
g9
sg24
g25
((lp1444
g206
atp1445
Rp1446
sg30
VVerve Energy
p1447
sg32
I2012
sg33
g2
(g34
g4
Ntp1448
Rp1449
(dp1450
g38
F-34.40182817799996
sg39
g20
sg40
F119.38880433100007
sbsbsVAUS0000409
p1451
g2
(g3
g4
Ntp1452
Rp1453
(dp1454
g8
g9
sg10
F4.43
sg11
VLeonora
p1455
sg13
Nsg14
g15
sg16
g17
sg18
Nsg19
g20
sg21
g1451
sg22
Nsg23
g9
sg24
g25
((lp1456
g27
atp1457
Rp1458
sg30
VEnergy Developments
p1459
sg32
I2012
sg33
g2
(g34
g4
Ntp1460
Rp1461
(dp1462
g38
F-28.881076375999953
sg39
g20
sg40
F121.32127466800011
sbsbsVAUS0000408
p1463
g2
(g3
g4
Ntp1464
Rp1465
(dp1466
g8
g9
sg10
F2.9
sg11
VMeekatharra
p1467
sg13
Nsg14
g15
sg16
g17
sg18
Nsg19
g20
sg21
g1463
sg22
Nsg23
g9
sg24
g25
((lp1468
g206
atp1469
Rp1470
sg30
VEnergy Developments
p1471
sg32
I2012
sg33
g2
(g34
g4
Ntp1472
Rp1473
(dp1474
g38
F-26.59517155499998
sg39
g20
sg40
F118.48302202900004
sbsbsVAUS0000438
p1475
g2
(g3
g4
Ntp1476
Rp1477
(dp1478
g8
g9
sg10
F1.5
sg11
VCSIRO Energy Centre
p1479
sg13
Nsg14
g15
sg16
g17
sg18
Nsg19
g20
sg21
g1475
sg22
Nsg23
g9
sg24
g25
((lp1480
g964
atp1481
Rp1482
sg30
VCSIRO
p1483
sg32
I2012
sg33
g2
(g34
g4
Ntp1484
Rp1485
(dp1486
g38
F-32.88347300399994
sg39
g20
sg40
F151.72745249100012
sbsbsVAUS0000439
p1487
g2
(g3
g4
Ntp1488
Rp1489
(dp1490
g8
g9
sg10
F0.67
sg11
VNewington Solar Suburb
p1491
sg13
Nsg14
g15
sg16
g17
sg18
Nsg19
g20
sg21
g1487
sg22
Nsg23
g9
sg24
g25
((lp1492
g964
atp1493
Rp1494
sg30
VPacific Power
p1495
sg32
I2012
sg33
g2
(g34
g4
Ntp1496
Rp1497
(dp1498
g38
F-33.841292099999976
sg39
g20
sg40
F151.0538161280001
sbsbsVAUS0000430
p1499
g2
(g3
g4
Ntp1500
Rp1501
(dp1502
g8
g9
sg10
F0.25
sg11
VQueen Victoria Market Solar Array
p1503
sg13
Nsg14
g15
sg16
g17
sg18
Nsg19
g20
sg21
g1499
sg22
Nsg23
g9
sg24
g25
((lp1504
g964
atp1505
Rp1506
sg30
VMelbourne City Council
p1507
sg32
I2012
sg33
g2
(g34
g4
Ntp1508
Rp1509
(dp1510
g38
F-37.80694397399998
sg39
g20
sg40
F144.9569437770001
sbsbsVAUS0000431
p1511
g2
(g3
g4
Ntp1512
Rp1513
(dp1514
g8
g9
sg10
F0.3
sg11
VBendigo Solar Park
p1515
sg13
Nsg14
g15
sg16
g17
sg18
Nsg19
g20
sg21
g1511
sg22
Nsg23
g9
sg24
g25
((lp1516
g964
atp1517
Rp1518
sg30
VCentral Victoria Solar City Consortium
p1519
sg32
I2012
sg33
g2
(g34
g4
Ntp1520
Rp1521
(dp1522
g38
F-36.67475241999995
sg39
g20
sg40
F144.3032389540001
sbsbsVAUS0000432
p1523
g2
(g3
g4
Ntp1524
Rp1525
(dp1526
g8
g9
sg10
F1.0
sg11
VAdelaide Showgrounds
p1527
sg13
Nsg14
g15
sg16
g17
sg18
Nsg19
g20
sg21
g1523
sg22
Nsg23
g9
sg24
g25
((lp1528
g964
atp1529
Rp1530
sg30
VAdelaide Showgrounds
p1531
sg32
I2012
sg33
g2
(g34
g4
Ntp1532
Rp1533
(dp1534
g38
F-34.94528525499993
sg39
g20
sg40
F138.58819351300008
sbsbsVAUS0000370
p1535
g2
(g3
g4
Ntp1536
Rp1537
(dp1538
g8
g9
sg10
F12.4
sg11
VKununurra
p1539
sg13
Nsg14
g15
sg16
g17
sg18
Nsg19
g20
sg21
g1535
sg22
Nsg23
g9
sg24
g25
((lp1540
g206
atp1541
Rp1542
sg30
VHorizon Power
p1543
sg32
I2012
sg33
g2
(g34
g4
Ntp1544
Rp1545
(dp1546
g38
F-15.779556778999961
sg39
g20
sg40
F128.73946199400007
sbsbsVAUS0000434
p1547
g2
(g3
g4
Ntp1548
Rp1549
(dp1550
g8
g9
sg10
F0.34
sg11
VTownsville RSL Stadium Solar Array
p1551
sg13
Nsg14
g15
sg16
g17
sg18
Nsg19
g20
sg21
g1547
sg22
Nsg23
g9
sg24
g25
((lp1552
g964
atp1553
Rp1554
sg30
VTownsville RSL Stadium
p1555
sg32
I2012
sg33
g2
(g34
g4
Ntp1556
Rp1557
(dp1558
g38
F-19.307861025999955
sg39
g20
sg40
F146.8010542510001
sbsbsVAUS0000435
p1559
g2
(g3
g4
Ntp1560
Rp1561
(dp1562
g8
g9
sg10
F0.4
sg11
VFraser Coast Community Solar Farm
p1563
sg13
Nsg14
g15
sg16
g17
sg18
Nsg19
g20
sg21
g1559
sg22
Nsg23
g9
sg24
g25
((lp1564
g964
atp1565
Rp1566
sg30
VWide Bay Water Corporation
p1567
sg32
I2012
sg33
g2
(g34
g4
Ntp1568
Rp1569
(dp1570
g38
F-25.318398602999935
sg39
g20
sg40
F152.7901683220001
sbsbsVAUS0000436
p1571
g2
(g3
g4
Ntp1572
Rp1573
(dp1574
g8
g9
sg10
F0.22
sg11
VMetricon (Gold Coast) Stadium Solar Array
p1575
sg13
Nsg14
g15
sg16
g17
sg18
Nsg19
g20
sg21
g1571
sg22
Nsg23
g9
sg24
g25
((lp1576
g964
atp1577
Rp1578
sg30
VMetricon Stadium
p1579
sg32
I2012
sg33
g2
(g34
g4
Ntp1580
Rp1581
(dp1582
g38
F-28.00627412299997
sg39
g20
sg40
F153.36711828600005
sbsbsVAUS0000437
p1583
g2
(g3
g4
Ntp1584
Rp1585
(dp1586
g8
g9
sg10
F0.29
sg11
VCarnarvon Solar Farm
p1587
sg13
Nsg14
g15
sg16
g17
sg18
Nsg19
g20
sg21
g1583
sg22
Nsg23
g9
sg24
g25
((lp1588
g964
atp1589
Rp1590
sg30
VEMC Solar
p1591
sg32
I2012
sg33
g2
(g34
g4
Ntp1592
Rp1593
(dp1594
g38
F-24.897029118999967
sg39
g20
sg40
F113.6741161000001
sbsbsVAUS0000382
p1595
g2
(g3
g4
Ntp1596
Rp1597
(dp1598
g8
g9
sg10
F1.3
sg11
VBidyadanga
p1599
sg13
Nsg14
g15
sg16
g17
sg18
Nsg19
g20
sg21
g1595
sg22
Nsg23
g9
sg24
g25
((lp1600
g206
atp1601
Rp1602
sg30
VEnergy Developments Ltd
p1603
sg32
I2012
sg33
g2
(g34
g4
Ntp1604
Rp1605
(dp1606
g38
F-18.68162717399997
sg39
g20
sg40
F121.78478093100011
sbsbsVAUS0000276
p1607
g2
(g3
g4
Ntp1608
Rp1609
(dp1610
g8
g9
sg10
F10.0
sg11
VGlennies Creek
p1611
sg13
Nsg14
g15
sg16
g17
sg18
Nsg19
g20
sg21
g1607
sg22
Nsg23
g9
sg24
g25
((lp1612
g27
atp1613
Rp1614
sg30
VEnviroGen Pty Ltd
p1615
sg32
I2012
sg33
g2
(g34
g4
Ntp1616
Rp1617
(dp1618
g38
F-32.45984299999998
sg39
g20
sg40
F151.12862700000005
sbsbsVAUS0000380
p1619
g2
(g3
g4
Ntp1620
Rp1621
(dp1622
g8
g9
sg10
F0.7
sg11
VDjarindjin
p1623
sg13
Nsg14
g15
sg16
g17
sg18
Nsg19
g20
sg21
g1619
sg22
Nsg23
g9
sg24
g25
((lp1624
g206
atp1625
Rp1626
sg30
VEnergy Developments Ltd
p1627
sg32
I2012
sg33
g2
(g34
g4
Ntp1628
Rp1629
(dp1630
g38
F-16.519907689999968
sg39
g20
sg40
F122.9035895080001
sbsbsVAUS0000381
p1631
g2
(g3
g4
Ntp1632
Rp1633
(dp1634
g8
g9
sg10
F0.7
sg11
VBeagle Bay
p1635
sg13
Nsg14
g15
sg16
g17
sg18
Nsg19
g20
sg21
g1631
sg22
Nsg23
g9
sg24
g25
((lp1636
g206
atp1637
Rp1638
sg30
VEnergy Developments Ltd
p1639
sg32
I2012
sg33
g2
(g34
g4
Ntp1640
Rp1641
(dp1642
g38
F-16.993900064999934
sg39
g20
sg40
F122.65850864600009
sbsbsVAUS0000386
p1643
g2
(g3
g4
Ntp1644
Rp1645
(dp1646
g8
g9
sg10
F15.0
sg11
VCarnarvon
p1647
sg13
Nsg14
g15
sg16
g17
sg18
Nsg19
g20
sg21
g1643
sg22
Nsg23
g9
sg24
g25
((lp1648
g27
atp1649
Rp1650
sg30
g20
sg32
I2012
sg33
g2
(g34
g4
Ntp1651
Rp1652
(dp1653
g38
F-24.86915967899995
sg39
g20
sg40
F113.67537540600006
sbsbsVAUS0000387
p1654
g2
(g3
g4
Ntp1655
Rp1656
(dp1657
g8
g9
sg10
F18.0
sg11
VMungullah
p1658
sg13
Nsg14
g15
sg16
g17
sg18
Nsg19
g20
sg21
g1654
sg22
Nsg23
g9
sg24
g25
((lp1659
g27
atp1660
Rp1661
sg30
VHorizon Power
p1662
sg32
I2012
sg33
g2
(g34
g4
Ntp1663
Rp1664
(dp1665
g38
F-24.891051455999957
sg39
g20
sg40
F113.7095328040001
sbsbsVAUS0000384
p1666
g2
(g3
g4
Ntp1667
Rp1668
(dp1669
g8
g9
sg10
F1.3
sg11
VWiluna
p1670
sg13
Nsg14
g15
sg16
g17
sg18
Nsg19
g20
sg21
g1666
sg22
Nsg23
g9
sg24
g25
((lp1671
g206
atp1672
Rp1673
sg30
VEnergy Developments
p1674
sg32
I2012
sg33
g2
(g34
g4
Ntp1675
Rp1676
(dp1677
g38
F-26.592159892999973
sg39
g20
sg40
F120.21850892600003
sbsbsVAUS0000277
p1678
g2
(g3
g4
Ntp1679
Rp1680
(dp1681
g8
g9
sg10
F29.0
sg11
VHunter
p1682
sg13
Nsg14
g15
sg16
g17
sg18
Nsg19
g20
sg21
g1678
sg22
Nsg23
g9
sg24
g25
((lp1683
g206
atp1684
Rp1685
sg30
VInfratil Energy Australia Pty Ltd
p1686
sg32
I2012
sg33
g2
(g34
g4
Ntp1687
Rp1688
(dp1689
g38
F-32.83602099999996
sg39
g20
sg40
F151.4504710000001
sbsbsVAUS0000388
p1690
g2
(g3
g4
Ntp1691
Rp1692
(dp1693
g8
g9
sg10
F0.06
sg11
VExmouth Advanced Mini Wind Farm
p1694
sg13
Nsg14
g15
sg16
g17
sg18
Nsg19
g20
sg21
g1690
sg22
Nsg23
g9
sg24
g25
((lp1695
g181
atp1696
Rp1697
sg30
g20
sg32
I2012
sg33
g2
(g34
g4
Ntp1698
Rp1699
(dp1700
g38
F-21.812631499999952
sg39
g20
sg40
F114.1335056480001
sbsbsVAUS0000389
p1701
g2
(g3
g4
Ntp1702
Rp1703
(dp1704
g8
g9
sg10
F120.0
sg11
VWorsley
p1705
sg13
Nsg14
g15
sg16
g17
sg18
Nsg19
g20
sg21
g1701
sg22
Nsg23
g9
sg24
g25
((lp1706
g72
atp1707
Rp1708
sg30
VBHP
p1709
sg32
I2012
sg33
g2
(g34
g4
Ntp1710
Rp1711
(dp1712
g38
F-33.235493273999964
sg39
g20
sg40
F116.06879749400002
sbsbsVAUS0000265
p1713
g2
(g3
g4
Ntp1714
Rp1715
(dp1716
g8
g9
sg10
F2640.0
sg11
VBayswater
p1717
sg13
Nsg14
g15
sg16
g17
sg18
Nsg19
g20
sg21
g1713
sg22
Nsg23
g9
sg24
g25
((lp1718
g72
atp1719
Rp1720
sg30
VMacquarie Generation
p1721
sg32
I2012
sg33
g2
(g34
g4
Ntp1722
Rp1723
(dp1724
g38
F-32.39526999999998
sg39
g20
sg40
F150.94913000000008
sbsbsVAUS0000264
p1725
g2
(g3
g4
Ntp1726
Rp1727
(dp1728
g8
g9
sg10
F59.7
sg11
VAppin (Mine)
p1729
sg13
Nsg14
g15
sg16
g17
sg18
Nsg19
g20
sg21
g1725
sg22
Nsg23
g9
sg24
g25
((lp1730
g27
atp1731
Rp1732
sg30
VEnergy Developments CSM (NSW) Pty Ltd
p1733
sg32
I2012
sg33
g2
(g34
g4
Ntp1734
Rp1735
(dp1736
g38
F-34.20818499999996
sg39
g20
sg40
F150.77218100000005
sbsbsVAUS0000267
p1737
g2
(g3
g4
Ntp1738
Rp1739
(dp1740
g8
g9
sg10
F70.0
sg11
VBlowering
p1741
sg13
Nsg14
g15
sg16
g17
sg18
Nsg19
g20
sg21
g1737
sg22
Nsg23
g9
sg24
g25
((lp1742
g59
atp1743
Rp1744
sg30
VSnowy Hydro Ltd
p1745
sg32
I2012
sg33
g2
(g34
g4
Ntp1746
Rp1747
(dp1748
g38
F-35.39860099999993
sg39
g20
sg40
F148.2462720000001
sbsbsVAUS0000266
p1749
g2
(g3
g4
Ntp1750
Rp1751
(dp1752
g8
g9
sg10
F80.0
sg11
VBendeela (Shoalhaven Scheme)
p1753
sg13
Nsg14
g15
sg16
g17
sg18
Nsg19
g20
sg21
g1749
sg22
Nsg23
g9
sg24
g25
((lp1754
g59
atp1755
Rp1756
sg30
VOrigin Energy
p1757
sg32
I2012
sg33
g2
(g34
g4
Ntp1758
Rp1759
(dp1760
g38
F-34.73368999999997
sg39
g20
sg40
F150.46687000000009
sbsbsVAUS0000261
p1761
g2
(g3
g4
Ntp1762
Rp1763
(dp1764
g8
g9
sg10
F232.0
sg11
VChannel Island
p1765
sg13
Nsg14
g15
sg16
g17
sg18
Nsg19
g20
sg21
g1761
sg22
Nsg23
g9
sg24
g25
((lp1766
g27
atp1767
Rp1768
sg30
VNT Power and Water
p1769
sg32
I2012
sg33
g2
(g34
g4
Ntp1770
Rp1771
(dp1772
g38
F-12.554992999999968
sg39
g20
sg40
F130.8665870000001
sbsbsVAUS0000149
p1773
g2
(g3
g4
Ntp1774
Rp1775
(dp1776
g8
g9
sg10
F385.0
sg11
VSwanbank E
p1777
sg13
Nsg14
g15
sg16
g17
sg18
Nsg19
g20
sg21
g1773
sg22
Nsg23
g9
sg24
g25
((lp1778
g27
atp1779
Rp1780
sg30
VCS Energy
p1781
sg32
I2012
sg33
g2
(g34
g4
Ntp1782
Rp1783
(dp1784
g38
F-27.655373999999938
sg39
g20
sg40
F152.81793800000003
sbsbsVAUS0000263
p1785
g2
(g3
g4
Ntp1786
Rp1787
(dp1788
g8
g9
sg10
F30.0
sg11
VCondong Sugar Mill
p1789
sg13
Nsg14
g15
sg16
g17
sg18
Nsg19
g20
sg21
g1785
sg22
Nsg23
g9
sg24
g25
((lp1790
g303
atp1791
Rp1792
sg30
VDelta Electricity
p1793
sg32
I2012
sg33
g2
(g34
g4
Ntp1794
Rp1795
(dp1796
g38
F-28.313801999999953
sg39
g20
sg40
F153.43411000000003
sbsbsVAUS0000262
p1797
g2
(g3
g4
Ntp1798
Rp1799
(dp1800
g8
g9
sg10
F19.0
sg11
VWarrego
p1801
sg13
Nsg14
g15
sg16
g17
sg18
Nsg19
g20
sg21
g1797
sg22
Nsg23
g9
sg24
g25
((lp1802
g27
atp1803
Rp1804
sg30
g20
sg32
I2012
sg33
g2
(g34
g4
Ntp1805
Rp1806
(dp1807
g38
F-19.443392999999958
sg39
g20
sg40
F133.8235870000001
sbsbsVAUS0000144
p1808
g2
(g3
g4
Ntp1809
Rp1810
(dp1811
g8
g9
sg10
F100.0
sg11
VCethana
p1812
sg13
Nsg14
g15
sg16
g17
sg18
Nsg19
g20
sg21
g1808
sg22
Nsg23
g9
sg24
g25
((lp1813
g59
atp1814
Rp1815
sg30
VHydro-Electric Corporation (Tasmania)
p1816
sg32
I2012
sg33
g2
(g34
g4
Ntp1817
Rp1818
(dp1819
g38
F-41.48023699999993
sg39
g20
sg40
F146.13484900000003
sbsbsVAUS0000145
p1820
g2
(g3
g4
Ntp1821
Rp1822
(dp1823
g8
g9
sg10
F10.5
sg11
VInkerman Sugar Mill
p1824
sg13
Nsg14
g15
sg16
g17
sg18
Nsg19
g20
sg21
g1820
sg22
Nsg23
g9
sg24
g25
((lp1825
g303
atp1826
Rp1827
sg30
VCSR
p1828
sg32
I2012
sg33
g2
(g34
g4
Ntp1829
Rp1830
(dp1831
g38
F-19.642154999999946
sg39
g20
sg40
F147.40159100000005
sbsbsVAUS0000146
p1832
g2
(g3
g4
Ntp1833
Rp1834
(dp1835
g8
g9
sg10
F34.0
sg11
VMackay
p1836
sg13
Nsg14
g15
sg16
g17
sg18
Nsg19
g20
sg21
g1832
sg22
Nsg23
g9
sg24
g25
((lp1837
g27
atp1838
Rp1839
sg30
VStanwell Corporation Ltd
p1840
sg32
I2012
sg33
g2
(g34
g4
Ntp1841
Rp1842
(dp1843
g38
F-21.14456599999994
sg39
g20
sg40
F149.1590970000001
sbsbsVAUS0000147
p1844
g2
(g3
g4
Ntp1845
Rp1846
(dp1847
g8
g9
sg10
F80.0
sg11
VRoma
p1848
sg13
Nsg14
g15
sg16
g17
sg18
Nsg19
g20
sg21
g1844
sg22
Nsg23
g9
sg24
g25
((lp1849
g27
atp1850
Rp1851
sg30
VOrigin Energy
p1852
sg32
I2012
sg33
g2
(g34
g4
Ntp1853
Rp1854
(dp1855
g38
F-26.577200999999945
sg39
g20
sg40
F148.8401990000001
sbsbsVAUS0000269
p1856
g2
(g3
g4
Ntp1857
Rp1858
(dp1859
g8
g9
sg10
F5.4
sg11
VBrown Mountain
p1860
sg13
Nsg14
g15
sg16
g17
sg18
Nsg19
g20
sg21
g1856
sg22
Nsg23
g9
sg24
g25
((lp1861
g59
atp1862
Rp1863
sg30
VEraring Energy
p1864
sg32
I2012
sg33
g2
(g34
g4
Ntp1865
Rp1866
(dp1867
g38
F-36.595144999999945
sg39
g20
sg40
F149.47410700000012
sbsbsVAUS0000141
p1868
g2
(g3
g4
Ntp1869
Rp1870
(dp1871
g8
g9
sg10
F238.0
sg11
VReece
p1872
sg13
Nsg14
g15
sg16
g17
sg18
Nsg19
g20
sg21
g1868
sg22
Nsg23
g9
sg24
g25
((lp1873
g59
atp1874
Rp1875
sg30
VHydro-Electric Corporation (Tasmania)
p1876
sg32
I2012
sg33
g2
(g34
g4
Ntp1877
Rp1878
(dp1879
g38
F-41.723769999999945
sg39
g20
sg40
F145.1359480000001
sbsbsVAUS0000142
p1880
g2
(g3
g4
Ntp1881
Rp1882
(dp1883
g8
g9
sg10
F81.0
sg11
VMackintosh
p1884
sg13
Nsg14
g15
sg16
g17
sg18
Nsg19
g20
sg21
g1880
sg22
Nsg23
g9
sg24
g25
((lp1885
g59
atp1886
Rp1887
sg30
VHydro-Electric Corporation (Tasmania)
p1888
sg32
I2012
sg33
g2
(g34
g4
Ntp1889
Rp1890
(dp1891
g38
F-41.69974999999994
sg39
g20
sg40
F145.6461190000001
sbsbsVAUS0000143
p1892
g2
(g3
g4
Ntp1893
Rp1894
(dp1895
g8
g9
sg10
F432.0
sg11
VGordon
p1896
sg13
Nsg14
g15
sg16
g17
sg18
Nsg19
g20
sg21
g1892
sg22
Nsg23
g9
sg24
g25
((lp1897
g59
atp1898
Rp1899
sg30
VHydro-Electric Corporation (Tasmania)
p1900
sg32
I2012
sg33
g2
(g34
g4
Ntp1901
Rp1902
(dp1903
g38
F-42.73864199999997
sg39
g20
sg40
F145.98116500000003
sbsbsVAUS0000176
p1904
g2
(g3
g4
Ntp1905
Rp1906
(dp1907
g8
g9
sg10
F900.0
sg11
VCallide C
p1908
sg13
Nsg14
g15
sg16
g17
sg18
Nsg19
g20
sg21
g1904
sg22
Nsg23
g9
sg24
g25
((lp1909
g72
atp1910
Rp1911
sg30
VCS Energy
p1912
sg32
I2012
sg33
g2
(g34
g4
Ntp1913
Rp1914
(dp1915
g38
F-24.344945999999936
sg39
g20
sg40
F150.61818100000005
sbsbsVAUS0000319
p1916
g2
(g3
g4
Ntp1917
Rp1918
(dp1919
g8
g9
sg10
F0.8
sg11
VUniversity of New South Wales
p1920
sg13
Nsg14
g15
sg16
g17
sg18
Nsg19
g20
sg21
g1916
sg22
Nsg23
g9
sg24
g25
((lp1921
g27
atp1922
Rp1923
sg30
VCogent Energy
p1924
sg32
I2012
sg33
g2
(g34
g4
Ntp1925
Rp1926
(dp1927
g38
F-33.916704281999955
sg39
g20
sg40
F151.23535272300012
sbsbsVAUS0000318
p1928
g2
(g3
g4
Ntp1929
Rp1930
(dp1931
g8
g9
sg10
F1.5
sg11
VSt George Leagues Club
p1932
sg13
Nsg14
g15
sg16
g17
sg18
Nsg19
g20
sg21
g1928
sg22
Nsg23
g9
sg24
g25
((lp1933
g206
atp1934
Rp1935
sg30
VSt George Leagues Club
p1936
sg32
I2012
sg33
g2
(g34
g4
Ntp1937
Rp1938
(dp1939
g38
F-33.97481738299996
sg39
g20
sg40
F151.1293810090001
sbsbsVAUS0000177
p1940
g2
(g3
g4
Ntp1941
Rp1942
(dp1943
g8
g9
sg10
F700.0
sg11
VCallide B
p1944
sg13
Nsg14
g15
sg16
g17
sg18
Nsg19
g20
sg21
g1940
sg22
Nsg23
g9
sg24
g25
((lp1945
g72
atp1946
Rp1947
sg30
VCS Energy
p1948
sg32
I2012
sg33
g2
(g34
g4
Ntp1949
Rp1950
(dp1951
g38
F-24.344879999999932
sg39
g20
sg40
F150.61974900000007
sbsbsVAUS0000311
p1952
g2
(g3
g4
Ntp1953
Rp1954
(dp1955
g8
g9
sg10
F17.0
sg11
VProserpine Sugar Mill
p1956
sg13
Nsg14
g15
sg16
g17
sg18
Nsg19
g20
sg21
g1952
sg22
Nsg23
g9
sg24
g25
((lp1957
g303
atp1958
Rp1959
sg30
VSucrogen
p1960
sg32
I2012
sg33
g2
(g34
g4
Ntp1961
Rp1962
(dp1963
g38
F-20.398544758999947
sg39
g20
sg40
F148.57971634900002
sbsbsVAUS0000310
p1964
g2
(g3
g4
Ntp1965
Rp1966
(dp1967
g8
g9
sg10
F21.4
sg11
VTully Sugar Mill
p1968
sg13
Nsg14
g15
sg16
g17
sg18
Nsg19
g20
sg21
g1964
sg22
Nsg23
g9
sg24
g25
((lp1969
g303
atp1970
Rp1971
sg30
VCOFCO
p1972
sg32
I2012
sg33
g2
(g34
g4
Ntp1973
Rp1974
(dp1975
g38
F-17.937317647999976
sg39
g20
sg40
F145.92665248700007
sbsbsVAUS0000313
p1976
g2
(g3
g4
Ntp1977
Rp1978
(dp1979
g8
g9
sg10
F0.8
sg11
VSydney
p1980
sg13
Nsg14
g15
sg16
g17
sg18
Nsg19
g20
sg21
g1976
sg22
Nsg23
g9
sg24
g25
((lp1981
g27
atp1982
Rp1983
sg30
VCogent Energy
p1984
sg32
I2012
sg33
g2
(g34
g4
Ntp1985
Rp1986
(dp1987
g38
F-33.87154700199994
sg39
g20
sg40
F151.20910002800008
sbsbsVAUS0000312
p1988
g2
(g3
g4
Ntp1989
Rp1990
(dp1991
g8
g9
sg10
F0.8
sg11
VNorth Sydney
p1992
sg13
Nsg14
g15
sg16
g17
sg18
Nsg19
g20
sg21
g1988
sg22
Nsg23
g9
sg24
g25
((lp1993
g27
atp1994
Rp1995
sg30
VCogent Energy
p1996
sg32
I2012
sg33
g2
(g34
g4
Ntp1997
Rp1998
(dp1999
g38
F-33.83838156099995
sg39
g20
sg40
F151.20539424000003
sbsbsVAUS0000315
p2000
g2
(g3
g4
Ntp2001
Rp2002
(dp2003
g8
g9
sg10
F0.8
sg11
VBlackmores
p2004
sg13
Nsg14
g15
sg16
g17
sg18
Nsg19
g20
sg21
g2000
sg22
Nsg23
g9
sg24
g25
((lp2005
g27
atp2006
Rp2007
sg30
VCogent Energy
p2008
sg32
I2012
sg33
g2
(g34
g4
Ntp2009
Rp2010
(dp2011
g38
F-33.67777002999998
sg39
g20
sg40
F151.29080465200002
sbsbsVAUS0000314
p2012
g2
(g3
g4
Ntp2013
Rp2014
(dp2015
g8
g9
sg10
F2.4
sg11
VNorth Sydney
p2016
sg13
Nsg14
g15
sg16
g17
sg18
Nsg19
g20
sg21
g2012
sg22
Nsg23
g9
sg24
g25
((lp2017
g27
atp2018
Rp2019
sg30
VCogent Energy
p2020
sg32
I2012
sg33
g2
(g34
g4
Ntp2021
Rp2022
(dp2023
g38
F-33.83981188699994
sg39
g20
sg40
F151.20692819700002
sbsbsVAUS0000317
p2024
g2
(g3
g4
Ntp2025
Rp2026
(dp2027
g8
g9
sg10
F2.5
sg11
VRevesby Workers Club
p2028
sg13
Nsg14
g15
sg16
g17
sg18
Nsg19
g20
sg21
g2024
sg22
Nsg23
g9
sg24
g25
((lp2029
g206
atp2030
Rp2031
sg30
VRevesby Workers Club
p2032
sg32
I2012
sg33
g2
(g34
g4
Ntp2033
Rp2034
(dp2035
g38
F-33.95343975199995
sg39
g20
sg40
F151.013733214
sbsbsVAUS0000316
p2036
g2
(g3
g4
Ntp2037
Rp2038
(dp2039
g8
g9
sg10
F3.2
sg11
VNine Network
p2040
sg13
Nsg14
g15
sg16
g17
sg18
Nsg19
g20
sg21
g2036
sg22
Nsg23
g9
sg24
g25
((lp2041
g206
atp2042
Rp2043
sg30
VNine Network
p2044
sg32
I2012
sg33
g2
(g34
g4
Ntp2045
Rp2046
(dp2047
g38
F-33.81096412699998
sg39
g20
sg40
F151.1966227370001
sbsbsVAUS0000089
p2048
g2
(g3
g4
Ntp2049
Rp2050
(dp2051
g8
g9
sg10
F228.0
sg11
VJeeralang B
p2052
sg13
Nsg14
g15
sg16
g17
sg18
Nsg19
g20
sg21
g2048
sg22
Nsg23
g9
sg24
g25
((lp2053
g27
atp2054
Rp2055
sg30
VIndustry Funds Management Nominees Ltd
p2056
sg32
I2012
sg33
g2
(g34
g4
Ntp2057
Rp2058
(dp2059
g38
F-38.274625999999955
sg39
g20
sg40
F146.42492300000004
sbsbsVAUS0000127
p2060
g2
(g3
g4
Ntp2061
Rp2062
(dp2063
g8
g9
sg10
F12.2
sg11
VButlers Gorge
p2064
sg13
Nsg14
g15
sg16
g17
sg18
Nsg19
g20
sg21
g2060
sg22
Nsg23
g9
sg24
g25
((lp2065
g59
atp2066
Rp2067
sg30
VHydro-Electric Corporation (Tasmania)
p2068
sg32
I2012
sg33
g2
(g34
g4
Ntp2069
Rp2070
(dp2071
g38
F-42.26689799999997
sg39
g20
sg40
F146.2617580000001
sbsbsVAUS0000034
p2072
g2
(g3
g4
Ntp2073
Rp2074
(dp2075
g8
g9
sg10
F3.5
sg11
VMugga Lane
p2076
sg13
Nsg14
g15
sg16
g17
sg18
Nsg19
g20
sg21
g2072
sg22
Nsg23
g9
sg24
g25
((lp2077
g243
atp2078
Rp2079
sg30
VEnergy Developments LFG (ACT) Pty Ltd
p2080
sg32
I2012
sg33
g2
(g34
g4
Ntp2081
Rp2082
(dp2083
g38
F-35.39530399999995
sg39
g20
sg40
F149.14582000000007
sbsbsVAUS0000035
p2084
g2
(g3
g4
Ntp2085
Rp2086
(dp2087
g8
g9
sg10
F4.12
sg11
VLucas Heights III
p2088
sg13
Nsg14
g15
sg16
g17
sg18
Nsg19
g20
sg21
g2084
sg22
Nsg23
g9
sg24
g25
((lp2089
g243
atp2090
Rp2091
sg30
VEnergy Developments LFG (NSW) Pty Ltd
p2092
sg32
I2012
sg33
g2
(g34
g4
Ntp2093
Rp2094
(dp2095
g38
F-34.048145999999974
sg39
g20
sg40
F150.97388200000012
sbsbsVAUS0000036
p2096
g2
(g3
g4
Ntp2097
Rp2098
(dp2099
g8
g9
sg10
F11.33
sg11
VLucas Heights II
p2100
sg13
Nsg14
g15
sg16
g17
sg18
Nsg19
g20
sg21
g2096
sg22
Nsg23
g9
sg24
g25
((lp2101
g243
atp2102
Rp2103
sg30
VEnergy Developments LFG (NSW) Pty Ltd
p2104
sg32
I2012
sg33
g2
(g34
g4
Ntp2105
Rp2106
(dp2107
g38
F-34.048145999999974
sg39
g20
sg40
F150.97388200000012
sbsbsVAUS0000037
p2108
g2
(g3
g4
Ntp2109
Rp2110
(dp2111
g8
g9
sg10
F5.39
sg11
VLucas Heights I
p2112
sg13
Nsg14
g15
sg16
g17
sg18
Nsg19
g20
sg21
g2108
sg22
Nsg23
g9
sg24
g25
((lp2113
g243
atp2114
Rp2115
sg30
VEnergy Developments LFG (NSW) Pty Ltd
p2116
sg32
I2012
sg33
g2
(g34
g4
Ntp2117
Rp2118
(dp2119
g38
F-34.02930199999997
sg39
g20
sg40
F151.0020720000001
sbsbsVAUS0000030
p2120
g2
(g3
g4
Ntp2121
Rp2122
(dp2123
g8
g9
sg10
F1.0
sg11
VWest Nowra (Shoalhaven)
p2124
sg13
Nsg14
g15
sg16
g17
sg18
Nsg19
g20
sg21
g2120
sg22
Nsg23
g9
sg24
g25
((lp2125
g243
atp2126
Rp2127
sg30
VAGL Energy Pty Ltd
p2128
sg32
I2012
sg33
g2
(g34
g4
Ntp2129
Rp2130
(dp2131
g38
F-34.88197799999995
sg39
g20
sg40
F150.55148500000007
sbsbsVAUS0000031
p2132
g2
(g3
g4
Ntp2133
Rp2134
(dp2135
g8
g9
sg10
F1500.0
sg11
VTumut 3
p2136
sg13
Nsg14
g15
sg16
g17
sg18
Nsg19
g20
sg21
g2132
sg22
Nsg23
g9
sg24
g25
((lp2137
g59
atp2138
Rp2139
sg30
VSnowy Hydro Ltd
p2140
sg32
I2012
sg33
g2
(g34
g4
Ntp2141
Rp2142
(dp2143
g38
F-35.61121799999995
sg39
g20
sg40
F148.29168500000003
sbsbsVAUS0000032
p2144
g2
(g3
g4
Ntp2145
Rp2146
(dp2147
g8
g9
sg10
F95.8
sg11
VTrevallyn
p2148
sg13
Nsg14
g15
sg16
g17
sg18
Nsg19
g20
sg21
g2144
sg22
Nsg23
g9
sg24
g25
((lp2149
g59
atp2150
Rp2151
sg30
VHydro-Electric Corporation (Tasmania)
p2152
sg32
I2012
sg33
g2
(g34
g4
Ntp2153
Rp2154
(dp2155
g38
F-41.423141999999984
sg39
g20
sg40
F147.11283000000003
sbsbsVAUS0000033
p2156
g2
(g3
g4
Ntp2157
Rp2158
(dp2159
g8
g9
sg10
F2.2
sg11
VSummerhill
p2160
sg13
Nsg14
g15
sg16
g17
sg18
Nsg19
g20
sg21
g2156
sg22
Nsg23
g9
sg24
g25
((lp2161
g243
atp2162
Rp2163
sg30
VLMS Energy Generation Pty Ltd
p2164
sg32
I2012
sg33
g2
(g34
g4
Ntp2165
Rp2166
(dp2167
g38
F-32.88853299999994
sg39
g20
sg40
F151.64295400000003
sbsbsVAUS0000118
p2168
g2
(g3
g4
Ntp2169
Rp2170
(dp2171
g8
g9
sg10
F1.7
sg11
VTods Corner
p2172
sg13
Nsg14
g15
sg16
g17
sg18
Nsg19
g20
sg21
g2168
sg22
Nsg23
g9
sg24
g25
((lp2173
g59
atp2174
Rp2175
sg30
VHydro-Electric Corporation (Tasmania)
p2176
sg32
I2012
sg33
g2
(g34
g4
Ntp2177
Rp2178
(dp2179
g38
F-41.97073199999994
sg39
g20
sg40
F146.79378500000007
sbsbsVAUS0000038
p2180
g2
(g3
g4
Ntp2181
Rp2182
(dp2183
g8
g9
sg10
F14.4
sg11
VJounama
p2184
sg13
Nsg14
g15
sg16
g17
sg18
Nsg19
g20
sg21
g2180
sg22
Nsg23
g9
sg24
g25
((lp2185
g59
atp2186
Rp2187
sg30
VSnowy Hydro Ltd
p2188
sg32
I2012
sg33
g2
(g34
g4
Ntp2189
Rp2190
(dp2191
g38
F-35.56196499999993
sg39
g20
sg40
F148.305517
sbsbsVAUS0000039
p2192
g2
(g3
g4
Ntp2193
Rp2194
(dp2195
g8
g9
sg10
F2.3
sg11
VJacks Gully
p2196
sg13
Nsg14
g15
sg16
g17
sg18
Nsg19
g20
sg21
g2192
sg22
Nsg23
g9
sg24
g25
((lp2197
g243
atp2198
Rp2199
sg30
VEnergy Developments LFG (NSW) Pty Ltd
p2200
sg32
I2012
sg33
g2
(g34
g4
Ntp2201
Rp2202
(dp2203
g38
F-34.07343999999995
sg39
g20
sg40
F150.74268900000004
sbsbsVAUS0000128
p2204
g2
(g3
g4
Ntp2205
Rp2206
(dp2207
g8
g9
sg10
F84.0
sg11
VTribute
p2208
sg13
Nsg14
g15
sg16
g17
sg18
Nsg19
g20
sg21
g2204
sg22
Nsg23
g9
sg24
g25
((lp2209
g59
atp2210
Rp2211
sg30
VHydro-Electric Corporation (Tasmania)
p2212
sg32
I2012
sg33
g2
(g34
g4
Ntp2213
Rp2214
(dp2215
g38
F-41.811804999999936
sg39
g20
sg40
F145.65356700000007
sbsbsVAUS0000129
p2216
g2
(g3
g4
Ntp2217
Rp2218
(dp2219
g8
g9
sg10
F10.5
sg11
VRowallan
p2220
sg13
Nsg14
g15
sg16
g17
sg18
Nsg19
g20
sg21
g2216
sg22
Nsg23
g9
sg24
g25
((lp2221
g59
atp2222
Rp2223
sg30
VHydro-Electric Corporation (Tasmania)
p2224
sg32
I2012
sg33
g2
(g34
g4
Ntp2225
Rp2226
(dp2227
g38
F-41.72952299999997
sg39
g20
sg40
F146.21759300000008
sbsbsVAUS0000113
p2228
g2
(g3
g4
Ntp2229
Rp2230
(dp2231
g8
g9
sg10
F2.0
sg11
VBallarat Base Hospital
p2232
sg13
Nsg14
g15
sg16
g17
sg18
Nsg19
g20
sg21
g2228
sg22
Nsg23
g9
sg24
g25
((lp2233
g27
atp2234
Rp2235
sg30
VBallarat Base Hospital
p2236
sg32
I2012
sg33
g2
(g34
g4
Ntp2237
Rp2238
(dp2239
g38
F-37.55960699999997
sg39
g20
sg40
F143.84691800000007
sbsbsVAUS0000112
p2240
g2
(g3
g4
Ntp2241
Rp2242
(dp2243
g8
g9
sg10
F22.0
sg11
VCape Nelson North Wind Farm
p2244
sg13
Nsg14
g15
sg16
g17
sg18
Nsg19
g20
sg21
g2240
sg22
Nsg23
g9
sg24
g25
((lp2245
g181
atp2246
Rp2247
sg30
VPacific Hydro Pty Ltd
p2248
sg32
I2012
sg33
g2
(g34
g4
Ntp2249
Rp2250
(dp2251
g38
F-38.367636999999945
sg39
g20
sg40
F141.5429590000001
sbsbsVAUS0000108
p2252
g2
(g3
g4
Ntp2253
Rp2254
(dp2255
g8
g9
sg10
F566.0
sg11
VMortlake
p2256
sg13
Nsg14
g15
sg16
g17
sg18
Nsg19
g20
sg21
g2252
sg22
Nsg23
g9
sg24
g25
((lp2257
g27
atp2258
Rp2259
sg30
VOrigin Energy
p2260
sg32
I2012
sg33
g2
(g34
g4
Ntp2261
Rp2262
(dp2263
g38
F-38.063169321999965
sg39
g20
sg40
F142.6674789110001
sbsbsVAUS0000109
p2264
g2
(g3
g4
Ntp2265
Rp2266
(dp2267
g8
g9
sg10
F185.0
sg11
VDartmouth (Mount Beauty Hydro Scheme)
p2268
sg13
Nsg14
g15
sg16
g17
sg18
Nsg19
g20
sg21
g2264
sg22
Nsg23
g9
sg24
g25
((lp2269
g59
atp2270
Rp2271
sg30
VAGL Energy Pty Ltd
p2272
sg32
I2012
sg33
g2
(g34
g4
Ntp2273
Rp2274
(dp2275
g38
F-36.55642899999998
sg39
g20
sg40
F147.5205800000001
sbsbsVAUS0000100
p2276
g2
(g3
g4
Ntp2277
Rp2278
(dp2279
g8
g9
sg10
F1480.0
sg11
VYallourn
p2280
sg13
Nsg14
g15
sg16
g17
sg18
Nsg19
g20
sg21
g2276
sg22
Nsg23
g9
sg24
g25
((lp2281
g72
atp2282
Rp2283
sg30
VTRUenergy
p2284
sg32
I2012
sg33
g2
(g34
g4
Ntp2285
Rp2286
(dp2287
g38
F-38.17701499999998
sg39
g20
sg40
F146.34278300000005
sbsbsVAUS0000101
p2288
g2
(g3
g4
Ntp2289
Rp2290
(dp2291
g8
g9
sg10
F9.5
sg11
VYarrawonga
p2292
sg13
Nsg14
g15
sg16
g17
sg18
Nsg19
g20
sg21
g2288
sg22
Nsg23
g9
sg24
g25
((lp2293
g59
atp2294
Rp2295
sg30
VAGL Energy Pty Ltd
p2296
sg32
I2012
sg33
g2
(g34
g4
Ntp2297
Rp2298
(dp2299
g38
F-36.009387999999944
sg39
g20
sg40
F145.9994660000001
sbsbsVAUS0000102
p2300
g2
(g3
g4
Ntp2301
Rp2302
(dp2303
g8
g9
sg10
F140.0
sg11
VBogong (Mount Beauty Hydro Scheme)
p2304
sg13
Nsg14
g15
sg16
g17
sg18
Nsg19
g20
sg21
g2300
sg22
Nsg23
g9
sg24
g25
((lp2305
g59
atp2306
Rp2307
sg30
VAGL Energy Pty Ltd
p2308
sg32
I2012
sg33
g2
(g34
g4
Ntp2309
Rp2310
(dp2311
g38
F-36.80546099999998
sg39
g20
sg40
F147.2280340000001
sbsbsVAUS0000103
p2312
g2
(g3
g4
Ntp2313
Rp2314
(dp2315
g8
g9
sg10
F29.0
sg11
VClover
p2316
sg13
Nsg14
g15
sg16
g17
sg18
Nsg19
g20
sg21
g2312
sg22
Nsg23
g9
sg24
g25
((lp2317
g59
atp2318
Rp2319
sg30
VAGL Energy Pty Ltd
p2320
sg32
I2012
sg33
g2
(g34
g4
Ntp2321
Rp2322
(dp2323
g38
F-36.78528099999994
sg39
g20
sg40
F147.2204660000001
sbsbsVAUS0000104
p2324
g2
(g3
g4
Ntp2325
Rp2326
(dp2327
g8
g9
sg10
F150.0
sg11
VMcKay Creek (Mount Beauty Hydro Scheme)
p2328
sg13
Nsg14
g15
sg16
g17
sg18
Nsg19
g20
sg21
g2324
sg22
Nsg23
g9
sg24
g25
((lp2329
g59
atp2330
Rp2331
sg30
VAGL Energy Pty Ltd
p2332
sg32
I2012
sg33
g2
(g34
g4
Ntp2333
Rp2334
(dp2335
g38
F-36.858393999999976
sg39
g20
sg40
F147.23454200000003
sbsbsVAUS0000105
p2336
g2
(g3
g4
Ntp2337
Rp2338
(dp2339
g8
g9
sg10
F60.0
sg11
VWest Kiewa (Mount Beauty Hydro Scheme)
p2340
sg13
Nsg14
g15
sg16
g17
sg18
Nsg19
g20
sg21
g2336
sg22
Nsg23
g9
sg24
g25
((lp2341
g59
atp2342
Rp2343
sg30
VAGL Energy Pty Ltd
p2344
sg32
I2012
sg33
g2
(g34
g4
Ntp2345
Rp2346
(dp2347
g38
F-36.76006599999994
sg39
g20
sg40
F147.18604800000003
sbsbsVAUS0000106
p2348
g2
(g3
g4
Ntp2349
Rp2350
(dp2351
g8
g9
sg10
F552.0
sg11
VMurray 2
p2352
sg13
Nsg14
g15
sg16
g17
sg18
Nsg19
g20
sg21
g2348
sg22
Nsg23
g9
sg24
g25
((lp2353
g59
atp2354
Rp2355
sg30
VSnowy Hydro Ltd
p2356
sg32
I2012
sg33
g2
(g34
g4
Ntp2357
Rp2358
(dp2359
g38
F-36.242343999999946
sg39
g20
sg40
F148.13624700000003
sbsbsVAUS0000107
p2360
g2
(g3
g4
Ntp2361
Rp2362
(dp2363
g8
g9
sg10
F950.0
sg11
VMurray 1
p2364
sg13
Nsg14
g15
sg16
g17
sg18
Nsg19
g20
sg21
g2360
sg22
Nsg23
g9
sg24
g25
((lp2365
g59
atp2366
Rp2367
sg30
VSnowy Hydro Ltd
p2368
sg32
I2012
sg33
g2
(g34
g4
Ntp2369
Rp2370
(dp2371
g38
F-36.24671299999994
sg39
g20
sg40
F148.19009500000004
sbsbsVAUS0000463
p2372
g2
(g3
g4
Ntp2373
Rp2374
(dp2375
g8
g9
sg10
F0.01
sg11
VErnabella
p2376
sg13
Nsg14
g15
sg16
g17
sg18
Nsg19
g20
sg21
g2372
sg22
Nsg23
g9
sg24
g25
((lp2377
g206
atp2378
Rp2379
sg30
VAnanga Pitjantjatjara Council
p2380
sg32
I2012
sg33
g2
(g34
g4
Ntp2381
Rp2382
(dp2383
g38
F-26.277960621999966
sg39
g20
sg40
F132.1313709970001
sbsbsVAUS0000462
p2384
g2
(g3
g4
Ntp2385
Rp2386
(dp2387
g8
g9
sg10
F120.0
sg11
VCape Lambert
p2388
sg13
Nsg14
g15
sg16
g17
sg18
Nsg19
g20
sg21
g2384
sg22
Nsg23
g9
sg24
g25
((lp2389
g27
atp2390
Rp2391
sg30
VRio Tinto Australia Pty Ltd
p2392
sg32
I2014
sg33
g2
(g34
g4
Ntp2393
Rp2394
(dp2395
g38
F-20.648770635999938
sg39
g20
sg40
F117.14073131500004
sbsbsVAUS0000461
p2396
g2
(g3
g4
Ntp2397
Rp2398
(dp2399
g8
g9
sg10
F33.0
sg11
VBulwer Island
p2400
sg13
Nsg14
g15
sg16
g17
sg18
Nsg19
g20
sg21
g2396
sg22
Nsg23
g9
sg24
g25
((lp2401
g27
atp2402
Rp2403
sg30
VATCO and Origin Energy
p2404
sg32
Nsg33
g2
(g34
g4
Ntp2405
Rp2406
(dp2407
g38
F-27.40357955299993
sg39
g20
sg40
F153.13628579200008
sbsbsVAUS0000460
p2408
g2
(g3
g4
Ntp2409
Rp2410
(dp2411
g8
g9
sg10
F60.0
sg11
VLeichhardt
p2412
sg13
Nsg14
g15
sg16
g17
sg18
Nsg19
g20
sg21
g2408
sg22
Nsg23
g9
sg24
g25
((lp2413
g27
atp2414
Rp2415
sg30
VAPA Group and AGL Energy Ltd
p2416
sg32
Nsg33
g2
(g34
g4
Ntp2417
Rp2418
(dp2419
g38
F-20.783335197999975
sg39
g20
sg40
F139.48622070400006
sbsbsVAUS0000467
p2420
g2
(g3
g4
Ntp2421
Rp2422
(dp2423
g8
g9
sg10
F0.13
sg11
VWindorah
p2424
sg13
Nsg14
g15
sg16
g17
sg18
Nsg19
g20
sg21
g2420
sg22
Nsg23
g9
sg24
g25
((lp2425
g964
atp2426
Rp2427
sg30
VErgon Energy
p2428
sg32
I2014
sg33
g2
(g34
g4
Ntp2429
Rp2430
(dp2431
g38
F-25.412664425999935
sg39
g20
sg40
F142.66076150300012
sbsbsVAUS0000466
p2432
g2
(g3
g4
Ntp2433
Rp2434
(dp2435
g8
g9
sg10
F0.29
sg11
VLajamanu
p2436
sg13
Nsg14
g15
sg16
g17
sg18
Nsg19
g20
sg21
g2432
sg22
Nsg23
g9
sg24
g25
((lp2437
g964
atp2438
Rp2439
sg30
VPower and Water Corporation
p2440
sg32
I2014
sg33
g2
(g34
g4
Ntp2441
Rp2442
(dp2443
g38
F-18.32650366699994
sg39
g20
sg40
F130.62948965300006
sbsbsVAUS0000465
p2444
g2
(g3
g4
Ntp2445
Rp2446
(dp2447
g8
g9
sg10
F0.24
sg11
VYuendumu
p2448
sg13
Nsg14
g15
sg16
g17
sg18
Nsg19
g20
sg21
g2444
sg22
Nsg23
g9
sg24
g25
((lp2449
g964
atp2450
Rp2451
sg30
VPower and Water Corporation
p2452
sg32
I2014
sg33
g2
(g34
g4
Ntp2453
Rp2454
(dp2455
g38
F-22.242590623999945
sg39
g20
sg40
F131.79314572300007
sbsbsVAUS0000464
p2456
g2
(g3
g4
Ntp2457
Rp2458
(dp2459
g8
g9
sg10
F0.35
sg11
VUmuwa
p2460
sg13
Nsg14
g15
sg16
g17
sg18
Nsg19
g20
sg21
g2456
sg22
Nsg23
g9
sg24
g25
((lp2461
g964
atp2462
Rp2463
sg30
VSilex Systems
p2464
sg32
I2012
sg33
g2
(g34
g4
Ntp2465
Rp2466
(dp2467
g38
F-26.47355590099994
sg39
g20
sg40
F132.01465681700006
sbsbsVAUS0000469
p2468
g2
(g3
g4
Ntp2469
Rp2470
(dp2471
g8
g9
sg10
F0.24
sg11
VAlice Springs Airport
p2472
sg13
Nsg14
g15
sg16
g17
sg18
Nsg19
g20
sg21
g2468
sg22
Nsg23
g9
sg24
g25
((lp2473
g964
atp2474
Rp2475
sg30
VAlice Springs Airport
p2476
sg32
I2014
sg33
g2
(g34
g4
Ntp2477
Rp2478
(dp2479
g38
F-23.796569829999953
sg39
g20
sg40
F133.89712081200003
sbsbsVAUS0000468
p2480
g2
(g3
g4
Ntp2481
Rp2482
(dp2483
g8
g9
sg10
F0.3
sg11
VDoubleTree by Hilton Hotel
p2484
sg13
Nsg14
g15
sg16
g17
sg18
Nsg19
g20
sg21
g2480
sg22
Nsg23
g9
sg24
g25
((lp2485
g964
atp2486
Rp2487
sg30
VDoubleTree by Hilton Hotel (was Alice Springs Crowne Plaza)
p2488
sg32
I2014
sg33
g2
(g34
g4
Ntp2489
Rp2490
(dp2491
g38
F-23.714967607999938
sg39
g20
sg40
F133.87945391000005
sbsbsVAUS0000355
p2492
g2
(g3
g4
Ntp2493
Rp2494
(dp2495
g8
g9
sg10
F3.2
sg11
VHenderson
p2496
sg13
Nsg14
g15
sg16
g17
sg18
Nsg19
g20
sg21
g2492
sg22
Nsg23
g9
sg24
g25
((lp2497
g243
atp2498
Rp2499
sg30
VWaste Gas Resources
p2500
sg32
I2012
sg33
g2
(g34
g4
Ntp2501
Rp2502
(dp2503
g38
F-32.16502101899994
sg39
g20
sg40
F115.80080012300004
sbsbsVAUS0000354
p2504
g2
(g3
g4
Ntp2505
Rp2506
(dp2507
g8
g9
sg10
F1.8
sg11
VWoodman Point
p2508
sg13
Nsg14
g15
sg16
g17
sg18
Nsg19
g20
sg21
g2504
sg22
Nsg23
g9
sg24
g25
((lp2509
g243
atp2510
Rp2511
sg30
VWater Corporation
p2512
sg32
I2012
sg33
g2
(g34
g4
Ntp2513
Rp2514
(dp2515
g38
F-32.14241985999996
sg39
g20
sg40
F115.77130495800009
sbsbsVAUS0000357
p2516
g2
(g3
g4
Ntp2517
Rp2518
(dp2519
g8
g9
sg10
F1.3
sg11
VMandurah
p2520
sg13
Nsg14
g15
sg16
g17
sg18
Nsg19
g20
sg21
g2516
sg22
Nsg23
g9
sg24
g25
((lp2521
g243
atp2522
Rp2523
sg30
g20
sg32
I2012
sg33
g2
(g34
g4
Ntp2524
Rp2525
(dp2526
g38
F-32.50791826999995
sg39
g20
sg40
F115.75895724000009
sbsbsVAUS0000356
p2527
g2
(g3
g4
Ntp2528
Rp2529
(dp2530
g8
g9
sg10
F4.65
sg11
VTamala Park
p2531
sg13
Nsg14
g15
sg16
g17
sg18
Nsg19
g20
sg21
g2527
sg22
Nsg23
g9
sg24
g25
((lp2532
g243
atp2533
Rp2534
sg30
VLandfill Gas and Power Pty Ltd
p2535
sg32
I2012
sg33
g2
(g34
g4
Ntp2536
Rp2537
(dp2538
g38
F-31.707786128999942
sg39
g20
sg40
F115.72664485300004
sbsbsVAUS0000218
p2539
g2
(g3
g4
Ntp2540
Rp2541
(dp2542
g8
g9
sg10
F180.0
sg11
VYurralyi Maya (Karratha Seven Mile)
p2543
sg13
Nsg14
g15
sg16
g17
sg18
Nsg19
g20
sg21
g2539
sg22
Nsg23
g9
sg24
g25
((lp2544
g27
atp2545
Rp2546
sg30
VRio Tinto Australia Pty Ltd
p2547
sg32
I2012
sg33
g2
(g34
g4
Ntp2548
Rp2549
(dp2550
g38
F-20.761999999999944
sg39
g20
sg40
F116.74200000000008
sbsbsVAUS0000219
p2551
g2
(g3
g4
Ntp2552
Rp2553
(dp2554
g8
g9
sg10
F30.6
sg11
VLaverton (Granny Smith Gold Mine)
p2555
sg13
Nsg14
g15
sg16
g17
sg18
Nsg19
g20
sg21
g2551
sg22
Nsg23
g9
sg24
g25
((lp2556
g206
atp2557
Rp2558
sg30
VBarrick Gold of Australia
p2559
sg32
I2012
sg33
g2
(g34
g4
Ntp2560
Rp2561
(dp2562
g38
F-28.80964899999998
sg39
g20
sg40
F122.41502900000012
sbsbsVAUS0000353
p2563
g2
(g3
g4
Ntp2564
Rp2565
(dp2566
g8
g9
sg10
F1.6
sg11
VDenham Diesel Backup
p2567
sg13
Nsg14
g15
sg16
g17
sg18
Nsg19
g20
sg21
g2563
sg22
Nsg23
g9
sg24
g25
((lp2568
g206
atp2569
Rp2570
sg30
VVerve Energy
p2571
sg32
I2012
sg33
g2
(g34
g4
Ntp2572
Rp2573
(dp2574
g38
F-25.916724838999983
sg39
g20
sg40
F113.5339545280001
sbsbsVAUS0000352
p2575
g2
(g3
g4
Ntp2576
Rp2577
(dp2578
g8
g9
sg10
F0.92
sg11
VDenham Wind Turbines
p2579
sg13
Nsg14
g15
sg16
g17
sg18
Nsg19
g20
sg21
g2575
sg22
Nsg23
g9
sg24
g25
((lp2580
g181
atp2581
Rp2582
sg30
VVerve Energy
p2583
sg32
I2012
sg33
g2
(g34
g4
Ntp2584
Rp2585
(dp2586
g38
F-25.91152386799996
sg39
g20
sg40
F113.54931095000006
sbsbsVAUS0000214
p2587
g2
(g3
g4
Ntp2588
Rp2589
(dp2590
g8
g9
sg10
F400.0
sg11
VMuja C
p2591
sg13
Nsg14
g15
sg16
g17
sg18
Nsg19
g20
sg21
g2587
sg22
Nsg23
g9
sg24
g25
((lp2592
g72
atp2593
Rp2594
sg30
VVerve Energy
p2595
sg32
I2012
sg33
g2
(g34
g4
Ntp2596
Rp2597
(dp2598
g38
F-33.445810999999935
sg39
g20
sg40
F116.30601200000001
sbsbsVAUS0000215
p2599
g2
(g3
g4
Ntp2600
Rp2601
(dp2602
g8
g9
sg10
F454.0
sg11
VMuja D
p2603
sg13
Nsg14
g15
sg16
g17
sg18
Nsg19
g20
sg21
g2599
sg22
Nsg23
g9
sg24
g25
((lp2604
g72
atp2605
Rp2606
sg30
VVerve Energy
p2607
sg32
I2012
sg33
g2
(g34
g4
Ntp2608
Rp2609
(dp2610
g38
F-33.44615999999996
sg39
g20
sg40
F116.30721300000005
sbsbsVAUS0000216
p2611
g2
(g3
g4
Ntp2612
Rp2613
(dp2614
g8
g9
sg10
F112.0
sg11
VMungarra
p2615
sg13
Nsg14
g15
sg16
g17
sg18
Nsg19
g20
sg21
g2611
sg22
Nsg23
g9
sg24
g25
((lp2616
g27
atp2617
Rp2618
sg30
VVerve Energy
p2619
sg32
I2012
sg33
g2
(g34
g4
Ntp2620
Rp2621
(dp2622
g38
F-28.889321999999936
sg39
g20
sg40
F115.1179380000001
sbsbsVAUS0000217
p2623
g2
(g3
g4
Ntp2624
Rp2625
(dp2626
g8
g9
sg10
F106.0
sg11
VWorsley Cogeneration
p2627
sg13
Nsg14
g15
sg16
g17
sg18
Nsg19
g20
sg21
g2623
sg22
Nsg23
g9
sg24
g25
((lp2628
g27
atp2629
Rp2630
sg30
VWorsley Alumina Pty Ltd
p2631
sg32
I2012
sg33
g2
(g34
g4
Ntp2632
Rp2633
(dp2634
g38
F-33.23654589699993
sg39
g20
sg40
F116.06373772800009
sbsbsVAUS0000210
p2635
g2
(g3
g4
Ntp2636
Rp2637
(dp2638
g8
g9
sg10
F42.0
sg11
VKambalda
p2639
sg13
Nsg14
g15
sg16
g17
sg18
Nsg19
g20
sg21
g2635
sg22
Nsg23
g9
sg24
g25
((lp2640
g27
atp2641
Rp2642
sg30
VSouthern Cross Energy
p2643
sg32
I2012
sg33
g2
(g34
g4
Ntp2644
Rp2645
(dp2646
g38
F-31.191934793999962
sg39
g20
sg40
F121.67408425000008
sbsbsVAUS0000211
p2647
g2
(g3
g4
Ntp2648
Rp2649
(dp2650
g8
g9
sg10
F310.0
sg11
VKemerton
p2651
sg13
Nsg14
g15
sg16
g17
sg18
Nsg19
g20
sg21
g2647
sg22
Nsg23
g9
sg24
g25
((lp2652
g27
atp2653
Rp2654
sg30
VTransfield Services Infrastructure Fund
p2655
sg32
I2012
sg33
g2
(g34
g4
Ntp2656
Rp2657
(dp2658
g38
F-33.16324999999995
sg39
g20
sg40
F115.78054000000009
sbsbsVAUS0000212
p2659
g2
(g3
g4
Ntp2660
Rp2661
(dp2662
g8
g9
sg10
F59.0
sg11
VLeinster Nickel Mine
p2663
sg13
Nsg14
g15
sg16
g17
sg18
Nsg19
g20
sg21
g2659
sg22
Nsg23
g9
sg24
g25
((lp2664
g27
atp2665
Rp2666
sg30
VSouthern Cross Energy
p2667
sg32
I2012
sg33
g2
(g34
g4
Ntp2668
Rp2669
(dp2670
g38
F-27.814121499999942
sg39
g20
sg40
F120.69899650000002
sbsbsVAUS0000213
p2671
g2
(g3
g4
Ntp2672
Rp2673
(dp2674
g8
g9
sg10
F112.0
sg11
VMount Keith Nickel Mine
p2675
sg13
Nsg14
g15
sg16
g17
sg18
Nsg19
g20
sg21
g2671
sg22
Nsg23
g9
sg24
g25
((lp2676
g27
atp2677
Rp2678
sg30
VSouthern Cross Energy
p2679
sg32
I2012
sg33
g2
(g34
g4
Ntp2680
Rp2681
(dp2682
g38
F-27.214582999999948
sg39
g20
sg40
F120.54797900000005
sbsbsVAUS0000070
p2683
g2
(g3
g4
Ntp2684
Rp2685
(dp2686
g8
g9
sg10
F3.3
sg11
VTi Tree Bioenergy
p2687
sg13
Nsg14
g15
sg16
g17
sg18
Nsg19
g20
sg21
g2683
sg22
Nsg23
g9
sg24
g25
((lp2688
g243
atp2689
Rp2690
sg30
VVeolia Environmental Services (Aust) Pty Ltd
p2691
sg32
I2012
sg33
g2
(g34
g4
Ntp2692
Rp2693
(dp2694
g38
F-27.680163999999934
sg39
g20
sg40
F152.65929500000004
sbsbsVAUS0000071
p2695
g2
(g3
g4
Ntp2696
Rp2697
(dp2698
g8
g9
sg10
F4.12
sg11
VSpringvale
p2699
sg13
Nsg14
g15
sg16
g17
sg18
Nsg19
g20
sg21
g2695
sg22
Nsg23
g9
sg24
g25
((lp2700
g243
atp2701
Rp2702
sg30
VEnergy Developments LFG (Victoria) Pty Ltd
p2703
sg32
I2012
sg33
g2
(g34
g4
Ntp2704
Rp2705
(dp2706
g38
F-37.973296999999945
sg39
g20
sg40
F145.1396350000001
sbsbsVAUS0000072
p2707
g2
(g3
g4
Ntp2708
Rp2709
(dp2710
g8
g9
sg10
F1.0
sg11
VRoghan Road
p2711
sg13
Nsg14
g15
sg16
g17
sg18
Nsg19
g20
sg21
g2707
sg22
Nsg23
g9
sg24
g25
((lp2712
g243
atp2713
Rp2714
sg30
VEnergy Developments LFG (Qld) Pty Ltd
p2715
sg32
I2012
sg33
g2
(g34
g4
Ntp2716
Rp2717
(dp2718
g38
F-27.33876799999996
sg39
g20
sg40
F153.03435000000002
sbsbsVAUS0000073
p2719
g2
(g3
g4
Ntp2720
Rp2721
(dp2722
g8
g9
sg10
F4.2
sg11
VRochedale
p2723
sg13
Nsg14
g15
sg16
g17
sg18
Nsg19
g20
sg21
g2719
sg22
Nsg23
g9
sg24
g25
((lp2724
g243
atp2725
Rp2726
sg30
VLMS Energy Generation Pty Ltd
p2727
sg32
I2012
sg33
g2
(g34
g4
Ntp2728
Rp2729
(dp2730
g38
F-27.559116999999958
sg39
g20
sg40
F153.12363400000004
sbsbsVAUS0000074
p2731
g2
(g3
g4
Ntp2732
Rp2733
(dp2734
g8
g9
sg10
F14.0
sg11
VPlane Creek Sugar Mill
p2735
sg13
Nsg14
g15
sg16
g17
sg18
Nsg19
g20
sg21
g2731
sg22
Nsg23
g9
sg24
g25
((lp2736
g303
atp2737
Rp2738
sg30
VSucrogen (Plane Creek Mill) Pty Ltd
p2739
sg32
I2012
sg33
g2
(g34
g4
Ntp2740
Rp2741
(dp2742
g38
F-21.428222999999946
sg39
g20
sg40
F149.21591200000012
sbsbsVAUS0000075
p2743
g2
(g3
g4
Ntp2744
Rp2745
(dp2746
g8
g9
sg10
F1000.0
sg11
VLoy Yang B
p2747
sg13
Nsg14
g15
sg16
g17
sg18
Nsg19
g20
sg21
g2743
sg22
Nsg23
g9
sg24
g25
((lp2748
g72
atp2749
Rp2750
sg30
VIPM Australia Limited
p2751
sg32
I2012
sg33
g2
(g34
g4
Ntp2752
Rp2753
(dp2754
g38
F-38.25644699999998
sg39
g20
sg40
F146.5863700000001
sbsbsVAUS0000076
p2755
g2
(g3
g4
Ntp2756
Rp2757
(dp2758
g8
g9
sg10
F58.0
sg11
VHume
p2759
sg13
Nsg14
g15
sg16
g17
sg18
Nsg19
g20
sg21
g2755
sg22
Nsg23
g9
sg24
g25
((lp2760
g59
atp2761
Rp2762
sg30
VEraring Energy
p2763
sg32
I2012
sg33
g2
(g34
g4
Ntp2764
Rp2765
(dp2766
g38
F-36.10661899999997
sg39
g20
sg40
F147.03262200000006
sbsbsVAUS0000077
p2767
g2
(g3
g4
Ntp2768
Rp2769
(dp2770
g8
g9
sg10
F6.7
sg11
VHallam Road
p2771
sg13
Nsg14
g15
sg16
g17
sg18
Nsg19
g20
sg21
g2767
sg22
Nsg23
g9
sg24
g25
((lp2772
g243
atp2773
Rp2774
sg30
VLMS Energy Generation Pty Ltd
p2775
sg32
I2012
sg33
g2
(g34
g4
Ntp2776
Rp2777
(dp2778
g38
F-38.053342999999984
sg39
g20
sg40
F145.26985600000012
sbsbsVAUS0000078
p2779
g2
(g3
g4
Ntp2780
Rp2781
(dp2782
g8
g9
sg10
F2.2
sg11
VBrowns Plains
p2783
sg13
Nsg14
g15
sg16
g17
sg18
Nsg19
g20
sg21
g2779
sg22
Nsg23
g9
sg24
g25
((lp2784
g243
atp2785
Rp2786
sg30
VEnergy Developments LFG (Qld) Pty Ltd
p2787
sg32
I2012
sg33
g2
(g34
g4
Ntp2788
Rp2789
(dp2790
g38
F-27.67213099999998
sg39
g20
sg40
F153.06634600000007
sbsbsVAUS0000079
p2791
g2
(g3
g4
Ntp2792
Rp2793
(dp2794
g8
g9
sg10
F2.8
sg11
VBrooklyn
p2795
sg13
Nsg14
g15
sg16
g17
sg18
Nsg19
g20
sg21
g2791
sg22
Nsg23
g9
sg24
g25
((lp2796
g243
atp2797
Rp2798
sg30
VEnergy Developments LFG (Victoria) Pty Ltd
p2799
sg32
I2012
sg33
g2
(g34
g4
Ntp2800
Rp2801
(dp2802
g38
F-37.81796699999995
sg39
g20
sg40
F144.83187600000008
sbsbsVAUS0000238
p2803
g2
(g3
g4
Ntp2804
Rp2805
(dp2806
g8
g9
sg10
F73.5
sg11
VPort Lincoln
p2807
sg13
Nsg14
g15
sg16
g17
sg18
Nsg19
g20
sg21
g2803
sg22
Nsg23
g9
sg24
g25
((lp2808
g206
atp2809
Rp2810
sg30
VSynergen Power
p2811
sg32
I2012
sg33
g2
(g34
g4
Ntp2812
Rp2813
(dp2814
g38
F-34.700189999999964
sg39
g20
sg40
F135.80472800000007
sbsbsVAUS0000330
p2815
g2
(g3
g4
Ntp2816
Rp2817
(dp2818
g8
g9
sg10
F4.0
sg11
VCanning Vale
p2819
sg13
Nsg14
g15
sg16
g17
sg18
Nsg19
g20
sg21
g2815
sg22
Nsg23
g9
sg24
g25
((lp2820
g243
atp2821
Rp2822
sg30
VLandfill Gas and Power Pty Ltd
p2823
sg32
I2012
sg33
g2
(g34
g4
Ntp2824
Rp2825
(dp2826
g38
F-32.073898749999955
sg39
g20
sg40
F115.89140569100005
sbsbsVAUS0000416
p2827
g2
(g3
g4
Ntp2828
Rp2829
(dp2830
g8
g9
sg10
F150.0
sg11
VBuronga
p2831
sg13
Nsg14
g15
sg16
g17
sg18
Nsg19
g20
sg21
g2827
sg22
Nsg23
g9
sg24
g25
((lp2832
g27
atp2833
Rp2834
sg30
VInternational Power Pty Ltd
p2835
sg32
I2012
sg33
g2
(g34
g4
Ntp2836
Rp2837
(dp2838
g38
F-34.10134192299995
sg39
g20
sg40
F142.26166023300004
sbsbsVAUS0000417
p2839
g2
(g3
g4
Ntp2840
Rp2841
(dp2842
g8
g9
sg10
F420.0
sg11
VMacarthur Wind Farm
p2843
sg13
Nsg14
g15
sg16
g17
sg18
Nsg19
g20
sg21
g2839
sg22
Nsg23
g9
sg24
g25
((lp2844
g181
atp2845
Rp2846
sg30
VAGL Energy Pty Ltd
p2847
sg32
I2012
sg33
g2
(g34
g4
Ntp2848
Rp2849
(dp2850
g38
F-38.00752684299994
sg39
g20
sg40
F142.18651013700003
sbsbsVAUS0000429
p2851
g2
(g3
g4
Ntp2852
Rp2853
(dp2854
g8
g9
sg10
F0.18
sg11
VMonash University (Clayton Campus) Solar Array
p2855
sg13
Nsg14
g15
sg16
g17
sg18
Nsg19
g20
sg21
g2851
sg22
Nsg23
g9
sg24
g25
((lp2856
g964
atp2857
Rp2858
sg30
VMonash University
p2859
sg32
I2012
sg33
g2
(g34
g4
Ntp2860
Rp2861
(dp2862
g38
F-37.91178734799996
sg39
g20
sg40
F145.13299610500007
sbsbsVAUS0000428
p2863
g2
(g3
g4
Ntp2864
Rp2865
(dp2866
g8
g9
sg10
F0.14
sg11
VBridgewater Solar
p2867
sg13
Nsg14
g15
sg16
g17
sg18
Nsg19
g20
sg21
g2863
sg22
Nsg23
g9
sg24
g25
((lp2868
g964
atp2869
Rp2870
sg30
VSilex Systems
p2871
sg32
I2012
sg33
g2
(g34
g4
Ntp2872
Rp2873
(dp2874
g38
F-36.61349914099998
sg39
g20
sg40
F143.9528805340001
sbsbsVAUS0000427
p2875
g2
(g3
g4
Ntp2876
Rp2877
(dp2878
g8
g9
sg10
F0.24
sg11
VTulla Calder Interchange Solar Array
p2879
sg13
Nsg14
g15
sg16
g17
sg18
Nsg19
g20
sg21
g2875
sg22
Nsg23
g9
sg24
g25
((lp2880
g964
atp2881
Rp2882
sg30
VTullamarine Calder Alliance
p2883
sg32
I2012
sg33
g2
(g34
g4
Ntp2884
Rp2885
(dp2886
g38
F-37.73527874299998
sg39
g20
sg40
F144.894816826
sbsbsVAUS0000426
p2887
g2
(g3
g4
Ntp2888
Rp2889
(dp2890
g8
g9
sg10
F2.37
sg11
VPerth Zoo
p2891
sg13
Nsg14
g15
sg16
g17
sg18
Nsg19
g20
sg21
g2887
sg22
Nsg23
g9
sg24
g25
((lp2892
g964
atp2893
Rp2894
sg30
VPerth Zoo
p2895
sg32
I2012
sg33
g2
(g34
g4
Ntp2896
Rp2897
(dp2898
g38
F-31.976662782999938
sg39
g20
sg40
F115.85478006900007
sbsbsVAUS0000425
p2899
g2
(g3
g4
Ntp2900
Rp2901
(dp2902
g8
g9
sg10
F1.2
sg11
VUniversity of Queensland (St Lucia Campus) Solar Array
p2903
sg13
Nsg14
g15
sg16
g17
sg18
Nsg19
g20
sg21
g2899
sg22
Nsg23
g9
sg24
g25
((lp2904
g964
atp2905
Rp2906
sg30
VUniversity of Queensland
p2907
sg32
I2012
sg33
g2
(g34
g4
Ntp2908
Rp2909
(dp2910
g38
F-27.494958560999976
sg39
g20
sg40
F153.01013752400002
sbsbsVAUS0000424
p2911
g2
(g3
g4
Ntp2912
Rp2913
(dp2914
g8
g9
sg10
F20.9
sg11
VMcArthur River Mine
p2915
sg13
Nsg14
g15
sg16
g17
sg18
Nsg19
g20
sg21
g2911
sg22
Nsg23
g9
sg24
g25
((lp2916
g27
atp2917
Rp2918
sg30
VEnergy Developments Ltd
p2919
sg32
I2012
sg33
g2
(g34
g4
Ntp2920
Rp2921
(dp2922
g38
F-16.433498250999946
sg39
g20
sg40
F136.09345945200005
sbsbsVAUS0000230
p2923
g2
(g3
g4
Ntp2924
Rp2925
(dp2926
g8
g9
sg10
F159.0
sg11
VTelfer Gold Mine
p2927
sg13
Nsg14
g15
sg16
g17
sg18
Nsg19
g20
sg21
g2923
sg22
Nsg23
g9
sg24
g25
((lp2928
g27
atp2929
Rp2930
sg30
VNewcrest Mining Ltd
p2931
sg32
I2012
sg33
g2
(g34
g4
Ntp2932
Rp2933
(dp2934
g38
F-21.712910999999963
sg39
g20
sg40
F122.20910300000003
sbsbsVAUS0000421
p2935
g2
(g3
g4
Ntp2936
Rp2937
(dp2938
g8
g9
sg10
F0.24
sg11
VKings Canyon
p2939
sg13
Nsg14
g15
sg16
g17
sg18
Nsg19
g20
sg21
g2935
sg22
Nsg23
g9
sg24
g25
((lp2940
g964
atp2941
Rp2942
sg30
VPower and Water Corporation
p2943
sg32
I2012
sg33
g2
(g34
g4
Ntp2944
Rp2945
(dp2946
g38
F-24.25091958799993
sg39
g20
sg40
F131.50064981900005
sbsbsVAUS0000420
p2947
g2
(g3
g4
Ntp2948
Rp2949
(dp2950
g8
g9
sg10
F168.0
sg11
VMusselroe
p2951
sg13
Nsg14
g15
sg16
g17
sg18
Nsg19
g20
sg21
g2947
sg22
Nsg23
g9
sg24
g25
((lp2952
g181
atp2953
Rp2954
sg30
VHydro Tasmania Wind Operations Pty Ltd
p2955
sg32
I2013
sg33
g2
(g34
g4
Ntp2956
Rp2957
(dp2958
g38
F-40.779757995999944
sg39
g20
sg40
F148.00975916900006
sbsbsVAUS0000258
p2959
g2
(g3
g4
Ntp2960
Rp2961
(dp2962
g8
g9
sg10
F34.76
sg11
VPine Creek
p2963
sg13
Nsg14
g15
sg16
g17
sg18
Nsg19
g20
sg21
g2959
sg22
Nsg23
g9
sg24
g25
((lp2964
g27
atp2965
Rp2966
sg30
VNGD (NT) / Cosmo Power
p2967
sg32
I2012
sg33
g2
(g34
g4
Ntp2968
Rp2969
(dp2970
g38
F-13.785609999999963
sg39
g20
sg40
F131.86236200000008
sbsbsVAUS0000259
p2971
g2
(g3
g4
Ntp2972
Rp2973
(dp2974
g8
g9
sg10
F21.0
sg11
VKatherine
p2975
sg13
Nsg14
g15
sg16
g17
sg18
Nsg19
g20
sg21
g2971
sg22
Nsg23
g9
sg24
g25
((lp2976
g27
atp2977
Rp2978
sg30
VNT Power and Water
p2979
sg32
I2012
sg33
g2
(g34
g4
Ntp2980
Rp2981
(dp2982
g38
F-14.458692999999926
sg39
g20
sg40
F132.24450600000011
sbsbsVAUS0000393
p2983
g2
(g3
g4
Ntp2984
Rp2985
(dp2986
g8
g9
sg10
F120.0
sg11
VMuja A
p2987
sg13
Nsg14
g15
sg16
g17
sg18
Nsg19
g20
sg21
g2983
sg22
Nsg23
g9
sg24
g25
((lp2988
g72
atp2989
Rp2990
sg30
VVerve Energy
p2991
sg32
I2012
sg33
g2
(g34
g4
Ntp2992
Rp2993
(dp2994
g38
F-33.44667107299995
sg39
g20
sg40
F116.30810859200005
sbsbsVAUS0000231
p2995
g2
(g3
g4
Ntp2996
Rp2997
(dp2998
g8
g9
sg10
F4.0
sg11
VAmcor Gawler
p2999
sg13
Nsg14
g15
sg16
g17
sg18
Nsg19
g20
sg21
g2995
sg22
Nsg23
g9
sg24
g25
((lp3000
g206
atp3001
Rp3002
sg30
VEnergy Response
p3003
sg32
I2012
sg33
g2
(g34
g4
Ntp3004
Rp3005
(dp3006
g38
F-34.55085699999995
sg39
g20
sg40
F138.76586400000008
sbsbsVAUS0000395
p3007
g2
(g3
g4
Ntp3008
Rp3009
(dp3010
g8
g9
sg10
F200.0
sg11
VBen Lomond
p3011
sg13
Nsg14
g15
sg16
g17
sg18
Nsg19
g20
sg21
g3007
sg22
Nsg23
g9
sg24
g25
((lp3012
g181
atp3013
Rp3014
sg30
VAGL Energy
p3015
sg32
I2012
sg33
g2
(g34
g4
Ntp3016
Rp3017
(dp3018
g38
F-29.962256424999964
sg39
g20
sg40
F151.65852993400006
sbsbsVAUS0000394
p3019
g2
(g3
g4
Ntp3020
Rp3021
(dp3022
g8
g9
sg10
F270.0
sg11
VBoco Rock
p3023
sg13
Nsg14
g15
sg16
g17
sg18
Nsg19
g20
sg21
g3019
sg22
Nsg23
g9
sg24
g25
((lp3024
g181
atp3025
Rp3026
sg30
VBoco Rock Wind Farm Pty Ltd
p3027
sg32
I2012
sg33
g2
(g34
g4
Ntp3028
Rp3029
(dp3030
g38
F-36.591414215999976
sg39
g20
sg40
F149.12967511600004
sbsbsVAUS0000397
p3031
g2
(g3
g4
Ntp3032
Rp3033
(dp3034
g8
g9
sg10
F320.0
sg11
VBamarang
p3035
sg13
Nsg14
g15
sg16
g17
sg18
Nsg19
g20
sg21
g3031
sg22
Nsg23
g9
sg24
g25
((lp3036
g27
atp3037
Rp3038
sg30
VInfratil Energy Australia Pty Ltd
p3039
sg32
I2012
sg33
g2
(g34
g4
Ntp3040
Rp3041
(dp3042
g38
F-34.902981058999956
sg39
g20
sg40
F150.52582206400007
sbsbsVAUS0000396
p3043
g2
(g3
g4
Ntp3044
Rp3045
(dp3046
g8
g9
sg10
F600.0
sg11
VBannaby
p3047
sg13
Nsg14
g15
sg16
g17
sg18
Nsg19
g20
sg21
g3043
sg22
Nsg23
g9
sg24
g25
((lp3048
g27
atp3049
Rp3050
sg30
VSnowy Hydro Ltd
p3051
sg32
I2012
sg33
g2
(g34
g4
Ntp3052
Rp3053
(dp3054
g38
F-34.43176223299997
sg39
g20
sg40
F150.05305831200008
sbsbsVAUS0000250
p3055
g2
(g3
g4
Ntp3056
Rp3057
(dp3058
g8
g9
sg10
F228.3
sg11
VHallett
p3059
sg13
Nsg14
g15
sg16
g17
sg18
Nsg19
g20
sg21
g3055
sg22
Nsg23
g9
sg24
g25
((lp3060
g27
atp3061
Rp3062
sg30
VTRUenergy
p3063
sg32
I2012
sg33
g2
(g34
g4
Ntp3064
Rp3065
(dp3066
g38
F-33.34865199999996
sg39
g20
sg40
F138.75165900000002
sbsbsVAUS0000251
p3067
g2
(g3
g4
Ntp3068
Rp3069
(dp3070
g8
g9
sg10
F10.0
sg11
VBerrimah
p3071
sg13
Nsg14
g15
sg16
g17
sg18
Nsg19
g20
sg21
g3067
sg22
Nsg23
g9
sg24
g25
((lp3072
g27
atp3073
Rp3074
sg30
VNT Power and Water
p3075
sg32
I2012
sg33
g2
(g34
g4
Ntp3076
Rp3077
(dp3078
g38
F-12.426175999999941
sg39
g20
sg40
F130.91947600000003
sbsbsVAUS0000252
p3079
g2
(g3
g4
Ntp3080
Rp3081
(dp3082
g8
g9
sg10
F1.1
sg11
VLandfill Management Services Shoal Bay
p3083
sg13
Nsg14
g15
sg16
g17
sg18
Nsg19
g20
sg21
g3079
sg22
Nsg23
g9
sg24
g25
((lp3084
g243
atp3085
Rp3086
sg30
VLMS Energy Generation Pty Ltd
p3087
sg32
I2012
sg33
g2
(g34
g4
Ntp3088
Rp3089
(dp3090
g38
F-12.389173999999969
sg39
g20
sg40
F130.92540800000006
sbsbsVAUS0000253
p3091
g2
(g3
g4
Ntp3092
Rp3093
(dp3094
g8
g9
sg10
F18.2
sg11
VTennant Creek
p3095
sg13
Nsg14
g15
sg16
g17
sg18
Nsg19
g20
sg21
g3091
sg22
Nsg23
g9
sg24
g25
((lp3096
g27
atp3097
Rp3098
sg30
VNT Power and Water
p3099
sg32
I2012
sg33
g2
(g34
g4
Ntp3100
Rp3101
(dp3102
g38
F-19.65492999999998
sg39
g20
sg40
F134.17528500000003
sbsbsVAUS0000254
p3103
g2
(g3
g4
Ntp3104
Rp3105
(dp3106
g8
g9
sg10
F59.6
sg11
VRon Goodin
p3107
sg13
Nsg14
g15
sg16
g17
sg18
Nsg19
g20
sg21
g3103
sg22
Nsg23
g9
sg24
g25
((lp3108
g27
atp3109
Rp3110
sg30
VNT Power and Water
p3111
sg32
I2012
sg33
g2
(g34
g4
Ntp3112
Rp3113
(dp3114
g38
F-23.709108999999955
sg39
g20
sg40
F133.8911750000001
sbsbsVAUS0000255
p3115
g2
(g3
g4
Ntp3116
Rp3117
(dp3118
g8
g9
sg10
F36.7
sg11
VOwen Springs
p3119
sg13
Nsg14
g15
sg16
g17
sg18
Nsg19
g20
sg21
g3115
sg22
Nsg23
g9
sg24
g25
((lp3120
g27
atp3121
Rp3122
sg30
VNT Power and Water
p3123
sg32
I2012
sg33
g2
(g34
g4
Ntp3124
Rp3125
(dp3126
g38
F-23.863610999999935
sg39
g20
sg40
F133.82548700000007
sbsbsVAUS0000256
p3127
g2
(g3
g4
Ntp3128
Rp3129
(dp3130
g8
g9
sg10
F8.5
sg11
VBrewer
p3131
sg13
Nsg14
g15
sg16
g17
sg18
Nsg19
g20
sg21
g3127
sg22
Nsg23
g9
sg24
g25
((lp3132
g27
atp3133
Rp3134
sg30
VCentral Energy Power
p3135
sg32
I2012
sg33
g2
(g34
g4
Ntp3136
Rp3137
(dp3138
g38
F-23.88169799999997
sg39
g20
sg40
F133.82814300000007
sbsbsVAUS0000257
p3139
g2
(g3
g4
Ntp3140
Rp3141
(dp3142
g8
g9
sg10
F4.5
sg11
VYulara
p3143
sg13
Nsg14
g15
sg16
g17
sg18
Nsg19
g20
sg21
g3139
sg22
Nsg23
g9
sg24
g25
((lp3144
g27
atp3145
Rp3146
sg30
VNT Power and Water
p3147
sg32
I2012
sg33
g2
(g34
g4
Ntp3148
Rp3149
(dp3150
g38
F-25.232312999999976
sg39
g20
sg40
F130.9911810000001
sbsbsVAUS0000153
p3151
g2
(g3
g4
Ntp3152
Rp3153
(dp3154
g8
g9
sg10
F519.0
sg11
VBraemar 2
p3155
sg13
Nsg14
g15
sg16
g17
sg18
Nsg19
g20
sg21
g3151
sg22
Nsg23
g9
sg24
g25
((lp3156
g27
atp3157
Rp3158
sg30
VArrow Energy
p3159
sg32
I2013
sg33
g2
(g34
g4
Ntp3160
Rp3161
(dp3162
g38
F-27.112811267999973
sg39
g20
sg40
F150.90487826100002
sbsbsVAUS0000152
p3163
g2
(g3
g4
Ntp3164
Rp3165
(dp3166
g8
g9
sg10
F504.0
sg11
VBraemar 1
p3167
sg13
Nsg14
g15
sg16
g17
sg18
Nsg19
g20
sg21
g3163
sg22
Nsg23
g9
sg24
g25
((lp3168
g27
atp3169
Rp3170
sg30
VAlinta Energy
p3171
sg32
I2012
sg33
g2
(g34
g4
Ntp3172
Rp3173
(dp3174
g38
F-27.11093399999993
sg39
g20
sg40
F150.90533700000003
sbsbsVAUS0000151
p3175
g2
(g3
g4
Ntp3176
Rp3177
(dp3178
g8
g9
sg10
F66.0
sg11
VBarron Gorge
p3179
sg13
Nsg14
g15
sg16
g17
sg18
Nsg19
g20
sg21
g3175
sg22
Nsg23
g9
sg24
g25
((lp3180
g59
atp3181
Rp3182
sg30
VStanwell Corporation Ltd
p3183
sg32
I2012
sg33
g2
(g34
g4
Ntp3184
Rp3185
(dp3186
g38
F-16.850198999999975
sg39
g20
sg40
F145.64649500000007
sbsbsVAUS0000099
p3187
g2
(g3
g4
Ntp3188
Rp3189
(dp3190
g8
g9
sg10
F1.8
sg11
VLake William Hovell
p3191
sg13
Nsg14
g15
sg16
g17
sg18
Nsg19
g20
sg21
g3187
sg22
Nsg23
g9
sg24
g25
((lp3192
g59
atp3193
Rp3194
sg30
VPacific Hydro Investments Pty Ltd
p3195
sg32
I2012
sg33
g2
(g34
g4
Ntp3196
Rp3197
(dp3198
g38
F-36.91317699999996
sg39
g20
sg40
F146.3915720000001
sbsbsVAUS0000157
p3199
g2
(g3
g4
Ntp3200
Rp3201
(dp3202
g8
g9
sg10
F31.8
sg11
VGerman Creek
p3203
sg13
Nsg14
g15
sg16
g17
sg18
Nsg19
g20
sg21
g3199
sg22
Nsg23
g9
sg24
g25
((lp3204
g27
atp3205
Rp3206
sg30
VEnergy Developments CSM (Qld) Pty Ltd
p3207
sg32
I2012
sg33
g2
(g34
g4
Ntp3208
Rp3209
(dp3210
g38
F-22.928146999999967
sg39
g20
sg40
F148.55149700000004
sbsbsVAUS0000156
p3211
g2
(g3
g4
Ntp3212
Rp3213
(dp3214
g8
g9
sg10
F644.0
sg11
VDarling Downs
p3215
sg13
Nsg14
g15
sg16
g17
sg18
Nsg19
g20
sg21
g3211
sg22
Nsg23
g9
sg24
g25
((lp3216
g27
atp3217
Rp3218
sg30
VOrigin Energy
p3219
sg32
I2012
sg33
g2
(g34
g4
Ntp3220
Rp3221
(dp3222
g38
F-27.116891412999962
sg39
g20
sg40
F150.89421701800006
sbsbsVAUS0000155
p3223
g2
(g3
g4
Ntp3224
Rp3225
(dp3226
g8
g9
sg10
F30.0
sg11
VDaandine
p3227
sg13
Nsg14
g15
sg16
g17
sg18
Nsg19
g20
sg21
g3223
sg22
Nsg23
g9
sg24
g25
((lp3228
g27
atp3229
Rp3230
sg30
VEnergy Infrastructure Investments Pty Ltd
p3231
sg32
I2012
sg33
g2
(g34
g4
Ntp3232
Rp3233
(dp3234
g38
F-27.08631996699995
sg39
g20
sg40
F150.94300545900012
sbsbsVAUS0000154
p3235
g2
(g3
g4
Ntp3236
Rp3237
(dp3238
g8
g9
sg10
F144.0
sg11
VCondamine A
p3239
sg13
Nsg14
g15
sg16
g17
sg18
Nsg19
g20
sg21
g3235
sg22
Nsg23
g9
sg24
g25
((lp3240
g27
atp3241
Rp3242
sg30
VQueensland Gas Company
p3243
sg32
I2012
sg33
g2
(g34
g4
Ntp3244
Rp3245
(dp3246
g38
F-26.668222211999932
sg39
g20
sg40
F150.27001446500003
sbsbsVAUS0000092
p3247
g2
(g3
g4
Ntp3248
Rp3249
(dp3250
g8
g9
sg10
F2180.0
sg11
VLoy Yang A
p3251
sg13
Nsg14
g15
sg16
g17
sg18
Nsg19
g20
sg21
g3247
sg22
Nsg23
g9
sg24
g25
((lp3252
g72
atp3253
Rp3254
sg30
VGEAC Great Energy Alliance Corporation
p3255
sg32
I2012
sg33
g2
(g34
g4
Ntp3256
Rp3257
(dp3258
g38
F-38.25359999999995
sg39
g20
sg40
F146.5745690000001
sbsbsVAUS0000093
p3259
g2
(g3
g4
Ntp3260
Rp3261
(dp3262
g8
g9
sg10
F0.8
sg11
VMornington
p3263
sg13
Nsg14
g15
sg16
g17
sg18
Nsg19
g20
sg21
g3259
sg22
Nsg23
g9
sg24
g25
((lp3264
g243
atp3265
Rp3266
sg30
VLMS Generation Pty Ltd
p3267
sg32
I2012
sg33
g2
(g34
g4
Ntp3268
Rp3269
(dp3270
g38
F-38.39163099999996
sg39
g20
sg40
F144.85532200000011
sbsbsVAUS0000090
p3271
g2
(g3
g4
Ntp3272
Rp3273
(dp3274
g8
g9
sg10
F312.0
sg11
VLaverton North
p3275
sg13
Nsg14
g15
sg16
g17
sg18
Nsg19
g20
sg21
g3271
sg22
Nsg23
g9
sg24
g25
((lp3276
g27
atp3277
Rp3278
sg30
VSnowy Hydro Ltd
p3279
sg32
I2012
sg33
g2
(g34
g4
Ntp3280
Rp3281
(dp3282
g38
F-37.841579999999965
sg39
g20
sg40
F144.78871100000003
sbsbsVAUS0000091
p3283
g2
(g3
g4
Ntp3284
Rp3285
(dp3286
g8
g9
sg10
F31.8
sg11
VLongford
p3287
sg13
Nsg14
g15
sg16
g17
sg18
Nsg19
g20
sg21
g3283
sg22
Nsg23
g9
sg24
g25
((lp3288
g27
atp3289
Rp3290
sg30
VTRUenergy
p3291
sg32
I2012
sg33
g2
(g34
g4
Ntp3292
Rp3293
(dp3294
g38
F-38.16399999999993
sg39
g20
sg40
F147.0870000000001
sbsbsVAUS0000096
p3295
g2
(g3
g4
Ntp3296
Rp3297
(dp3298
g8
g9
sg10
F160.0
sg11
VSomerton
p3299
sg13
Nsg14
g15
sg16
g17
sg18
Nsg19
g20
sg21
g3295
sg22
Nsg23
g9
sg24
g25
((lp3300
g27
atp3301
Rp3302
sg30
VAGL Energy Pty Ltd
p3303
sg32
I2012
sg33
g2
(g34
g4
Ntp3304
Rp3305
(dp3306
g38
F-37.63182199999994
sg39
g20
sg40
F144.95307700000012
sbsbsVAUS0000097
p3307
g2
(g3
g4
Ntp3308
Rp3309
(dp3310
g8
g9
sg10
F5.9
sg11
VSymex Port Melbourne
p3311
sg13
Nsg14
g15
sg16
g17
sg18
Nsg19
g20
sg21
g3307
sg22
Nsg23
g9
sg24
g25
((lp3312
g27
atp3313
Rp3314
sg30
VSymex Holding Ltd
p3315
sg32
I2012
sg33
g2
(g34
g4
Ntp3316
Rp3317
(dp3318
g38
F-37.829793999999936
sg39
g20
sg40
F144.94436500000006
sbsbsVAUS0000094
p3319
g2
(g3
g4
Ntp3320
Rp3321
(dp3322
g8
g9
sg10
F500.0
sg11
VNewport
p3323
sg13
Nsg14
g15
sg16
g17
sg18
Nsg19
g20
sg21
g3319
sg22
Nsg23
g9
sg24
g25
((lp3324
g27
atp3325
Rp3326
sg30
VIndustry Funds Management
p3327
sg32
I2012
sg33
g2
(g34
g4
Ntp3328
Rp3329
(dp3330
g38
F-37.84146199999998
sg39
g20
sg40
F144.89419700000008
sbsbsVAUS0000095
p3331
g2
(g3
g4
Ntp3332
Rp3333
(dp3334
g8
g9
sg10
F9.6
sg11
VRubicon
p3335
sg13
Nsg14
g15
sg16
g17
sg18
Nsg19
g20
sg21
g3331
sg22
Nsg23
g9
sg24
g25
((lp3336
g59
atp3337
Rp3338
sg30
VAGL Energy Pty Ltd
p3339
sg32
I2012
sg33
g2
(g34
g4
Ntp3340
Rp3341
(dp3342
g38
F-37.327219999999954
sg39
g20
sg40
F145.86052000000007
sbsbsVAUS0000418
p3343
g2
(g3
g4
Ntp3344
Rp3345
(dp3346
g8
g9
sg10
F1.6
sg11
VGlenorchy
p3347
sg13
Nsg14
g15
sg16
g17
sg18
Nsg19
g20
sg21
g3343
sg22
Nsg23
g9
sg24
g25
((lp3348
g243
atp3349
Rp3350
sg30
VAGL Energy Pty Ltd
p3351
sg32
I2012
sg33
g2
(g34
g4
Ntp3352
Rp3353
(dp3354
g38
F-42.84146316999994
sg39
g20
sg40
F147.25504660000001
sbsbsVAUS0000419
p3355
g2
(g3
g4
Ntp3356
Rp3357
(dp3358
g8
g9
sg10
F1.0
sg11
VHobart
p3359
sg13
Nsg14
g15
sg16
g17
sg18
Nsg19
g20
sg21
g3355
sg22
Nsg23
g9
sg24
g25
((lp3360
g243
atp3361
Rp3362
sg30
VAGL Energy Pty Ltd
p3363
sg32
I2012
sg33
g2
(g34
g4
Ntp3364
Rp3365
(dp3366
g38
F-42.88825951299998
sg39
g20
sg40
F147.28882975800002
sbsbsVAUS0000458
p3367
g2
(g3
g4
Ntp3368
Rp3369
(dp3370
g8
g9
sg10
F125.0
sg11
VSolomon Iron Ore Mine
p3371
sg13
Nsg14
g15
sg16
g17
sg18
Nsg19
g20
sg21
g3367
sg22
Nsg23
g9
sg24
g25
((lp3372
g27
atp3373
Rp3374
sg30
g20
sg32
Nsg33
g2
(g34
g4
Ntp3375
Rp3376
(dp3377
g38
F-22.158138793999967
sg39
g20
sg40
F117.98486380600002
sbsbsVAUS0000459
p3378
g2
(g3
g4
Ntp3379
Rp3380
(dp3381
g8
g9
sg10
F242.0
sg11
VDiamantina
p3382
sg13
Nsg14
g15
sg16
g17
sg18
Nsg19
g20
sg21
g3378
sg22
Nsg23
g9
sg24
g25
((lp3383
g27
atp3384
Rp3385
sg30
VAPA Group and AGL Energy Ltd
p3386
sg32
Nsg33
g2
(g34
g4
Ntp3387
Rp3388
(dp3389
g38
F-20.78374957699998
sg39
g20
sg40
F139.48326740100003
sbsbsVAUS0000452
p3390
g2
(g3
g4
Ntp3391
Rp3392
(dp3393
g8
g9
sg10
F40.0
sg11
VCannington Mine
p3394
sg13
Nsg14
g15
sg16
g17
sg18
Nsg19
g20
sg21
g3390
sg22
Nsg23
g9
sg24
g25
((lp3395
g27
atp3396
Rp3397
sg30
VBHP Billiton
p3398
sg32
Nsg33
g2
(g34
g4
Ntp3399
Rp3400
(dp3401
g38
F-21.86013328799993
sg39
g20
sg40
F140.91576749900003
sbsbsVAUS0000453
p3402
g2
(g3
g4
Ntp3403
Rp3404
(dp3405
g8
g9
sg10
F94.5
sg11
VHallett 1 Brown Hill  Wind Farm
p3406
sg13
Nsg14
g15
sg16
g17
sg18
Nsg19
g20
sg21
g3402
sg22
Nsg23
g9
sg24
g25
((lp3407
g181
atp3408
Rp3409
sg30
VAGL Energy Pty Ltd
p3410
sg32
I2012
sg33
g2
(g34
g4
Ntp3411
Rp3412
(dp3413
g38
F-33.39496020399997
sg39
g20
sg40
F138.7299433710001
sbsbsVAUS0000450
p3414
g2
(g3
g4
Ntp3415
Rp3416
(dp3417
g8
g9
sg10
F82.0
sg11
VMerredin
p3418
sg13
Nsg14
g15
sg16
g17
sg18
Nsg19
g20
sg21
g3414
sg22
Nsg23
g9
sg24
g25
((lp3419
g27
atp3420
Rp3421
sg30
g20
sg32
Nsg33
g2
(g34
g4
Ntp3422
Rp3423
(dp3424
g38
F-31.542313845999956
sg39
g20
sg40
F118.22699785900011
sbsbsVAUS0000451
p3425
g2
(g3
g4
Ntp3426
Rp3427
(dp3428
g8
g9
sg10
F86.0
sg11
VWest Angelas Mine
p3429
sg13
Nsg14
g15
sg16
g17
sg18
Nsg19
g20
sg21
g3425
sg22
Nsg23
g9
sg24
g25
((lp3430
g27
atp3431
Rp3432
sg30
VRio Tinto
p3433
sg32
Nsg33
g2
(g34
g4
Ntp3434
Rp3435
(dp3436
g38
F-23.154648546999965
sg39
g20
sg40
F118.72452167400002
sbsbsVAUS0000456
p3437
g2
(g3
g4
Ntp3438
Rp3439
(dp3440
g8
g9
sg10
F98.7
sg11
VSnowtown Wind Farm Stage 2
p3441
sg13
Nsg14
g15
sg16
g17
sg18
Nsg19
g20
sg21
g3437
sg22
Nsg23
g9
sg24
g25
((lp3442
g181
atp3443
Rp3444
sg30
VTrustPower Ltd
p3445
sg32
I2012
sg33
g2
(g34
g4
Ntp3446
Rp3447
(dp3448
g38
F-33.83008204299995
sg39
g20
sg40
F138.11841139700005
sbsbsVAUS0000201
p3449
g2
(g3
g4
Ntp3450
Rp3451
(dp3452
g8
g9
sg10
F280.0
sg11
VPinjarra Bauxite Mine and Alumina Refinery
p3453
sg13
Nsg14
g15
sg16
g17
sg18
Nsg19
g20
sg21
g3449
sg22
Nsg23
g9
sg24
g25
((lp3454
g27
atp3455
Rp3456
sg30
VAlinta Energy
p3457
sg32
I2012
sg33
g2
(g34
g4
Ntp3458
Rp3459
(dp3460
g38
F-32.647302999999965
sg39
g20
sg40
F115.94689400000004
sbsbsVAUS0000454
p3461
g2
(g3
g4
Ntp3462
Rp3463
(dp3464
g8
g9
sg10
F94.5
sg11
VHallett 5 The Bluff  Wind Farm
p3465
sg13
Nsg14
g15
sg16
g17
sg18
Nsg19
g20
sg21
g3461
sg22
Nsg23
g9
sg24
g25
((lp3466
g181
atp3467
Rp3468
sg30
VAGL Energy Pty Ltd
p3469
sg32
I2012
sg33
g2
(g34
g4
Ntp3470
Rp3471
(dp3472
g38
F-33.385546259999956
sg39
g20
sg40
F138.79283152200003
sbsbsVAUS0000422
p3473
g2
(g3
g4
Ntp3474
Rp3475
(dp3476
g8
g9
sg10
F100.0
sg11
VBodangora Wind Farm
p3477
sg13
Nsg14
g15
sg16
g17
sg18
Nsg19
g20
sg21
g3473
sg22
Nsg23
g9
sg24
g25
((lp3478
g181
atp3479
Rp3480
sg30
VInfigen Energy
p3481
sg32
I2012
sg33
g2
(g34
g4
Ntp3482
Rp3483
(dp3484
g38
F-32.41367217299995
sg39
g20
sg40
F149.05896359300004
sbsbsVAUS0000200
p3485
g2
(g3
g4
Ntp3486
Rp3487
(dp3488
g8
g9
sg10
F584.0
sg11
VPinjar
p3489
sg13
Nsg14
g15
sg16
g17
sg18
Nsg19
g20
sg21
g3485
sg22
Nsg23
g9
sg24
g25
((lp3490
g27
atp3491
Rp3492
sg30
VVerve Energy
p3493
sg32
I2012
sg33
g2
(g34
g4
Ntp3494
Rp3495
(dp3496
g38
F-31.557681354999943
sg39
g20
sg40
F115.82041110400007
sbsbsVAUS0000328
p3497
g2
(g3
g4
Ntp3498
Rp3499
(dp3500
g8
g9
sg10
F1.0
sg11
VShenton Park WMRC Project
p3501
sg13
Nsg14
g15
sg16
g17
sg18
Nsg19
g20
sg21
g3497
sg22
Nsg23
g9
sg24
g25
((lp3502
g243
atp3503
Rp3504
sg30
VAnaeCo Ltd
p3505
sg32
I2012
sg33
g2
(g34
g4
Ntp3506
Rp3507
(dp3508
g38
F-31.957666655999958
sg39
g20
sg40
F115.79244349800001
sbsbsVAUS0000329
p3509
g2
(g3
g4
Ntp3510
Rp3511
(dp3512
g8
g9
sg10
F1.3
sg11
VKalamunda
p3513
sg13
Nsg14
g15
sg16
g17
sg18
Nsg19
g20
sg21
g3509
sg22
Nsg23
g9
sg24
g25
((lp3514
g206
atp3515
Rp3516
sg30
VLandfill Gas and Power Pty Ltd
p3517
sg32
I2012
sg33
g2
(g34
g4
Ntp3518
Rp3519
(dp3520
g38
F-31.976778615999933
sg39
g20
sg40
F115.99879332700004
sbsbsVAUS0000324
p3521
g2
(g3
g4
Ntp3522
Rp3523
(dp3524
g8
g9
sg10
F36.0
sg11
VCloudbreak
p3525
sg13
Nsg14
g15
sg16
g17
sg18
Nsg19
g20
sg21
g3521
sg22
Nsg23
g9
sg24
g25
((lp3526
g206
atp3527
Rp3528
sg30
VContract Power
p3529
sg32
I2012
sg33
g2
(g34
g4
Ntp3530
Rp3531
(dp3532
g38
F-22.324710271999948
sg39
g20
sg40
F119.40401695100002
sbsbsVAUS0000325
p3533
g2
(g3
g4
Ntp3534
Rp3535
(dp3536
g8
g9
sg10
F84.0
sg11
VPort Hedland
p3537
sg13
Nsg14
g15
sg16
g17
sg18
Nsg19
g20
sg21
g3533
sg22
Nsg23
g9
sg24
g25
((lp3538
g27
atp3539
Rp3540
sg30
VAlinta Energy
p3541
sg32
I2012
sg33
g2
(g34
g4
Ntp3542
Rp3543
(dp3544
g38
F-20.378178960999946
sg39
g20
sg40
F118.53837434500008
sbsbsVAUS0000326
p3545
g2
(g3
g4
Ntp3546
Rp3547
(dp3548
g8
g9
sg10
F1.1
sg11
VNoranda
p3549
sg13
Nsg14
g15
sg16
g17
sg18
Nsg19
g20
sg21
g3545
sg22
Nsg23
g9
sg24
g25
((lp3550
g243
atp3551
Rp3552
sg30
VLMS Energy Generation Pty Ltd
p3553
sg32
I2012
sg33
g2
(g34
g4
Ntp3554
Rp3555
(dp3556
g38
F-31.86538940199995
sg39
g20
sg40
F115.87732708800002
sbsbsVAUS0000327
p3557
g2
(g3
g4
Ntp3558
Rp3559
(dp3560
g8
g9
sg10
F3.65
sg11
VRed Hill
p3561
sg13
Nsg14
g15
sg16
g17
sg18
Nsg19
g20
sg21
g3557
sg22
Nsg23
g9
sg24
g25
((lp3562
g243
atp3563
Rp3564
sg30
VLandfill Gas and Power Pty Ltd
p3565
sg32
I2012
sg33
g2
(g34
g4
Ntp3566
Rp3567
(dp3568
g38
F-31.83165058299994
sg39
g20
sg40
F116.09923967700001
sbsbsVAUS0000320
p3569
g2
(g3
g4
Ntp3570
Rp3571
(dp3572
g8
g9
sg10
F9.0
sg11
VNorseman Mine
p3573
sg13
Nsg14
g15
sg16
g17
sg18
Nsg19
g20
sg21
g3569
sg22
Nsg23
g9
sg24
g25
((lp3574
g206
atp3575
Rp3576
sg30
g20
sg32
I2012
sg33
g2
(g34
g4
Ntp3577
Rp3578
(dp3579
g38
F-32.19626480499994
sg39
g20
sg40
F121.79433384300012
sbsbsVAUS0000321
p3580
g2
(g3
g4
Ntp3581
Rp3582
(dp3583
g8
g9
sg10
F11.7
sg11
VDarlot Gold Mine
p3584
sg13
Nsg14
g15
sg16
g17
sg18
Nsg19
g20
sg21
g3580
sg22
Nsg23
g9
sg24
g25
((lp3585
g27
atp3586
Rp3587
sg30
VBarrick Gold
p3588
sg32
I2012
sg33
g2
(g34
g4
Ntp3589
Rp3590
(dp3591
g38
F-27.897207160999983
sg39
g20
sg40
F121.26976610500003
sbsbsVAUS0000322
p3592
g2
(g3
g4
Ntp3593
Rp3594
(dp3595
g8
g9
sg10
F23.7
sg11
VWindimurra Vanadium Mine
p3596
sg13
Nsg14
g15
sg16
g17
sg18
Nsg19
g20
sg21
g3592
sg22
Nsg23
g9
sg24
g25
((lp3597
g27
atp3598
Rp3599
sg30
VAtlantic Ltd
p3600
sg32
I2012
sg33
g2
(g34
g4
Ntp3601
Rp3602
(dp3603
g38
F-28.29331302099996
sg39
g20
sg40
F118.53714696400004
sbsbsVAUS0000323
p3604
g2
(g3
g4
Ntp3605
Rp3606
(dp3607
g8
g9
sg10
F0.6
sg11
VRottnest Island Wind Turbine
p3608
sg13
Nsg14
g15
sg16
g17
sg18
Nsg19
g20
sg21
g3604
sg22
Nsg23
g9
sg24
g25
((lp3609
g181
atp3610
Rp3611
sg30
VVerve Energy
p3612
sg32
I2012
sg33
g2
(g34
g4
Ntp3613
Rp3614
(dp3615
g38
F-31.993751991999943
sg39
g20
sg40
F115.52891392800007
sbsbsVAUS0000391
p3616
g2
(g3
g4
Ntp3617
Rp3618
(dp3619
g8
g9
sg10
F2.03
sg11
VEsperance Wind Farm Ten Mile Lagoon
p3620
sg13
Nsg14
g15
sg16
g17
sg18
Nsg19
g20
sg21
g3616
sg22
Nsg23
g9
sg24
g25
((lp3621
g181
atp3622
Rp3623
sg30
VVerve Energy
p3624
sg32
I2012
sg33
g2
(g34
g4
Ntp3625
Rp3626
(dp3627
g38
F-33.88016906299998
sg39
g20
sg40
F121.76903887500009
sbsbsVAUS0000390
p3628
g2
(g3
g4
Ntp3629
Rp3630
(dp3631
g8
g9
sg10
F0.02
sg11
VKalbarri PV System
p3632
sg13
Nsg14
g15
sg16
g17
sg18
Nsg19
g20
sg21
g3628
sg22
Nsg23
g9
sg24
g25
((lp3633
g964
atp3634
Rp3635
sg30
VVerve Energy
p3636
sg32
I2012
sg33
g2
(g34
g4
Ntp3637
Rp3638
(dp3639
g38
F-27.71524694699997
sg39
g20
sg40
F114.16969177900012
sbsbsVAUS0000392
p3640
g2
(g3
g4
Ntp3641
Rp3642
(dp3643
g8
g9
sg10
F120.0
sg11
VMuja B
p3644
sg13
Nsg14
g15
sg16
g17
sg18
Nsg19
g20
sg21
g3640
sg22
Nsg23
g9
sg24
g25
((lp3645
g72
atp3646
Rp3647
sg30
VVerve Energy
p3648
sg32
I2012
sg33
g2
(g34
g4
Ntp3649
Rp3650
(dp3651
g38
F-33.446806831999936
sg39
g20
sg40
F116.30871950900007
sbsbsVAUS0000209
p3652
g2
(g3
g4
Ntp3653
Rp3654
(dp3655
g8
g9
sg10
F37.0
sg11
VKalgoorlie Nickel Smelter
p3656
sg13
Nsg14
g15
sg16
g17
sg18
Nsg19
g20
sg21
g3652
sg22
Nsg23
g9
sg24
g25
((lp3657
g27
atp3658
Rp3659
sg30
VSouthern Cross Energy
p3660
sg32
I2012
sg33
g2
(g34
g4
Ntp3661
Rp3662
(dp3663
g38
F-30.87366899999995
sg39
g20
sg40
F121.48418800000002
sbsbsVAUS0000208
p3664
g2
(g3
g4
Ntp3665
Rp3666
(dp3667
g8
g9
sg10
F340.0
sg11
VCollie A
p3668
sg13
Nsg14
g15
sg16
g17
sg18
Nsg19
g20
sg21
g3664
sg22
Nsg23
g9
sg24
g25
((lp3669
g72
atp3670
Rp3671
sg30
VVerve Energy
p3672
sg32
I2012
sg33
g2
(g34
g4
Ntp3673
Rp3674
(dp3675
g38
F-33.34218099999998
sg39
g20
sg40
F116.261165
sbsbsVAUS0000399
p3676
g2
(g3
g4
Ntp3677
Rp3678
(dp3679
g8
g9
sg10
F2.1
sg11
VBankstown Sports Club
p3680
sg13
Nsg14
g15
sg16
g17
sg18
Nsg19
g20
sg21
g3676
sg22
Nsg23
g9
sg24
g25
((lp3681
g206
atp3682
Rp3683
sg30
VBankstown Sports Club
p3684
sg32
I2012
sg33
g2
(g34
g4
Ntp3685
Rp3686
(dp3687
g38
F-33.919699597999966
sg39
g20
sg40
F151.03324363800004
sbsbsVAUS0000398
p3688
g2
(g3
g4
Ntp3689
Rp3690
(dp3691
g8
g9
sg10
F200.0
sg11
VBango Wind Farm
p3692
sg13
Nsg14
g15
sg16
g17
sg18
Nsg19
g20
sg21
g3688
sg22
Nsg23
g9
sg24
g25
((lp3693
g181
atp3694
Rp3695
sg30
VBango Wind Farm Pty Ltd
p3696
sg32
I2012
sg33
g2
(g34
g4
Ntp3697
Rp3698
(dp3699
g38
F-34.60577781699993
sg39
g20
sg40
F148.86955733900004
sbsbsVAUS0000050
p3700
g2
(g3
g4
Ntp3701
Rp3702
(dp3703
g8
g9
sg10
F111.0
sg11
VWaterloo Wind Farm
p3704
sg13
Nsg14
g15
sg16
g17
sg18
Nsg19
g20
sg21
g3700
sg22
Nsg23
g9
sg24
g25
((lp3705
g181
atp3706
Rp3707
sg30
VTRUenergy
p3708
sg32
I2012
sg33
g2
(g34
g4
Ntp3709
Rp3710
(dp3711
g38
F-34.000357623999946
sg39
g20
sg40
F138.91531889200007
sbsbsVAUS0000180
p3712
g2
(g3
g4
Ntp3713
Rp3714
(dp3715
g8
g9
sg10
F39.6
sg11
VBroome
p3716
sg13
Nsg14
g15
sg16
g17
sg18
Nsg19
g20
sg21
g3712
sg22
Nsg23
g9
sg24
g25
((lp3717
g27
atp3718
Rp3719
sg30
VEnergy Developments Ltd
p3720
sg32
I2012
sg33
g2
(g34
g4
Ntp3721
Rp3722
(dp3723
g38
F-17.981026999999926
sg39
g20
sg40
F122.20460200000002
sbsbsVAUS0000181
p3724
g2
(g3
g4
Ntp3725
Rp3726
(dp3727
g8
g9
sg10
F240.0
sg11
VBurrup Peninsula (Karratha Gas Plant)
p3728
sg13
Nsg14
g15
sg16
g17
sg18
Nsg19
g20
sg21
g3724
sg22
Nsg23
g9
sg24
g25
((lp3729
g27
atp3730
Rp3731
sg30
VWoodside Pty Ltd
p3732
sg32
I2012
sg33
g2
(g34
g4
Ntp3733
Rp3734
(dp3735
g38
F-20.62864899999994
sg39
g20
sg40
F116.78214700000001
sbsbsVAUS0000182
p3736
g2
(g3
g4
Ntp3737
Rp3738
(dp3739
g8
g9
sg10
F160.0
sg11
VBurrup Peninsula (Pluto Phase 1)
p3740
sg13
Nsg14
g15
sg16
g17
sg18
Nsg19
g20
sg21
g3736
sg22
Nsg23
g9
sg24
g25
((lp3741
g27
atp3742
Rp3743
sg30
VWoodside Pty Ltd
p3744
sg32
I2012
sg33
g2
(g34
g4
Ntp3745
Rp3746
(dp3747
g38
F-20.59367999999995
sg39
g20
sg40
F116.78015000000005
sbsbsVAUS0000183
p3748
g2
(g3
g4
Ntp3749
Rp3750
(dp3751
g8
g9
sg10
F240.0
sg11
VCockburn
p3752
sg13
Nsg14
g15
sg16
g17
sg18
Nsg19
g20
sg21
g3748
sg22
Nsg23
g9
sg24
g25
((lp3753
g27
atp3754
Rp3755
sg30
VVerve Energy
p3756
sg32
I2012
sg33
g2
(g34
g4
Ntp3757
Rp3758
(dp3759
g38
F-32.20011899999997
sg39
g20
sg40
F115.77367900000002
sbsbsVAUS0000184
p3760
g2
(g3
g4
Ntp3761
Rp3762
(dp3763
g8
g9
sg10
F416.0
sg11
VCollie (Bluewaters)
p3764
sg13
Nsg14
g15
sg16
g17
sg18
Nsg19
g20
sg21
g3760
sg22
Nsg23
g9
sg24
g25
((lp3765
g72
atp3766
Rp3767
sg30
VGriffin Energy
p3768
sg32
I2012
sg33
g2
(g34
g4
Ntp3769
Rp3770
(dp3771
g38
F-33.33099999999996
sg39
g20
sg40
F116.22900000000004
sbsbsVAUS0000185
p3772
g2
(g3
g4
Ntp3773
Rp3774
(dp3775
g8
g9
sg10
F120.0
sg11
VDampier
p3776
sg13
Nsg14
g15
sg16
g17
sg18
Nsg19
g20
sg21
g3772
sg22
Nsg23
g9
sg24
g25
((lp3777
g27
atp3778
Rp3779
sg30
VRio Tinto Australia Pty Ltd
p3780
sg32
I2012
sg33
g2
(g34
g4
Ntp3781
Rp3782
(dp3783
g38
F-20.64798499999995
sg39
g20
sg40
F116.72190400000011
sbsbsVAUS0000186
p3784
g2
(g3
g4
Ntp3785
Rp3786
(dp3787
g8
g9
sg10
F39.0
sg11
VEsperance
p3788
sg13
Nsg14
g15
sg16
g17
sg18
Nsg19
g20
sg21
g3784
sg22
Nsg23
g9
sg24
g25
((lp3789
g27
atp3790
Rp3791
sg30
VInfrastructure Capital Group
p3792
sg32
I2012
sg33
g2
(g34
g4
Ntp3793
Rp3794
(dp3795
g38
F-33.87619999999998
sg39
g20
sg40
F121.89980000000003
sbsbsVAUS0000187
p3796
g2
(g3
g4
Ntp3797
Rp3798
(dp3799
g8
g9
sg10
F21.0
sg11
VGeraldton
p3800
sg13
Nsg14
g15
sg16
g17
sg18
Nsg19
g20
sg21
g3796
sg22
Nsg23
g9
sg24
g25
((lp3801
g27
atp3802
Rp3803
sg30
VVerve Energy
p3804
sg32
I2012
sg33
g2
(g34
g4
Ntp3805
Rp3806
(dp3807
g38
F-28.77010699999994
sg39
g20
sg40
F114.64848200000006
sbsbsVAUS0000188
p3808
g2
(g3
g4
Ntp3809
Rp3810
(dp3811
g8
g9
sg10
F110.0
sg11
VKalgoorlie (Parkeston)
p3812
sg13
Nsg14
g15
sg16
g17
sg18
Nsg19
g20
sg21
g3808
sg22
Nsg23
g9
sg24
g25
((lp3813
g27
atp3814
Rp3815
sg30
VNewmount Australia / Transalta
p3816
sg32
I2012
sg33
g2
(g34
g4
Ntp3817
Rp3818
(dp3819
g38
F-30.737809999999968
sg39
g20
sg40
F121.50654300000008
sbsbsVAUS0000189
p3820
g2
(g3
g4
Ntp3821
Rp3822
(dp3823
g8
g9
sg10
F86.0
sg11
VKarratha
p3824
sg13
Nsg14
g15
sg16
g17
sg18
Nsg19
g20
sg21
g3820
sg22
Nsg23
g9
sg24
g25
((lp3825
g27
atp3826
Rp3827
sg30
VATCO Power
p3828
sg32
I2012
sg33
g2
(g34
g4
Ntp3829
Rp3830
(dp3831
g38
F-20.762566999999933
sg39
g20
sg40
F116.83747300000005
sbsbsVAUS0000021
p3832
g2
(g3
g4
Ntp3833
Rp3834
(dp3835
g8
g9
sg10
F1.1
sg11
VJindabyne Dam Mini Hydro
p3836
sg13
Nsg14
g15
sg16
g17
sg18
Nsg19
g20
sg21
g3832
sg22
Nsg23
g9
sg24
g25
((lp3837
g59
atp3838
Rp3839
sg30
VSnowy Hydro Ltd
p3840
sg32
I2012
sg33
g2
(g34
g4
Ntp3841
Rp3842
(dp3843
g38
F-36.435149999999965
sg39
g20
sg40
F148.6332500000001
sbsbsVAUS0000020
p3844
g2
(g3
g4
Ntp3845
Rp3846
(dp3847
g8
g9
sg10
F30.0
sg11
VYambuk Wind Farm
p3848
sg13
Nsg14
g15
sg16
g17
sg18
Nsg19
g20
sg21
g3844
sg22
Nsg23
g9
sg24
g25
((lp3849
g181
atp3850
Rp3851
sg30
VEnergy Pacific (Victoria) Pty Ltd
p3852
sg32
I2012
sg33
g2
(g34
g4
Ntp3853
Rp3854
(dp3855
g38
F-38.30835520699998
sg39
g20
sg40
F142.0100325850001
sbsbsVAUS0000027
p3856
g2
(g3
g4
Ntp3857
Rp3858
(dp3859
g8
g9
sg10
F9.9
sg11
VBlayney Wind Farm
p3860
sg13
Nsg14
g15
sg16
g17
sg18
Nsg19
g20
sg21
g3856
sg22
Nsg23
g9
sg24
g25
((lp3861
g181
atp3862
Rp3863
sg30
VEraring Energy
p3864
sg32
I2012
sg33
g2
(g34
g4
Ntp3865
Rp3866
(dp3867
g38
F-33.62188999999995
sg39
g20
sg40
F149.19821000000002
sbsbsVAUS0000026
p3868
g2
(g3
g4
Ntp3869
Rp3870
(dp3871
g8
g9
sg10
F20.0
sg11
VWyangala A
p3872
sg13
Nsg14
g15
sg16
g17
sg18
Nsg19
g20
sg21
g3868
sg22
Nsg23
g9
sg24
g25
((lp3873
g59
atp3874
Rp3875
sg30
VCountry Energy
p3876
sg32
I2012
sg33
g2
(g34
g4
Ntp3877
Rp3878
(dp3879
g38
F-33.980988999999965
sg39
g20
sg40
F148.94730600000003
sbsbsVAUS0000025
p3880
g2
(g3
g4
Ntp3881
Rp3882
(dp3883
g8
g9
sg10
F56.7
sg11
VClements Gap Wind Farm
p3884
sg13
Nsg14
g15
sg16
g17
sg18
Nsg19
g20
sg21
g3880
sg22
Nsg23
g9
sg24
g25
((lp3885
g181
atp3886
Rp3887
sg30
VPacific Hydro Pty Ltd
p3888
sg32
I2012
sg33
g2
(g34
g4
Ntp3889
Rp3890
(dp3891
g38
F-33.508567708999976
sg39
g20
sg40
F138.11917519200006
sbsbsVAUS0000024
p3892
g2
(g3
g4
Ntp3893
Rp3894
(dp3895
g8
g9
sg10
F132.3
sg11
VHallett 4 North Brown Hill  Wind Farm
p3896
sg13
Nsg14
g15
sg16
g17
sg18
Nsg19
g20
sg21
g3892
sg22
Nsg23
g9
sg24
g25
((lp3897
g181
atp3898
Rp3899
sg30
VAGL Energy Pty Ltd
p3900
sg32
I2012
sg33
g2
(g34
g4
Ntp3901
Rp3902
(dp3903
g38
F-33.30925994199998
sg39
g20
sg40
F138.72959554200008
sbsbsVAUS0000051
p3904
g2
(g3
g4
Ntp3905
Rp3906
(dp3907
g8
g9
sg10
F12.0
sg11
VWindy Hill Wind Farm
p3908
sg13
Nsg14
g15
sg16
g17
sg18
Nsg19
g20
sg21
g3904
sg22
Nsg23
g9
sg24
g25
((lp3909
g181
atp3910
Rp3911
sg30
VRATCH-Australia
p3912
sg32
I2012
sg33
g2
(g34
g4
Ntp3913
Rp3914
(dp3915
g38
F-17.592199999999934
sg39
g20
sg40
F145.53060000000005
sbsbsVAUS0000098
p3916
g2
(g3
g4
Ntp3917
Rp3918
(dp3919
g8
g9
sg10
F300.0
sg11
VValley (Peaking Facility)
p3920
sg13
Nsg14
g15
sg16
g17
sg18
Nsg19
g20
sg21
g3916
sg22
Nsg23
g9
sg24
g25
((lp3921
g27
atp3922
Rp3923
sg30
VSnowy Hydro Ltd
p3924
sg32
I2012
sg33
g2
(g34
g4
Ntp3925
Rp3926
(dp3927
g38
F-38.25362199999995
sg39
g20
sg40
F146.5891660000001
sbsbsVAUS0000150
p3928
g2
(g3
g4
Ntp3929
Rp3930
(dp3931
g8
g9
sg10
F500.0
sg11
VWivenhoe Hydroelectric
p3932
sg13
Nsg14
g15
sg16
g17
sg18
Nsg19
g20
sg21
g3928
sg22
Nsg23
g9
sg24
g25
((lp3933
g59
atp3934
Rp3935
sg30
VCS Energy
p3936
sg32
I2012
sg33
g2
(g34
g4
Ntp3937
Rp3938
(dp3939
g38
F-27.372220999999968
sg39
g20
sg40
F152.6320280000001
sbsbsVAUS0000159
p3940
g2
(g3
g4
Ntp3941
Rp3942
(dp3943
g8
g9
sg10
F25.0
sg11
VIsis Central Sugar Mill
p3944
sg13
Nsg14
g15
sg16
g17
sg18
Nsg19
g20
sg21
g3940
sg22
Nsg23
g9
sg24
g25
((lp3945
g303
atp3946
Rp3947
sg30
VAGL Energy Pty Ltd
p3948
sg32
I2012
sg33
g2
(g34
g4
Ntp3949
Rp3950
(dp3951
g38
F-25.19398599999994
sg39
g20
sg40
F152.20855600000004
sbsbsVAUS0000294
p3952
g2
(g3
g4
Ntp3953
Rp3954
(dp3955
g8
g9
sg10
F664.0
sg11
VUranquinty
p3956
sg13
Nsg14
g15
sg16
g17
sg18
Nsg19
g20
sg21
g3952
sg22
Nsg23
g9
sg24
g25
((lp3957
g27
atp3958
Rp3959
sg30
VOrigin Energy
p3960
sg32
I2012
sg33
g2
(g34
g4
Ntp3961
Rp3962
(dp3963
g38
F-35.17939499999994
sg39
g20
sg40
F147.2156920000001
sbsbsVAUS0000295
p3964
g2
(g3
g4
Ntp3965
Rp3966
(dp3967
g8
g9
sg10
F1320.0
sg11
VVales Point B
p3968
sg13
Nsg14
g15
sg16
g17
sg18
Nsg19
g20
sg21
g3964
sg22
Nsg23
g9
sg24
g25
((lp3969
g72
atp3970
Rp3971
sg30
VDelta Electricity
p3972
sg32
I2012
sg33
g2
(g34
g4
Ntp3973
Rp3974
(dp3975
g38
F-33.16074499999996
sg39
g20
sg40
F151.5431460000001
sbsbsVAUS0000296
p3976
g2
(g3
g4
Ntp3977
Rp3978
(dp3979
g8
g9
sg10
F1000.0
sg11
VWallerawang C
p3980
sg13
Nsg14
g15
sg16
g17
sg18
Nsg19
g20
sg21
g3976
sg22
Nsg23
g9
sg24
g25
((lp3981
g72
atp3982
Rp3983
sg30
VTRUenergy
p3984
sg32
I2012
sg33
g2
(g34
g4
Ntp3985
Rp3986
(dp3987
g38
F-33.40282399999995
sg39
g20
sg40
F150.08334500000012
sbsbsVAUS0000297
p3988
g2
(g3
g4
Ntp3989
Rp3990
(dp3991
g8
g9
sg10
F50.0
sg11
VWarragamba
p3992
sg13
Nsg14
g15
sg16
g17
sg18
Nsg19
g20
sg21
g3988
sg22
Nsg23
g9
sg24
g25
((lp3993
g59
atp3994
Rp3995
sg30
VEraring Energy
p3996
sg32
I2012
sg33
g2
(g34
g4
Ntp3997
Rp3998
(dp3999
g38
F-33.88324199999994
sg39
g20
sg40
F150.59654100000012
sbsbsVAUS0000290
p4000
g2
(g3
g4
Ntp4001
Rp4002
(dp4003
g8
g9
sg10
F810.0
sg11
VTomago Aluminium Smelter
p4004
sg13
Nsg14
g15
sg16
g17
sg18
Nsg19
g20
sg21
g4000
sg22
Nsg23
g9
sg24
g25
((lp4005
g27
atp4006
Rp4007
sg30
VTomago Aluminium
p4008
sg32
I2012
sg33
g2
(g34
g4
Ntp4009
Rp4010
(dp4011
g38
F-32.821650999999974
sg39
g20
sg40
F151.7178090000001
sbsbsVAUS0000291
p4012
g2
(g3
g4
Ntp4013
Rp4014
(dp4015
g8
g9
sg10
F41.2
sg11
VTower Mine
p4016
sg13
Nsg14
g15
sg16
g17
sg18
Nsg19
g20
sg21
g4012
sg22
Nsg23
g9
sg24
g25
((lp4017
g27
atp4018
Rp4019
sg30
VEnergy Developments Ltd
p4020
sg32
I2012
sg33
g2
(g34
g4
Ntp4021
Rp4022
(dp4023
g38
F-34.22069199999993
sg39
g20
sg40
F150.7179410000001
sbsbsVAUS0000292
p4024
g2
(g3
g4
Ntp4025
Rp4026
(dp4027
g8
g9
sg10
F384.0
sg11
VTumut 1 (Upper Tumut)
p4028
sg13
Nsg14
g15
sg16
g17
sg18
Nsg19
g20
sg21
g4024
sg22
Nsg23
g9
sg24
g25
((lp4029
g59
atp4030
Rp4031
sg30
VSnowy Hydro Ltd
p4032
sg32
I2012
sg33
g2
(g34
g4
Ntp4033
Rp4034
(dp4035
g38
F-35.95172899999994
sg39
g20
sg40
F148.36371000000008
sbsbsVAUS0000293
p4036
g2
(g3
g4
Ntp4037
Rp4038
(dp4039
g8
g9
sg10
F336.0
sg11
VTumut 2 (Upper Tumut)
p4040
sg13
Nsg14
g15
sg16
g17
sg18
Nsg19
g20
sg21
g4036
sg22
Nsg23
g9
sg24
g25
((lp4041
g59
atp4042
Rp4043
sg30
VSnowy Hydro Ltd
p4044
sg32
I2012
sg33
g2
(g34
g4
Ntp4045
Rp4046
(dp4047
g38
F-35.881290999999976
sg39
g20
sg40
F148.36725200000012
sbsbsVAUS0000117
p4048
g2
(g3
g4
Ntp4049
Rp4050
(dp4051
g8
g9
sg10
F125.0
sg11
VTungatinah
p4052
sg13
Nsg14
g15
sg16
g17
sg18
Nsg19
g20
sg21
g4048
sg22
Nsg23
g9
sg24
g25
((lp4053
g59
atp4054
Rp4055
sg30
VHydro-Electric Corporation (Tasmania)
p4056
sg32
I2012
sg33
g2
(g34
g4
Ntp4057
Rp4058
(dp4059
g38
F-42.29667099999995
sg39
g20
sg40
F146.456543
sbsbsVAUS0000116
p4060
g2
(g3
g4
Ntp4061
Rp4062
(dp4063
g8
g9
sg10
F38.3
sg11
VWayatinah
p4064
sg13
Nsg14
g15
sg16
g17
sg18
Nsg19
g20
sg21
g4060
sg22
Nsg23
g9
sg24
g25
((lp4065
g59
atp4066
Rp4067
sg30
VHydro-Electric Corporation (Tasmania)
p4068
sg32
I2012
sg33
g2
(g34
g4
Ntp4069
Rp4070
(dp4071
g38
F-42.427175999999974
sg39
g20
sg40
F146.53470900000002
sbsbsVAUS0000115
p4072
g2
(g3
g4
Ntp4073
Rp4074
(dp4075
g8
g9
sg10
F2.2
sg11
VRemount
p4076
sg13
Nsg14
g15
sg16
g17
sg18
Nsg19
g20
sg21
g4072
sg22
Nsg23
g9
sg24
g25
((lp4077
g243
atp4078
Rp4079
sg30
VLMS Energy Generation Pty Ltd
p4080
sg32
I2012
sg33
g2
(g34
g4
Ntp4081
Rp4082
(dp4083
g38
F-41.39504899999997
sg39
g20
sg40
F147.15542500000004
sbsbsVAUS0000114
p4084
g2
(g3
g4
Ntp4085
Rp4086
(dp4087
g8
g9
sg10
F150.0
sg11
VAnglesea
p4088
sg13
Nsg14
g15
sg16
g17
sg18
Nsg19
g20
sg21
g4084
sg22
Nsg23
g9
sg24
g25
((lp4089
g72
atp4090
Rp4091
sg30
VAlcoa of Australia Ltd
p4092
sg32
I2012
sg33
g2
(g34
g4
Ntp4093
Rp4094
(dp4095
g38
F-38.38605599999994
sg39
g20
sg40
F144.18278900000007
sbsbsVAUS0000298
p4096
g2
(g3
g4
Ntp4097
Rp4098
(dp4099
g8
g9
sg10
F1.0
sg11
VWest Illawarra Leagues Club
p4100
sg13
Nsg14
g15
sg16
g17
sg18
Nsg19
g20
sg21
g4096
sg22
Nsg23
g9
sg24
g25
((lp4101
g206
atp4102
Rp4103
sg30
VWest Illawarra Leagues Club
p4104
sg32
I2012
sg33
g2
(g34
g4
Ntp4105
Rp4106
(dp4107
g38
F-34.45153699999997
sg39
g20
sg40
F150.84290700000008
sbsbsVAUS0000299
p4108
g2
(g3
g4
Ntp4109
Rp4110
(dp4111
g8
g9
sg10
F1.3
sg11
VWestern Suburbs Leagues Club (Campbelltown)
p4112
sg13
Nsg14
g15
sg16
g17
sg18
Nsg19
g20
sg21
g4108
sg22
Nsg23
g9
sg24
g25
((lp4113
g206
atp4114
Rp4115
sg30
VWestern Suburbs Leagues Club (Campbelltown)
p4116
sg32
I2012
sg33
g2
(g34
g4
Ntp4117
Rp4118
(dp4119
g38
F-34.05132599999996
sg39
g20
sg40
F150.8328600000001
sbsbsVAUS0000111
p4120
g2
(g3
g4
Ntp4121
Rp4122
(dp4123
g8
g9
sg10
F44.0
sg11
VCape Nelson South Wind Farm
p4124
sg13
Nsg14
g15
sg16
g17
sg18
Nsg19
g20
sg21
g4120
sg22
Nsg23
g9
sg24
g25
((lp4125
g181
atp4126
Rp4127
sg30
VPacific Hydro Pty Ltd
p4128
sg32
I2012
sg33
g2
(g34
g4
Ntp4129
Rp4130
(dp4131
g38
F-38.41199999999998
sg39
g20
sg40
F141.54300000000012
sbsbsVAUS0000110
p4132
g2
(g3
g4
Ntp4133
Rp4134
(dp4135
g8
g9
sg10
F54.0
sg11
VCape Sir William Grant Wind Farm
p4136
sg13
Nsg14
g15
sg16
g17
sg18
Nsg19
g20
sg21
g4132
sg22
Nsg23
g9
sg24
g25
((lp4137
g181
atp4138
Rp4139
sg30
VPacific Hydro Pty Ltd
p4140
sg32
I2012
sg33
g2
(g34
g4
Ntp4141
Rp4142
(dp4143
g38
F-38.39759299999997
sg39
g20
sg40
F141.62085000000002
sbsbsVAUS0000368
p4144
g2
(g3
g4
Ntp4145
Rp4146
(dp4147
g8
g9
sg10
F3.69
sg11
VHalls Creek
p4148
sg13
Nsg14
g15
sg16
g17
sg18
Nsg19
g20
sg21
g4144
sg22
Nsg23
g9
sg24
g25
((lp4149
g27
atp4150
Rp4151
sg30
VEnergy Developments Ltd
p4152
sg32
I2012
sg33
g2
(g34
g4
Ntp4153
Rp4154
(dp4155
g38
F-18.232751479999934
sg39
g20
sg40
F127.66189702200006
sbsbsVAUS0000369
p4156
g2
(g3
g4
Ntp4157
Rp4158
(dp4159
g8
g9
sg10
F1.3
sg11
VWarmun
p4160
sg13
Nsg14
g15
sg16
g17
sg18
Nsg19
g20
sg21
g4156
sg22
Nsg23
g9
sg24
g25
((lp4161
g206
atp4162
Rp4163
sg30
VEnergy Developments Ltd
p4164
sg32
I2012
sg33
g2
(g34
g4
Ntp4165
Rp4166
(dp4167
g38
F-17.025883502999932
sg39
g20
sg40
F128.21131963900007
sbsbsVAUS0000414
p4168
g2
(g3
g4
Ntp4169
Rp4170
(dp4171
g8
g9
sg10
F1.04
sg11
VCamballin
p4172
sg13
Nsg14
g15
sg16
g17
sg18
Nsg19
g20
sg21
g4168
sg22
Nsg23
g9
sg24
g25
((lp4173
g27
atp4174
Rp4175
sg30
VEnergy Developments Ltd
p4176
sg32
I2012
sg33
g2
(g34
g4
Ntp4177
Rp4178
(dp4179
g38
F-18.027757491999978
sg39
g20
sg40
F124.16208514900006
sbsbsVAUS0000415
p4180
g2
(g3
g4
Ntp4181
Rp4182
(dp4183
g8
g9
sg10
F16.5
sg11
VCawse Nickel Mine
p4184
sg13
Nsg14
g15
sg16
g17
sg18
Nsg19
g20
sg21
g4180
sg22
Nsg23
g9
sg24
g25
((lp4185
g27
atp4186
Rp4187
sg30
g20
sg32
I2012
sg33
g2
(g34
g4
Ntp4188
Rp4189
(dp4190
g38
F-30.380805807999934
sg39
g20
sg40
F121.16348091600003
sbsbsVAUS0000412
p4191
g2
(g3
g4
Ntp4192
Rp4193
(dp4194
g8
g9
sg10
F1.3
sg11
VHopetoun Diesel Backup
p4195
sg13
Nsg14
g15
sg16
g17
sg18
Nsg19
g20
sg21
g4191
sg22
Nsg23
g9
sg24
g25
((lp4196
g206
atp4197
Rp4198
sg30
VVerve Energy
p4199
sg32
I2012
sg33
g2
(g34
g4
Ntp4200
Rp4201
(dp4202
g38
F-33.90504892299998
sg39
g20
sg40
F120.12993402100005
sbsbsVAUS0000413
p4203
g2
(g3
g4
Ntp4204
Rp4205
(dp4206
g8
g9
sg10
F1.2
sg11
VHopetoun Wind Turbines
p4207
sg13
Nsg14
g15
sg16
g17
sg18
Nsg19
g20
sg21
g4203
sg22
Nsg23
g9
sg24
g25
((lp4208
g181
atp4209
Rp4210
sg30
VVerve Energy
p4211
sg32
I2012
sg33
g2
(g34
g4
Ntp4212
Rp4213
(dp4214
g38
F-33.90776359299997
sg39
g20
sg40
F120.1296811840001
sbsbsVAUS0000410
p4215
g2
(g3
g4
Ntp4216
Rp4217
(dp4218
g8
g9
sg10
F0.3
sg11
VMenzies
p4219
sg13
Nsg14
g15
sg16
g17
sg18
Nsg19
g20
sg21
g4215
sg22
Nsg23
g9
sg24
g25
((lp4220
g206
atp4221
Rp4222
sg30
g20
sg32
I2012
sg33
g2
(g34
g4
Ntp4223
Rp4224
(dp4225
g38
F-29.690601898999944
sg39
g20
sg40
F121.0251779460001
sbsbsVAUS0000411
p4226
g2
(g3
g4
Ntp4227
Rp4228
(dp4229
g8
g9
sg10
F3.6
sg11
VOnslow
p4230
sg13
Nsg14
g15
sg16
g17
sg18
Nsg19
g20
sg21
g4226
sg22
Nsg23
g9
sg24
g25
((lp4231
g27
atp4232
Rp4233
sg30
g20
sg32
I2012
sg33
g2
(g34
g4
Ntp4234
Rp4235
(dp4236
g38
F-21.65822155199993
sg39
g20
sg40
F115.09902478800007
sbsbsVAUS0000360
p4237
g2
(g3
g4
Ntp4238
Rp4239
(dp4240
g8
g9
sg10
F0.8
sg11
VCue
p4241
sg13
Nsg14
g15
sg16
g17
sg18
Nsg19
g20
sg21
g4237
sg22
Nsg23
g9
sg24
g25
((lp4242
g206
atp4243
Rp4244
sg30
VEnergy Developments
p4245
sg32
I2012
sg33
g2
(g34
g4
Ntp4246
Rp4247
(dp4248
g38
F-27.421247747999928
sg39
g20
sg40
F117.88948432200004
sbsbsVAUS0000361
p4249
g2
(g3
g4
Ntp4250
Rp4251
(dp4252
g8
g9
sg10
F0.4
sg11
VSandstone
p4253
sg13
Nsg14
g15
sg16
g17
sg18
Nsg19
g20
sg21
g4249
sg22
Nsg23
g9
sg24
g25
((lp4254
g206
atp4255
Rp4256
sg30
VEnergy Developments
p4257
sg32
I2012
sg33
g2
(g34
g4
Ntp4258
Rp4259
(dp4260
g38
F-27.985269348999964
sg39
g20
sg40
F119.29495929900008
sbsbsVAUS0000362
p4261
g2
(g3
g4
Ntp4262
Rp4263
(dp4264
g8
g9
sg10
F0.2
sg11
VNullagine Solar Farm
p4265
sg13
Nsg14
g15
sg16
g17
sg18
Nsg19
g20
sg21
g4261
sg22
Nsg23
g9
sg24
g25
((lp4266
g964
atp4267
Rp4268
sg30
VHorizon Power
p4269
sg32
I2012
sg33
g2
(g34
g4
Ntp4270
Rp4271
(dp4272
g38
F-21.87950110099996
sg39
g20
sg40
F120.11172335900005
sbsbsVAUS0000363
p4273
g2
(g3
g4
Ntp4274
Rp4275
(dp4276
g8
g9
sg10
F0.96
sg11
VNullagine Diesel Backup
p4277
sg13
Nsg14
g15
sg16
g17
sg18
Nsg19
g20
sg21
g4273
sg22
Nsg23
g9
sg24
g25
((lp4278
g206
atp4279
Rp4280
sg30
VHorizon Power
p4281
sg32
I2012
sg33
g2
(g34
g4
Ntp4282
Rp4283
(dp4284
g38
F-21.87944414599997
sg39
g20
sg40
F120.112862457
sbsbsVAUS0000364
p4285
g2
(g3
g4
Ntp4286
Rp4287
(dp4288
g8
g9
sg10
F0.3
sg11
VMarble Bar Solar Farm
p4289
sg13
Nsg14
g15
sg16
g17
sg18
Nsg19
g20
sg21
g4285
sg22
Nsg23
g9
sg24
g25
((lp4290
g964
atp4291
Rp4292
sg30
VHorizon Power
p4293
sg32
I2012
sg33
g2
(g34
g4
Ntp4294
Rp4295
(dp4296
g38
F-21.164344633999974
sg39
g20
sg40
F119.7412000060001
sbsbsVAUS0000365
p4297
g2
(g3
g4
Ntp4298
Rp4299
(dp4300
g8
g9
sg10
F1.28
sg11
VMarble Bar Diesel Backup
p4301
sg13
Nsg14
g15
sg16
g17
sg18
Nsg19
g20
sg21
g4297
sg22
Nsg23
g9
sg24
g25
((lp4302
g206
atp4303
Rp4304
sg30
VHorizon Power
p4305
sg32
I2012
sg33
g2
(g34
g4
Ntp4306
Rp4307
(dp4308
g38
F-21.164922926999964
sg39
g20
sg40
F119.74185150000005
sbsbsVAUS0000366
p4309
g2
(g3
g4
Ntp4310
Rp4311
(dp4312
g8
g9
sg10
F12.53
sg11
VDerby
p4313
sg13
Nsg14
g15
sg16
g17
sg18
Nsg19
g20
sg21
g4309
sg22
Nsg23
g9
sg24
g25
((lp4314
g27
atp4315
Rp4316
sg30
VEnergy Developments Ltd
p4317
sg32
I2012
sg33
g2
(g34
g4
Ntp4318
Rp4319
(dp4320
g38
F-17.31414106999995
sg39
g20
sg40
F123.64414998000007
sbsbsVAUS0000367
p4321
g2
(g3
g4
Ntp4322
Rp4323
(dp4324
g8
g9
sg10
F4.06
sg11
VFitzroy Crossing
p4325
sg13
Nsg14
g15
sg16
g17
sg18
Nsg19
g20
sg21
g4321
sg22
Nsg23
g9
sg24
g25
((lp4326
g27
atp4327
Rp4328
sg30
VEnergy Developments Ltd
p4329
sg32
I2012
sg33
g2
(g34
g4
Ntp4330
Rp4331
(dp4332
g38
F-18.195575047999967
sg39
g20
sg40
F125.55971118500008
sbsbsVAUS0000203
p4333
g2
(g3
g4
Ntp4334
Rp4335
(dp4336
g8
g9
sg10
F98.0
sg11
VWagerup Bauxite Mine and Alumina Refinery
p4337
sg13
Nsg14
g15
sg16
g17
sg18
Nsg19
g20
sg21
g4333
sg22
Nsg23
g9
sg24
g25
((lp4338
g27
atp4339
Rp4340
sg30
VAlcoa of Australia Ltd
p4341
sg32
I2012
sg33
g2
(g34
g4
Ntp4342
Rp4343
(dp4344
g38
F-32.91449499999993
sg39
g20
sg40
F115.91699500000004
sbsbsVAUS0000202
p4345
g2
(g3
g4
Ntp4346
Rp4347
(dp4348
g8
g9
sg10
F56.0
sg11
VRavensthorpe
p4349
sg13
Nsg14
g15
sg16
g17
sg18
Nsg19
g20
sg21
g4345
sg22
Nsg23
g9
sg24
g25
((lp4350
g206
atp4351
Rp4352
sg30
VFirst Quantum Minerals
p4353
sg32
I2012
sg33
g2
(g34
g4
Ntp4354
Rp4355
(dp4356
g38
F-33.60999999999996
sg39
g20
sg40
F120.36000000000001
sbsbsVAUS0000168
p4357
g2
(g3
g4
Ntp4358
Rp4359
(dp4360
g8
g9
sg10
F1460.0
sg11
VStanwell
p4361
sg13
Nsg14
g15
sg16
g17
sg18
Nsg19
g20
sg21
g4357
sg22
Nsg23
g9
sg24
g25
((lp4362
g72
atp4363
Rp4364
sg30
VStanwell Corporation Ltd
p4365
sg32
I2012
sg33
g2
(g34
g4
Ntp4366
Rp4367
(dp4368
g38
F-23.50971999999996
sg39
g20
sg40
F150.31946600000003
sbsbsVAUS0000169
p4369
g2
(g3
g4
Ntp4370
Rp4371
(dp4372
g8
g9
sg10
F15.0
sg11
VTarong
p4373
sg13
Nsg14
g15
sg16
g17
sg18
Nsg19
g20
sg21
g4369
sg22
Nsg23
g9
sg24
g25
((lp4374
g206
atp4375
Rp4376
sg30
VTarong Energy Corporation
p4377
sg32
I2012
sg33
g2
(g34
g4
Ntp4378
Rp4379
(dp4380
g38
F-26.785766999999964
sg39
g20
sg40
F151.91716400000007
sbsbsVAUS0000207
p4381
g2
(g3
g4
Ntp4382
Rp4383
(dp4384
g8
g9
sg10
F1.9
sg11
VMount Magnet
p4385
sg13
Nsg14
g15
sg16
g17
sg18
Nsg19
g20
sg21
g4381
sg22
Nsg23
g9
sg24
g25
((lp4386
g27
atp4387
Rp4388
sg30
g20
sg32
I2012
sg33
g2
(g34
g4
Ntp4389
Rp4390
(dp4391
g38
F-28.087084337999954
sg39
g20
sg40
F117.83271097700003
sbsbsVAUS0000206
p4392
g2
(g3
g4
Ntp4393
Rp4394
(dp4395
g8
g9
sg10
F126.0
sg11
VPort Hedland
p4396
sg13
Nsg14
g15
sg16
g17
sg18
Nsg19
g20
sg21
g4392
sg22
Nsg23
g9
sg24
g25
((lp4397
g27
atp4398
Rp4399
sg30
VAlinta Energy
p4400
sg32
I2012
sg33
g2
(g34
g4
Ntp4401
Rp4402
(dp4403
g38
F-20.42829999999998
sg39
g20
sg40
F118.54980000000012
sbsbsVAUS0000205
p4404
g2
(g3
g4
Ntp4405
Rp4406
(dp4407
g8
g9
sg10
F60.0
sg11
VWest Kalgoorlie
p4408
sg13
Nsg14
g15
sg16
g17
sg18
Nsg19
g20
sg21
g4404
sg22
Nsg23
g9
sg24
g25
((lp4409
g206
atp4410
Rp4411
sg30
VVerve Energy
p4412
sg32
I2012
sg33
g2
(g34
g4
Ntp4413
Rp4414
(dp4415
g38
F-30.78063499999996
sg39
g20
sg40
F121.42335500000002
sbsbsVAUS0000204
p4416
g2
(g3
g4
Ntp4417
Rp4418
(dp4419
g8
g9
sg10
F380.0
sg11
VWagerup
p4420
sg13
Nsg14
g15
sg16
g17
sg18
Nsg19
g20
sg21
g4416
sg22
Nsg23
g9
sg24
g25
((lp4421
g27
atp4422
Rp4423
sg30
VAlinta Energy
p4424
sg32
I2012
sg33
g2
(g34
g4
Ntp4425
Rp4426
(dp4427
g38
F-32.916016999999954
sg39
g20
sg40
F115.91864700000008
sbsbsVAUS0000162
p4428
g2
(g3
g4
Ntp4429
Rp4430
(dp4431
g8
g9
sg10
F744.0
sg11
VKogan Creek
p4432
sg13
Nsg14
g15
sg16
g17
sg18
Nsg19
g20
sg21
g4428
sg22
Nsg23
g9
sg24
g25
((lp4433
g72
atp4434
Rp4435
sg30
VCS Energy
p4436
sg32
I2013
sg33
g2
(g34
g4
Ntp4437
Rp4438
(dp4439
g38
F-26.917683332999957
sg39
g20
sg40
F150.7492833330001
sbsbsVAUS0000163
p4440
g2
(g3
g4
Ntp4441
Rp4442
(dp4443
g8
g9
sg10
F856.0
sg11
VMillmerran
p4444
sg13
Nsg14
g15
sg16
g17
sg18
Nsg19
g20
sg21
g4440
sg22
Nsg23
g9
sg24
g25
((lp4445
g72
atp4446
Rp4447
sg30
VIntergen
p4448
sg32
I2012
sg33
g2
(g34
g4
Ntp4449
Rp4450
(dp4451
g38
F-27.96154199999995
sg39
g20
sg40
F151.278949
sbsbsVAUS0000160
p4452
g2
(g3
g4
Ntp4453
Rp4454
(dp4455
g8
g9
sg10
F9.0
sg11
VKalamia Sugar Mill
p4456
sg13
Nsg14
g15
sg16
g17
sg18
Nsg19
g20
sg21
g4452
sg22
Nsg23
g9
sg24
g25
((lp4457
g303
atp4458
Rp4459
sg30
VSucrogen (Kalamia) Pty ltd
p4460
sg32
I2012
sg33
g2
(g34
g4
Ntp4461
Rp4462
(dp4463
g38
F-19.52233899999993
sg39
g20
sg40
F147.41523700000005
sbsbsVAUS0000161
p4464
g2
(g3
g4
Ntp4465
Rp4466
(dp4467
g8
g9
sg10
F88.0
sg11
VKareeya
p4468
sg13
Nsg14
g15
sg16
g17
sg18
Nsg19
g20
sg21
g4464
sg22
Nsg23
g9
sg24
g25
((lp4469
g59
atp4470
Rp4471
sg30
VStanwell Corporation Ltd
p4472
sg32
I2012
sg33
g2
(g34
g4
Ntp4473
Rp4474
(dp4475
g38
F-17.767001999999934
sg39
g20
sg40
F145.5778650000001
sbsbsVAUS0000166
p4476
g2
(g3
g4
Ntp4477
Rp4478
(dp4479
g8
g9
sg10
F282.0
sg11
VOakey
p4480
sg13
Nsg14
g15
sg16
g17
sg18
Nsg19
g20
sg21
g4476
sg22
Nsg23
g9
sg24
g25
((lp4481
g27
atp4482
Rp4483
sg30
VOakey Power Pty Ltd
p4484
sg32
I2012
sg33
g2
(g34
g4
Ntp4485
Rp4486
(dp4487
g38
F-27.418361999999945
sg39
g20
sg40
F151.67976700000008
sbsbsVAUS0000167
p4488
g2
(g3
g4
Ntp4489
Rp4490
(dp4491
g8
g9
sg10
F20.0
sg11
VOaky Creek
p4492
sg13
Nsg14
g15
sg16
g17
sg18
Nsg19
g20
sg21
g4488
sg22
Nsg23
g9
sg24
g25
((lp4493
g27
atp4494
Rp4495
sg30
VEnvironGen (Oaky) Pty Ltd
p4496
sg32
I2012
sg33
g2
(g34
g4
Ntp4497
Rp4498
(dp4499
g38
F-22.98777599999994
sg39
g20
sg40
F148.58170200000006
sbsbsVAUS0000164
p4500
g2
(g3
g4
Ntp4501
Rp4502
(dp4503
g8
g9
sg10
F12.0
sg11
VMoranbah
p4504
sg13
Nsg14
g15
sg16
g17
sg18
Nsg19
g20
sg21
g4500
sg22
Nsg23
g9
sg24
g25
((lp4505
g27
atp4506
Rp4507
sg30
VEnergy Developments Ltd
p4508
sg32
I2012
sg33
g2
(g34
g4
Ntp4509
Rp4510
(dp4511
g38
F-21.98513020799993
sg39
g20
sg40
F148.02464716200006
sbsbsVAUS0000165
p4512
g2
(g3
g4
Ntp4513
Rp4514
(dp4515
g8
g9
sg10
F424.0
sg11
VMount Stuart
p4516
sg13
Nsg14
g15
sg16
g17
sg18
Nsg19
g20
sg21
g4512
sg22
Nsg23
g9
sg24
g25
((lp4517
g206
atp4518
Rp4519
sg30
VOrigin Energy
p4520
sg32
I2012
sg33
g2
(g34
g4
Ntp4521
Rp4522
(dp4523
g38
F-19.33799799999997
sg39
g20
sg40
F146.85117100000002
sbsbsVAUS0000067
p4524
g2
(g3
g4
Ntp4525
Rp4526
(dp4527
g8
g9
sg10
F4.4
sg11
VWollert
p4528
sg13
Nsg14
g15
sg16
g17
sg18
Nsg19
g20
sg21
g4524
sg22
Nsg23
g9
sg24
g25
((lp4529
g243
atp4530
Rp4531
sg30
VLMS Energy Generation Pty Ltd
p4532
sg32
I2012
sg33
g2
(g34
g4
Ntp4533
Rp4534
(dp4535
g38
F-37.582956999999965
sg39
g20
sg40
F145.04870400000004
sbsbsVAUS0000066
p4536
g2
(g3
g4
Ntp4537
Rp4538
(dp4539
g8
g9
sg10
F1.1
sg11
VWyndham
p4540
sg13
Nsg14
g15
sg16
g17
sg18
Nsg19
g20
sg21
g4536
sg22
Nsg23
g9
sg24
g25
((lp4541
g243
atp4542
Rp4543
sg30
VLMS Energy
p4544
sg32
I2012
sg33
g2
(g34
g4
Ntp4545
Rp4546
(dp4547
g38
F-37.93748799999997
sg39
g20
sg40
F144.59017900000003
sbsbsVAUS0000065
p4548
g2
(g3
g4
Ntp4549
Rp4550
(dp4551
g8
g9
sg10
F21.6
sg11
VAlbany Wind Farm
p4552
sg13
Nsg14
g15
sg16
g17
sg18
Nsg19
g20
sg21
g4548
sg22
Nsg23
g9
sg24
g25
((lp4553
g181
atp4554
Rp4555
sg30
VVerve Energy
p4556
sg32
I2012
sg33
g2
(g34
g4
Ntp4557
Rp4558
(dp4559
g38
F-35.064146999999934
sg39
g20
sg40
F117.79769500000009
sbsbsVAUS0000064
p4560
g2
(g3
g4
Ntp4561
Rp4562
(dp4563
g8
g9
sg10
F46.0
sg11
VCanunda Wind Farm
p4564
sg13
Nsg14
g15
sg16
g17
sg18
Nsg19
g20
sg21
g4560
sg22
Nsg23
g9
sg24
g25
((lp4565
g181
atp4566
Rp4567
sg30
VInternational Power - GDF Suez Australia
p4568
sg32
I2012
sg33
g2
(g34
g4
Ntp4569
Rp4570
(dp4571
g38
F-37.76025335999998
sg39
g20
sg40
F140.40331128800005
sbsbsVAUS0000063
p4572
g2
(g3
g4
Ntp4573
Rp4574
(dp4575
g8
g9
sg10
F66.0
sg11
VCathedral Rocks Wind Farm
p4576
sg13
Nsg14
g15
sg16
g17
sg18
Nsg19
g20
sg21
g4572
sg22
Nsg23
g9
sg24
g25
((lp4577
g181
atp4578
Rp4579
sg30
VTRUenergy & Acciona Energy
p4580
sg32
I2012
sg33
g2
(g34
g4
Ntp4581
Rp4582
(dp4583
g38
F-34.85086099999995
sg39
g20
sg40
F135.58517200000006
sbsbsVAUS0000062
p4584
g2
(g3
g4
Ntp4585
Rp4586
(dp4587
g8
g9
sg10
F159.0
sg11
VLake Bonney Wind Farm
p4588
sg13
Nsg14
g15
sg16
g17
sg18
Nsg19
g20
sg21
g4584
sg22
Nsg23
g9
sg24
g25
((lp4589
g181
atp4590
Rp4591
sg30
VInfigen Energy Pty Ltd
p4592
sg32
I2012
sg33
g2
(g34
g4
Ntp4593
Rp4594
(dp4595
g38
F-37.77134988199998
sg39
g20
sg40
F140.39808392700002
sbsbsVAUS0000061
p4596
g2
(g3
g4
Ntp4597
Rp4598
(dp4599
g8
g9
sg10
F70.0
sg11
VMount Millar Wind Farm
p4600
sg13
Nsg14
g15
sg16
g17
sg18
Nsg19
g20
sg21
g4596
sg22
Nsg23
g9
sg24
g25
((lp4601
g181
atp4602
Rp4603
sg30
VMeridian Energy Australia
p4604
sg32
I2012
sg33
g2
(g34
g4
Ntp4605
Rp4606
(dp4607
g38
F-33.62672799999996
sg39
g20
sg40
F136.704562
sbsbsVAUS0000060
p4608
g2
(g3
g4
Ntp4609
Rp4610
(dp4611
g8
g9
sg10
F30.0
sg11
VRocky Point Sugar Sugar Mill
p4612
sg13
Nsg14
g15
sg16
g17
sg18
Nsg19
g20
sg21
g4608
sg22
Nsg23
g9
sg24
g25
((lp4613
g303
atp4614
Rp4615
sg30
VStanwell Corporation Ltd
p4616
sg32
I2012
sg33
g2
(g34
g4
Ntp4617
Rp4618
(dp4619
g38
F-27.73344899999995
sg39
g20
sg40
F153.32760700000006
sbsbsVAUS0000069
p4620
g2
(g3
g4
Ntp4621
Rp4622
(dp4623
g8
g9
sg10
F21.0
sg11
VToora Wind Farm
p4624
sg13
Nsg14
g15
sg16
g17
sg18
Nsg19
g20
sg21
g4620
sg22
Nsg23
g9
sg24
g25
((lp4625
g181
atp4626
Rp4627
sg30
VRATCH-Australia
p4628
sg32
I2012
sg33
g2
(g34
g4
Ntp4629
Rp4630
(dp4631
g38
F-38.645059999999944
sg39
g20
sg40
F146.34413200000006
sbsbsVAUS0000068
p4632
g2
(g3
g4
Ntp4633
Rp4634
(dp4635
g8
g9
sg10
F1.1
sg11
VWhitwood Road
p4636
sg13
Nsg14
g15
sg16
g17
sg18
Nsg19
g20
sg21
g4632
sg22
Nsg23
g9
sg24
g25
((lp4637
g243
atp4638
Rp4639
sg30
VLMS Energy Generation Pty Ltd
p4640
sg32
I2012
sg33
g2
(g34
g4
Ntp4641
Rp4642
(dp4643
g38
F-27.659013999999956
sg39
g20
sg40
F152.82374300000004
sbsbsVAUS0000028
p4644
g2
(g3
g4
Ntp4645
Rp4646
(dp4647
g8
g9
sg10
F48.3
sg11
VWoodlawn Wind Farm
p4648
sg13
Nsg14
g15
sg16
g17
sg18
Nsg19
g20
sg21
g4644
sg22
Nsg23
g9
sg24
g25
((lp4649
g181
atp4650
Rp4651
sg30
VInfigen Energy Pty Ltd
p4652
sg32
I2012
sg33
g2
(g34
g4
Ntp4653
Rp4654
(dp4655
g38
F-35.086059700999954
sg39
g20
sg40
F149.57160577900004
sbsbsVAUS0000012
p4656
g2
(g3
g4
Ntp4657
Rp4658
(dp4659
g8
g9
sg10
F5.7
sg11
VPindari
p4660
sg13
Nsg14
g15
sg16
g17
sg18
Nsg19
g20
sg21
g4656
sg22
Nsg23
g9
sg24
g25
((lp4661
g59
atp4662
Rp4663
sg30
VAGL Energy Pty Ltd
p4664
sg32
I2012
sg33
g2
(g34
g4
Ntp4665
Rp4666
(dp4667
g38
F-29.38862599999993
sg39
g20
sg40
F151.2442020000001
sbsbsVAUS0000013
p4668
g2
(g3
g4
Ntp4669
Rp4670
(dp4671
g8
g9
sg10
F2.2
sg11
VNieterana
p4672
sg13
Nsg14
g15
sg16
g17
sg18
Nsg19
g20
sg21
g4668
sg22
Nsg23
g9
sg24
g25
((lp4673
g59
atp4674
Rp4675
sg30
VHydro-Electric Corporation (Tasmania)
p4676
sg32
I2012
sg33
g2
(g34
g4
Ntp4677
Rp4678
(dp4679
g38
F-42.26858699999997
sg39
g20
sg40
F146.2628830000001
sbsbsVAUS0000010
p4680
g2
(g3
g4
Ntp4681
Rp4682
(dp4683
g8
g9
sg10
F75.0
sg11
VStudland Bay (Woolnorth) Wind Farm
p4684
sg13
Nsg14
g15
sg16
g17
sg18
Nsg19
g20
sg21
g4680
sg22
Nsg23
g9
sg24
g25
((lp4685
g181
atp4686
Rp4687
sg30
VHydro-Electric Corporation (Tasmania)
p4688
sg32
I2012
sg33
g2
(g34
g4
Ntp4689
Rp4690
(dp4691
g38
F-40.778753999999935
sg39
g20
sg40
F144.73620400000004
sbsbsVAUS0000011
p4692
g2
(g3
g4
Ntp4693
Rp4694
(dp4695
g8
g9
sg10
F2.5
sg11
VThe Drop
p4696
sg13
Nsg14
g15
sg16
g17
sg18
Nsg19
g20
sg21
g4692
sg22
Nsg23
g9
sg24
g25
((lp4697
g59
atp4698
Rp4699
sg30
VPacific Hydro Investments Pty Ltd
p4700
sg32
I2012
sg33
g2
(g34
g4
Ntp4701
Rp4702
(dp4703
g38
F-35.60434699999996
sg39
g20
sg40
F145.78372500000012
sbsbsVAUS0000016
p4704
g2
(g3
g4
Ntp4705
Rp4706
(dp4707
g8
g9
sg10
F67.2
sg11
VOakland Hills Wind Farm
p4708
sg13
Nsg14
g15
sg16
g17
sg18
Nsg19
g20
sg21
g4704
sg22
Nsg23
g9
sg24
g25
((lp4709
g181
atp4710
Rp4711
sg30
VAGL Energy Pty Ltd
p4712
sg32
I2012
sg33
g2
(g34
g4
Ntp4713
Rp4714
(dp4715
g38
F-37.66380099999998
sg39
g20
sg40
F142.5480560000001
sbsbsVAUS0000017
p4716
g2
(g3
g4
Ntp4717
Rp4718
(dp4719
g8
g9
sg10
F1.1
sg11
VShepparton Biogas Generation Plant
p4720
sg13
Nsg14
g15
sg16
g17
sg18
Nsg19
g20
sg21
g4716
sg22
Nsg23
g9
sg24
g25
((lp4721
g243
atp4722
Rp4723
sg30
VDiamond Energy Pty Ltd
p4724
sg32
I2012
sg33
g2
(g34
g4
Ntp4725
Rp4726
(dp4727
g38
F-36.321774999999946
sg39
g20
sg40
F145.37898300000006
sbsbsVAUS0000014
p4728
g2
(g3
g4
Ntp4729
Rp4730
(dp4731
g8
g9
sg10
F12.5
sg11
VBanimboola
p4732
sg13
Nsg14
g15
sg16
g17
sg18
Nsg19
g20
sg21
g4728
sg22
Nsg23
g9
sg24
g25
((lp4733
g59
atp4734
Rp4735
sg30
VAGL Energy Pty Ltd
p4736
sg32
I2012
sg33
g2
(g34
g4
Ntp4737
Rp4738
(dp4739
g38
F-36.534208999999976
sg39
g20
sg40
F147.45942600000012
sbsbsVAUS0000015
p4740
g2
(g3
g4
Ntp4741
Rp4742
(dp4743
g8
g9
sg10
F18.2
sg11
VCodrington Wind Farm
p4744
sg13
Nsg14
g15
sg16
g17
sg18
Nsg19
g20
sg21
g4740
sg22
Nsg23
g9
sg24
g25
((lp4745
g181
atp4746
Rp4747
sg30
VEnergy Pacific (Victoria) Pty Ltd
p4748
sg32
I2012
sg33
g2
(g34
g4
Ntp4749
Rp4750
(dp4751
g38
F-38.28351622699995
sg39
g20
sg40
F141.9547286720001
sbsbsVAUS0000018
p4752
g2
(g3
g4
Ntp4753
Rp4754
(dp4755
g8
g9
sg10
F1.1
sg11
VTatura Biogas Generation Plant
p4756
sg13
Nsg14
g15
sg16
g17
sg18
Nsg19
g20
sg21
g4752
sg22
Nsg23
g9
sg24
g25
((lp4757
g243
atp4758
Rp4759
sg30
VDiamond Energy Pty Ltd
p4760
sg32
I2012
sg33
g2
(g34
g4
Ntp4761
Rp4762
(dp4763
g38
F-36.47926099999995
sg39
g20
sg40
F145.23502600000006
sbsbsVAUS0000019
p4764
g2
(g3
g4
Ntp4765
Rp4766
(dp4767
g8
g9
sg10
F192.0
sg11
VWaubra Wind Farm
p4768
sg13
Nsg14
g15
sg16
g17
sg18
Nsg19
g20
sg21
g4764
sg22
Nsg23
g9
sg24
g25
((lp4769
g181
atp4770
Rp4771
sg30
VAcciona Energy Australia
p4772
sg32
I2012
sg33
g2
(g34
g4
Ntp4773
Rp4774
(dp4775
g38
F-37.355981499999984
sg39
g20
sg40
F143.6059150000001
sbsbsVAUS0000158
p4776
g2
(g3
g4
Ntp4777
Rp4778
(dp4779
g8
g9
sg10
F1680.0
sg11
VGladstone
p4780
sg13
Nsg14
g15
sg16
g17
sg18
Nsg19
g20
sg21
g4776
sg22
Nsg23
g9
sg24
g25
((lp4781
g72
atp4782
Rp4783
sg30
VGPS Joint Venture
p4784
sg32
I2012
sg33
g2
(g34
g4
Ntp4785
Rp4786
(dp4787
g38
F-23.85075299999994
sg39
g20
sg40
F151.21865300000002
sbsbsVAUS0000058
p4788
g2
(g3
g4
Ntp4789
Rp4790
(dp4791
g8
g9
sg10
F2.5
sg11
VTerminal Storage
p4792
sg13
Nsg14
g15
sg16
g17
sg18
Nsg19
g20
sg21
g4788
sg22
Nsg23
g9
sg24
g25
((lp4793
g59
atp4794
Rp4795
sg30
VHydro-Electric Corp Tasmania/SA Water
p4796
sg32
I2012
sg33
g2
(g34
g4
Ntp4797
Rp4798
(dp4799
g38
F-34.83932299999998
sg39
g20
sg40
F138.711226
sbsbsVAUS0000059
p4800
g2
(g3
g4
Ntp4801
Rp4802
(dp4803
g8
g9
sg10
F1.5
sg11
VSuncoast Gold Macadamia
p4804
sg13
Nsg14
g15
sg16
g17
sg18
Nsg19
g20
sg21
g4800
sg22
Nsg23
g9
sg24
g25
((lp4805
g303
atp4806
Rp4807
sg30
VAGL Energy Pty Ltd
p4808
sg32
I2012
sg33
g2
(g34
g4
Ntp4809
Rp4810
(dp4811
g38
F-26.226124999999968
sg39
g20
sg40
F152.69810200000006
sbsbsVAUS0000457
p4812
g2
(g3
g4
Ntp4813
Rp4814
(dp4815
g8
g9
sg10
F450.0
sg11
VCape Preston
p4816
sg13
Nsg14
g15
sg16
g17
sg18
Nsg19
g20
sg21
g4812
sg22
Nsg23
g9
sg24
g25
((lp4817
g27
atp4818
Rp4819
sg30
VCitic Pacific Mining
p4820
sg32
Nsg33
g2
(g34
g4
Ntp4821
Rp4822
(dp4823
g38
F-21.076706137999963
sg39
g20
sg40
F116.15901566800005
sbsbsVAUS0000455
p4824
g2
(g3
g4
Ntp4825
Rp4826
(dp4827
g8
g9
sg10
F71.4
sg11
VHallett 2 Hallet Hill  Wind Farm
p4828
sg13
Nsg14
g15
sg16
g17
sg18
Nsg19
g20
sg21
g4824
sg22
Nsg23
g9
sg24
g25
((lp4829
g181
atp4830
Rp4831
sg30
VANZ Energy Infrastructure Trust
p4832
sg32
I2012
sg33
g2
(g34
g4
Ntp4833
Rp4834
(dp4835
g38
F-33.57166811999997
sg39
g20
sg40
F138.85795056000006
sbsbsVAUS0000249
p4836
g2
(g3
g4
Ntp4837
Rp4838
(dp4839
g8
g9
sg10
F90.0
sg11
VMintaro
p4840
sg13
Nsg14
g15
sg16
g17
sg18
Nsg19
g20
sg21
g4836
sg22
Nsg23
g9
sg24
g25
((lp4841
g27
atp4842
Rp4843
sg30
VSynergen Power
p4844
sg32
I2012
sg33
g2
(g34
g4
Ntp4845
Rp4846
(dp4847
g38
F-33.90309999999994
sg39
g20
sg40
F138.7383000000001
sbsbsVAUS0000248
p4848
g2
(g3
g4
Ntp4849
Rp4850
(dp4851
g8
g9
sg10
F530.0
sg11
VNorthern
p4852
sg13
Nsg14
g15
sg16
g17
sg18
Nsg19
g20
sg21
g4848
sg22
Nsg23
g9
sg24
g25
((lp4853
g72
atp4854
Rp4855
sg30
VAlinta Energy
p4856
sg32
I2012
sg33
g2
(g34
g4
Ntp4857
Rp4858
(dp4859
g38
F-32.54325399999993
sg39
g20
sg40
F137.78820400000006
sbsbsVAUS0000247
p4860
g2
(g3
g4
Ntp4861
Rp4862
(dp4863
g8
g9
sg10
F240.0
sg11
VPlayford
p4864
sg13
Nsg14
g15
sg16
g17
sg18
Nsg19
g20
sg21
g4860
sg22
Nsg23
g9
sg24
g25
((lp4865
g72
atp4866
Rp4867
sg30
VAlinta Energy
p4868
sg32
I2012
sg33
g2
(g34
g4
Ntp4869
Rp4870
(dp4871
g38
F-32.539278999999965
sg39
g20
sg40
F137.78188000000011
sbsbsVAUS0000246
p4872
g2
(g3
g4
Ntp4873
Rp4874
(dp4875
g8
g9
sg10
Nsg11
VSnowtown
p4876
sg13
Nsg14
g15
sg16
g17
sg18
Nsg19
g20
sg21
g4872
sg22
Nsg23
g9
sg24
g25
((lp4877
g27
atp4878
Rp4879
sg30
g20
sg32
I2012
sg33
g2
(g34
g4
Ntp4880
Rp4881
(dp4882
g38
F-33.71386699999994
sg39
g20
sg40
F138.14036700000008
sbsbsVAUS0000245
p4883
g2
(g3
g4
Ntp4884
Rp4885
(dp4886
g8
g9
sg10
F63.0
sg11
VSnuggery
p4887
sg13
Nsg14
g15
sg16
g17
sg18
Nsg19
g20
sg21
g4883
sg22
Nsg23
g9
sg24
g25
((lp4888
g27
atp4889
Rp4890
sg30
VInternational Power - GDF Suez Australia
p4891
sg32
I2012
sg33
g2
(g34
g4
Ntp4892
Rp4893
(dp4894
g38
F-37.66455099999996
sg39
g20
sg40
F140.41555800000003
sbsbsVAUS0000244
p4895
g2
(g3
g4
Ntp4896
Rp4897
(dp4898
g8
g9
sg10
F80.0
sg11
VLadbroke Grove
p4899
sg13
Nsg14
g15
sg16
g17
sg18
Nsg19
g20
sg21
g4895
sg22
Nsg23
g9
sg24
g25
((lp4900
g27
atp4901
Rp4902
sg30
VOrigin Energy
p4903
sg32
I2012
sg33
g2
(g34
g4
Ntp4904
Rp4905
(dp4906
g38
F-37.45667299999997
sg39
g20
sg40
F140.7826920000001
sbsbsVAUS0000243
p4907
g2
(g3
g4
Ntp4908
Rp4909
(dp4910
g8
g9
sg10
F4.1
sg11
VWingfield II
p4911
sg13
Nsg14
g15
sg16
g17
sg18
Nsg19
g20
sg21
g4907
sg22
Nsg23
g9
sg24
g25
((lp4912
g243
atp4913
Rp4914
sg30
VEnergy Developments LFG (SA) Pty Ltd
p4915
sg32
I2012
sg33
g2
(g34
g4
Ntp4916
Rp4917
(dp4918
g38
F-34.83208099999996
sg39
g20
sg40
F138.5489030000001
sbsbsVAUS0000242
p4919
g2
(g3
g4
Ntp4920
Rp4921
(dp4922
g8
g9
sg10
F4.1
sg11
VWingfield I
p4923
sg13
Nsg14
g15
sg16
g17
sg18
Nsg19
g20
sg21
g4919
sg22
Nsg23
g9
sg24
g25
((lp4924
g243
atp4925
Rp4926
sg30
VEnergy Developments LFG (SA) Pty Ltd
p4927
sg32
I2012
sg33
g2
(g34
g4
Ntp4928
Rp4929
(dp4930
g38
F-34.83481999999998
sg39
g20
sg40
F138.55724700000007
sbsbsVAUS0000241
p4931
g2
(g3
g4
Ntp4932
Rp4933
(dp4934
g8
g9
sg10
F800.0
sg11
VTorrens Island B
p4935
sg13
Nsg14
g15
sg16
g17
sg18
Nsg19
g20
sg21
g4931
sg22
Nsg23
g9
sg24
g25
((lp4936
g27
atp4937
Rp4938
sg30
VAGL Energy Pty Ltd
p4939
sg32
I2012
sg33
g2
(g34
g4
Ntp4940
Rp4941
(dp4942
g38
F-34.80517099999997
sg39
g20
sg40
F138.52262000000007
sbsbsVAUS0000240
p4943
g2
(g3
g4
Ntp4944
Rp4945
(dp4946
g8
g9
sg10
F480.0
sg11
VTorrens Island A
p4947
sg13
Nsg14
g15
sg16
g17
sg18
Nsg19
g20
sg21
g4943
sg22
Nsg23
g9
sg24
g25
((lp4948
g27
atp4949
Rp4950
sg30
VAGL Energy Pty Ltd
p4951
sg32
I2012
sg33
g2
(g34
g4
Ntp4952
Rp4953
(dp4954
g38
F-34.806843999999955
sg39
g20
sg40
F138.52132200000005
sbsbsVAUS0000126
p4955
g2
(g3
g4
Ntp4956
Rp4957
(dp4958
g8
g9
sg10
F48.0
sg11
VCatagunya
p4959
sg13
Nsg14
g15
sg16
g17
sg18
Nsg19
g20
sg21
g4955
sg22
Nsg23
g9
sg24
g25
((lp4960
g59
atp4961
Rp4962
sg30
VHydro-Electric Corporation (Tasmania)
p4963
sg32
I2012
sg33
g2
(g34
g4
Ntp4964
Rp4965
(dp4966
g38
F-42.452380999999946
sg39
g20
sg40
F146.59768700000006
sbsbsVAUS0000088
p4967
g2
(g3
g4
Ntp4968
Rp4969
(dp4970
g8
g9
sg10
F212.0
sg11
VJeeralang A
p4971
sg13
Nsg14
g15
sg16
g17
sg18
Nsg19
g20
sg21
g4967
sg22
Nsg23
g9
sg24
g25
((lp4972
g27
atp4973
Rp4974
sg30
VIndustry Funds Management Nominees Ltd Ecogen Holdings
p4975
sg32
I2012
sg33
g2
(g34
g4
Ntp4976
Rp4977
(dp4978
g38
F-38.27532499999995
sg39
g20
sg40
F146.4262960000001
sbsbsVAUS0000124
p4979
g2
(g3
g4
Ntp4980
Rp4981
(dp4982
g8
g9
sg10
F32.0
sg11
VLake Echo
p4983
sg13
Nsg14
g15
sg16
g17
sg18
Nsg19
g20
sg21
g4979
sg22
Nsg23
g9
sg24
g25
((lp4984
g59
atp4985
Rp4986
sg30
VHydro-Electric Corporation (Tasmania)
p4987
sg32
I2012
sg33
g2
(g34
g4
Ntp4988
Rp4989
(dp4990
g38
F-42.253701999999976
sg39
g20
sg40
F146.62069900000006
sbsbsVAUS0000125
p4991
g2
(g3
g4
Ntp4992
Rp4993
(dp4994
g8
g9
sg10
F17.0
sg11
VCluny
p4995
sg13
Nsg14
g15
sg16
g17
sg18
Nsg19
g20
sg21
g4991
sg22
Nsg23
g9
sg24
g25
((lp4996
g59
atp4997
Rp4998
sg30
VHydro-Electric Corporation (Tasmania)
p4999
sg32
I2012
sg33
g2
(g34
g4
Ntp5000
Rp5001
(dp5002
g38
F-42.506422999999984
sg39
g20
sg40
F146.68116200000009
sbsbsVAUS0000122
p5003
g2
(g3
g4
Ntp5004
Rp5005
(dp5006
g8
g9
sg10
F40.0
sg11
VMeadowbank
p5007
sg13
Nsg14
g15
sg16
g17
sg18
Nsg19
g20
sg21
g5003
sg22
Nsg23
g9
sg24
g25
((lp5008
g59
atp5009
Rp5010
sg30
VHydro-Electric Corporation (Tasmania)
p5011
sg32
I2012
sg33
g2
(g34
g4
Ntp5012
Rp5013
(dp5014
g38
F-42.61119899999994
sg39
g20
sg40
F146.84567600000003
sbsbsVAUS0000123
p5015
g2
(g3
g4
Ntp5016
Rp5017
(dp5018
g8
g9
sg10
F87.3
sg11
VLiapootah
p5019
sg13
Nsg14
g15
sg16
g17
sg18
Nsg19
g20
sg21
g5015
sg22
Nsg23
g9
sg24
g25
((lp5020
g59
atp5021
Rp5022
sg30
VHydro-Electric Corporation (Tasmania)
p5023
sg32
I2012
sg33
g2
(g34
g4
Ntp5024
Rp5025
(dp5026
g38
F-42.37631699999997
sg39
g20
sg40
F146.50989000000004
sbsbsVAUS0000120
p5027
g2
(g3
g4
Ntp5028
Rp5029
(dp5030
g8
g9
sg10
F28.0
sg11
VRepulse
p5031
sg13
Nsg14
g15
sg16
g17
sg18
Nsg19
g20
sg21
g5027
sg22
Nsg23
g9
sg24
g25
((lp5032
g59
atp5033
Rp5034
sg30
VHydro-Electric Corporation (Tasmania)
p5035
sg32
I2012
sg33
g2
(g34
g4
Ntp5036
Rp5037
(dp5038
g38
F-42.507694999999956
sg39
g20
sg40
F146.64696000000004
sbsbsVAUS0000121
p5039
g2
(g3
g4
Ntp5040
Rp5041
(dp5042
g8
g9
sg10
F300.0
sg11
VPoatina
p5043
sg13
Nsg14
g15
sg16
g17
sg18
Nsg19
g20
sg21
g5039
sg22
Nsg23
g9
sg24
g25
((lp5044
g59
atp5045
Rp5046
sg30
VHydro-Electric Corporation (Tasmania)
p5047
sg32
I2012
sg33
g2
(g34
g4
Ntp5048
Rp5049
(dp5050
g38
F-41.81157299999995
sg39
g20
sg40
F146.9190380000001
sbsbsVAUS0000081
p5051
g2
(g3
g4
Ntp5052
Rp5053
(dp5054
g8
g9
sg10
F94.0
sg11
VBairnsdale
p5055
sg13
Nsg14
g15
sg16
g17
sg18
Nsg19
g20
sg21
g5051
sg22
Nsg23
g9
sg24
g25
((lp5056
g27
atp5057
Rp5058
sg30
VAlinta DEBO
p5059
sg32
I2012
sg33
g2
(g34
g4
Ntp5060
Rp5061
(dp5062
g38
F-37.842858999999976
sg39
g20
sg40
F147.56393000000003
sbsbsVAUS0000080
p5063
g2
(g3
g4
Ntp5064
Rp5065
(dp5066
g8
g9
sg10
F4.6
sg11
VBerwick
p5067
sg13
Nsg14
g15
sg16
g17
sg18
Nsg19
g20
sg21
g5063
sg22
Nsg23
g9
sg24
g25
((lp5068
g243
atp5069
Rp5070
sg30
VEnergy Developments LFG (Victoria) Pty Ltd
p5071
sg32
I2012
sg33
g2
(g34
g4
Ntp5072
Rp5073
(dp5074
g38
F-38.11970199999996
sg39
g20
sg40
F145.26646100000005
sbsbsVAUS0000083
p5075
g2
(g3
g4
Ntp5076
Rp5077
(dp5078
g8
g9
sg10
F11.0
sg11
VClayton
p5079
sg13
Nsg14
g15
sg16
g17
sg18
Nsg19
g20
sg21
g5075
sg22
Nsg23
g9
sg24
g25
((lp5080
g243
atp5081
Rp5082
sg30
VEnergy Developments LFG (Victoria) Pty Ltd
p5083
sg32
I2012
sg33
g2
(g34
g4
Ntp5084
Rp5085
(dp5086
g38
F-37.95019999999994
sg39
g20
sg40
F145.11872200000005
sbsbsVAUS0000082
p5087
g2
(g3
g4
Ntp5088
Rp5089
(dp5090
g8
g9
sg10
F6.2
sg11
VBroadmeadows
p5091
sg13
Nsg14
g15
sg16
g17
sg18
Nsg19
g20
sg21
g5087
sg22
Nsg23
g9
sg24
g25
((lp5092
g243
atp5093
Rp5094
sg30
VEnergy Developments LFG (Victoria) Pty Ltd
p5095
sg32
I2012
sg33
g2
(g34
g4
Ntp5096
Rp5097
(dp5098
g38
F-37.68778599999996
sg39
g20
sg40
F144.9663190000001
sbsbsVAUS0000085
p5099
g2
(g3
g4
Ntp5100
Rp5101
(dp5102
g8
g9
sg10
F189.0
sg11
VEnergy Brix
p5103
sg13
Nsg14
g15
sg16
g17
sg18
Nsg19
g20
sg21
g5099
sg22
Nsg23
g9
sg24
g25
((lp5104
g72
atp5105
Rp5106
sg30
VEnergy Brix (Aust) Corp
p5107
sg32
I2012
sg33
g2
(g34
g4
Ntp5108
Rp5109
(dp5110
g38
F-38.25455999999997
sg39
g20
sg40
F146.41372200000012
sbsbsVAUS0000084
p5111
g2
(g3
g4
Ntp5112
Rp5113
(dp5114
g8
g9
sg10
F135.0
sg11
VEildon
p5115
sg13
Nsg14
g15
sg16
g17
sg18
Nsg19
g20
sg21
g5111
sg22
Nsg23
g9
sg24
g25
((lp5116
g59
atp5117
Rp5118
sg30
VAGL Energy Pty Ltd
p5119
sg32
I2012
sg33
g2
(g34
g4
Ntp5120
Rp5121
(dp5122
g38
F-37.22200499999997
sg39
g20
sg40
F145.92145200000004
sbsbsVAUS0000087
p5123
g2
(g3
g4
Ntp5124
Rp5125
(dp5126
g8
g9
sg10
F1600.0
sg11
VHazelwood
p5127
sg13
Nsg14
g15
sg16
g17
sg18
Nsg19
g20
sg21
g5123
sg22
Nsg23
g9
sg24
g25
((lp5128
g72
atp5129
Rp5130
sg30
VHazelwood Power
p5131
sg32
I2012
sg33
g2
(g34
g4
Ntp5132
Rp5133
(dp5134
g38
F-38.273102999999935
sg39
g20
sg40
F146.39226300000007
sbsbsVAUS0000086
p5135
g2
(g3
g4
Ntp5136
Rp5137
(dp5138
g8
g9
sg10
F3.8
sg11
VLake Glenmaggie
p5139
sg13
Nsg14
g15
sg16
g17
sg18
Nsg19
g20
sg21
g5135
sg22
Nsg23
g9
sg24
g25
((lp5140
g59
atp5141
Rp5142
sg30
VPacific Hydro Investments Pty Ltd
p5143
sg32
I2012
sg33
g2
(g34
g4
Ntp5144
Rp5145
(dp5146
g38
F-37.904744999999934
sg39
g20
sg40
F146.80108500000006
sbsbsVAUS0000449
p5147
g2
(g3
g4
Ntp5148
Rp5149
(dp5150
g8
g9
sg10
F8.55
sg11
VKing Island (Currie)
p5151
sg13
Nsg14
g15
sg16
g17
sg18
Nsg19
g20
sg21
g5147
sg22
Nsg23
g9
sg24
g25
((lp5152
g206
atp5153
Rp5154
sg30
VHydro Tasmania
p5155
sg32
Nsg33
g2
(g34
g4
Ntp5156
Rp5157
(dp5158
g38
F-39.93878522399996
sg39
g20
sg40
F143.891964593
sbsbsVAUS0000448
p5159
g2
(g3
g4
Ntp5160
Rp5161
(dp5162
g8
g9
sg10
F1.5
sg11
VMildura Solar Farm
p5163
sg13
Nsg14
g15
sg16
g17
sg18
Nsg19
g20
sg21
g5159
sg22
Nsg23
g9
sg24
g25
((lp5164
g964
atp5165
Rp5166
sg30
VSilex Systems
p5167
sg32
I2014
sg33
g2
(g34
g4
Ntp5168
Rp5169
(dp5170
g38
F-34.467089802999965
sg39
g20
sg40
F142.183286693
sbsbsVAUS0000441
p5171
g2
(g3
g4
Ntp5172
Rp5173
(dp5174
g8
g9
sg10
F0.16
sg11
VKogarah Town Square Solar Array
p5175
sg13
Nsg14
g15
sg16
g17
sg18
Nsg19
g20
sg21
g5171
sg22
Nsg23
g9
sg24
g25
((lp5176
g964
atp5177
Rp5178
sg30
VKogarah Council
p5179
sg32
I2012
sg33
g2
(g34
g4
Ntp5180
Rp5181
(dp5182
g38
F-33.965174529999956
sg39
g20
sg40
F151.1331504310001
sbsbsVAUS0000440
p5183
g2
(g3
g4
Ntp5184
Rp5185
(dp5186
g8
g9
sg10
F0.39
sg11
VSingleton Solar Farm
p5187
sg13
Nsg14
g15
sg16
g17
sg18
Nsg19
g20
sg21
g5183
sg22
Nsg23
g9
sg24
g25
((lp5188
g964
atp5189
Rp5190
sg30
VAusgrid
p5191
sg32
I2012
sg33
g2
(g34
g4
Ntp5192
Rp5193
(dp5194
g38
F-32.59238450699996
sg39
g20
sg40
F151.18120867400012
sbsbsVAUS0000443
p5195
g2
(g3
g4
Ntp5196
Rp5197
(dp5198
g8
g9
sg10
F10.0
sg11
VMt Gambier
p5199
sg13
Nsg14
g15
sg16
g17
sg18
Nsg19
g20
sg21
g5195
sg22
Nsg23
g9
sg24
g25
((lp5200
g303
atp5201
Rp5202
sg30
VCarter Holt Harvey Wood Products Australia Pty Limited
p5203
sg32
I2013
sg33
g2
(g34
g4
Ntp5204
Rp5205
(dp5206
g38
F-37.83884532999997
sg39
g20
sg40
F140.8056959710001
sbsbsVAUS0000442
p5207
g2
(g3
g4
Ntp5208
Rp5209
(dp5210
g8
g9
sg10
F0.14
sg11
VStadium Australia
p5211
sg13
Nsg14
g15
sg16
g17
sg18
Nsg19
g20
sg21
g5207
sg22
Nsg23
g9
sg24
g25
((lp5212
g964
atp5213
Rp5214
sg30
g20
sg32
I2012
sg33
g2
(g34
g4
Ntp5215
Rp5216
(dp5217
g38
F-33.84517807299994
sg39
g20
sg40
F151.06403926100006
sbsbsVAUS0000445
p5218
g2
(g3
g4
Ntp5219
Rp5220
(dp5221
g8
g9
sg10
F2.0
sg11
VVisy Paper Gibson Island
p5222
sg13
Nsg14
g15
sg16
g17
sg18
Nsg19
g20
sg21
g5218
sg22
Nsg23
g9
sg24
g25
((lp5223
g303
atp5224
Rp5225
sg30
VVisy Pulp & Paper
p5226
sg32
Nsg33
g2
(g34
g4
Ntp5227
Rp5228
(dp5229
g38
F-27.44051322399997
sg39
g20
sg40
F153.11579455700007
sbsbsVAUS0000444
p5230
g2
(g3
g4
Ntp5231
Rp5232
(dp5233
g8
g9
sg10
F1.0
sg11
VNarrogin Bioenergy Plant
p5234
sg13
Nsg14
g15
sg16
g17
sg18
Nsg19
g20
sg21
g5230
sg22
Nsg23
g9
sg24
g25
((lp5235
g303
atp5236
Rp5237
sg30
VVerve Energy  Western Power  Oil Mallee Co  Enecon P/L
p5238
sg32
I2013
sg33
g2
(g34
g4
Ntp5239
Rp5240
(dp5241
g38
F-32.95211794599993
sg39
g20
sg40
F117.19158099000003
sbsbsVAUS0000447
p5242
g2
(g3
g4
Ntp5243
Rp5244
(dp5245
g8
g9
sg10
F145.0
sg11
VWilpena Solar Farm
p5246
sg13
Nsg14
g15
sg16
g17
sg18
Nsg19
g20
sg21
g5242
sg22
Nsg23
g9
sg24
g25
((lp5247
g964
atp5248
Rp5249
sg30
VAGL
p5250
sg32
I2014
sg33
g2
(g34
g4
Ntp5251
Rp5252
(dp5253
g38
F-31.523392487999956
sg39
g20
sg40
F138.6197569530001
sbsbsVAUS0000446
p5254
g2
(g3
g4
Ntp5255
Rp5256
(dp5257
g8
g9
sg10
F325.0
sg11
VMica Creek
p5258
sg13
Nsg14
g15
sg16
g17
sg18
Nsg19
g20
sg21
g5254
sg22
Nsg23
g9
sg24
g25
((lp5259
g27
atp5260
Rp5261
sg30
VStanwell Corporation
p5262
sg32
I2013
sg33
g2
(g34
g4
Ntp5263
Rp5264
(dp5265
g38
F-20.777726239999936
sg39
g20
sg40
F139.49046429100008
sbsbsVAUS0000333
p5266
g2
(g3
g4
Ntp5267
Rp5268
(dp5269
g8
g9
sg10
F1.2
sg11
VMelbourne
p5270
sg13
Nsg14
g15
sg16
g17
sg18
Nsg19
g20
sg21
g5266
sg22
Nsg23
g9
sg24
g25
((lp5271
g27
atp5272
Rp5273
sg30
VCogent Energy
p5274
sg32
I2012
sg33
g2
(g34
g4
Ntp5275
Rp5276
(dp5277
g38
F-37.808596002999934
sg39
g20
sg40
F144.96848012300006
sbsbsVAUS0000332
p5278
g2
(g3
g4
Ntp5279
Rp5280
(dp5281
g8
g9
sg10
F4.2
sg11
VKRC Cogeneration Plant
p5282
sg13
Nsg14
g15
sg16
g17
sg18
Nsg19
g20
sg21
g5278
sg22
Nsg23
g9
sg24
g25
((lp5283
g27
atp5284
Rp5285
sg30
VAGL
p5286
sg32
I2012
sg33
g2
(g34
g4
Ntp5287
Rp5288
(dp5289
g38
F-27.445266808999975
sg39
g20
sg40
F153.11846693600012
sbsbsVAUS0000331
p5290
g2
(g3
g4
Ntp5291
Rp5292
(dp5293
g8
g9
sg10
F1.1
sg11
VGosnells
p5294
sg13
Nsg14
g15
sg16
g17
sg18
Nsg19
g20
sg21
g5290
sg22
Nsg23
g9
sg24
g25
((lp5295
g243
atp5296
Rp5297
sg30
VAGL Energy Pty Ltd
p5298
sg32
I2012
sg33
g2
(g34
g4
Ntp5299
Rp5300
(dp5301
g38
F-32.022750963999954
sg39
g20
sg40
F116.01287154800002
sbsbsVAUS0000239
p5302
g2
(g3
g4
Ntp5303
Rp5304
(dp5305
g8
g9
sg10
F224.0
sg11
VQuarantine
p5306
sg13
Nsg14
g15
sg16
g17
sg18
Nsg19
g20
sg21
g5302
sg22
Nsg23
g9
sg24
g25
((lp5307
g27
atp5308
Rp5309
sg30
VOrigin Energy
p5310
sg32
I2012
sg33
g2
(g34
g4
Ntp5311
Rp5312
(dp5313
g38
F-34.77928399999996
sg39
g20
sg40
F138.52235200000007
sbsbsVAUS0000337
p5314
g2
(g3
g4
Ntp5315
Rp5316
(dp5317
g8
g9
sg10
F0.25
sg11
VSouth East Water Hallam Plant
p5318
sg13
Nsg14
g15
sg16
g17
sg18
Nsg19
g20
sg21
g5314
sg22
Nsg23
g9
sg24
g25
((lp5319
g59
atp5320
Rp5321
sg30
VSouth East Water
p5322
sg32
I2012
sg33
g2
(g34
g4
Ntp5323
Rp5324
(dp5325
g38
F-38.02317811299997
sg39
g20
sg40
F145.2781215440001
sbsbsVAUS0000336
p5326
g2
(g3
g4
Ntp5327
Rp5328
(dp5329
g8
g9
sg10
F1.0
sg11
VCorio
p5330
sg13
Nsg14
g15
sg16
g17
sg18
Nsg19
g20
sg21
g5326
sg22
Nsg23
g9
sg24
g25
((lp5331
g243
atp5332
Rp5333
sg30
VEDL LFG Vic Pty Ltd
p5334
sg32
I2012
sg33
g2
(g34
g4
Ntp5335
Rp5336
(dp5337
g38
F-38.05865887699997
sg39
g20
sg40
F144.405575687
sbsbsVAUS0000335
p5338
g2
(g3
g4
Ntp5339
Rp5340
(dp5341
g8
g9
sg10
F4.5
sg11
VEildon Small Hydro
p5342
sg13
Nsg14
g15
sg16
g17
sg18
Nsg19
g20
sg21
g5338
sg22
Nsg23
g9
sg24
g25
((lp5343
g59
atp5344
Rp5345
sg30
VPacific Hydro Investments Pty Ltd
p5346
sg32
I2012
sg33
g2
(g34
g4
Ntp5347
Rp5348
(dp5349
g38
F-37.24307176099995
sg39
g20
sg40
F145.89740990000007
sbsbsVAUS0000334
p5350
g2
(g3
g4
Ntp5351
Rp5352
(dp5353
g8
g9
sg10
F0.4
sg11
VCarlton
p5354
sg13
Nsg14
g15
sg16
g17
sg18
Nsg19
g20
sg21
g5350
sg22
Nsg23
g9
sg24
g25
((lp5355
g27
atp5356
Rp5357
sg30
VCogent Energy
p5358
sg32
I2012
sg33
g2
(g34
g4
Ntp5359
Rp5360
(dp5361
g38
F-37.806118228999935
sg39
g20
sg40
F144.96065012300005
sbsbsVAUS0000232
p5362
g2
(g3
g4
Ntp5363
Rp5364
(dp5365
g8
g9
sg10
F50.0
sg11
VAngaston
p5366
sg13
Nsg14
g15
sg16
g17
sg18
Nsg19
g20
sg21
g5362
sg22
Nsg23
g9
sg24
g25
((lp5367
g206
atp5368
Rp5369
sg30
VInfratil Energy Australia Pty Ltd
p5370
sg32
I2012
sg33
g2
(g34
g4
Ntp5371
Rp5372
(dp5373
g38
F-34.50347999999997
sg39
g20
sg40
F139.024537
sbsbsVAUS0000233
p5374
g2
(g3
g4
Ntp5375
Rp5376
(dp5377
g8
g9
sg10
F156.0
sg11
VDry Creek
p5378
sg13
Nsg14
g15
sg16
g17
sg18
Nsg19
g20
sg21
g5374
sg22
Nsg23
g9
sg24
g25
((lp5379
g27
atp5380
Rp5381
sg30
VSynergen Power
p5382
sg32
I2012
sg33
g2
(g34
g4
Ntp5383
Rp5384
(dp5385
g38
F-34.84746299999995
sg39
g20
sg40
F138.58175800000004
sbsbsVAUS0000339
p5386
g2
(g3
g4
Ntp5387
Rp5388
(dp5389
g8
g9
sg10
F0.9
sg11
VRoyston
p5390
sg13
Nsg14
g15
sg16
g17
sg18
Nsg19
g20
sg21
g5386
sg22
Nsg23
g9
sg24
g25
((lp5391
g59
atp5392
Rp5393
sg30
VAGL Energy Pty Ltd
p5394
sg32
I2012
sg33
g2
(g34
g4
Ntp5395
Rp5396
(dp5397
g38
F-37.373920675999955
sg39
g20
sg40
F145.86452681800006
sbsbsVAUS0000338
p5398
g2
(g3
g4
Ntp5399
Rp5400
(dp5401
g8
g9
sg10
F2.7
sg11
VLower Rubicon
p5402
sg13
Nsg14
g15
sg16
g17
sg18
Nsg19
g20
sg21
g5398
sg22
Nsg23
g9
sg24
g25
((lp5403
g59
atp5404
Rp5405
sg30
VAGL Energy Pty Ltd
p5406
sg32
I2012
sg33
g2
(g34
g4
Ntp5407
Rp5408
(dp5409
g38
F-37.30272459099996
sg39
g20
sg40
F145.84577523000007
sbsbsVAUS0000236
p5410
g2
(g3
g4
Ntp5411
Rp5412
(dp5413
g8
g9
sg10
F3.1
sg11
VPedler Creek
p5414
sg13
Nsg14
g15
sg16
g17
sg18
Nsg19
g20
sg21
g5410
sg22
Nsg23
g9
sg24
g25
((lp5415
g243
atp5416
Rp5417
sg30
VEnergy Developments LFG (SA) Pty Ltd
p5418
sg32
I2012
sg33
g2
(g34
g4
Ntp5419
Rp5420
(dp5421
g38
F-35.20232099999998
sg39
g20
sg40
F138.50209400000006
sbsbsVAUS0000237
p5422
g2
(g3
g4
Ntp5423
Rp5424
(dp5425
g8
g9
sg10
F478.0
sg11
VPelican Point
p5426
sg13
Nsg14
g15
sg16
g17
sg18
Nsg19
g20
sg21
g5422
sg22
Nsg23
g9
sg24
g25
((lp5427
g27
atp5428
Rp5429
sg30
VInternational Power - GDF Suez Australia
p5430
sg32
I2012
sg33
g2
(g34
g4
Ntp5431
Rp5432
(dp5433
g38
F-34.76497199999994
sg39
g20
sg40
F138.50532500000008
sbsbsVAUS0000234
p5434
g2
(g3
g4
Ntp5435
Rp5436
(dp5437
g8
g9
sg10
F20.7
sg11
VLonsdale
p5438
sg13
Nsg14
g15
sg16
g17
sg18
Nsg19
g20
sg21
g5434
sg22
Nsg23
g9
sg24
g25
((lp5439
g206
atp5440
Rp5441
sg30
VInfratil Energy Australia Pty Ltd
p5442
sg32
I2012
sg33
g2
(g34
g4
Ntp5443
Rp5444
(dp5445
g38
F-35.10966855399994
sg39
g20
sg40
F138.49100682100004
sbsbsVAUS0000235
p5446
g2
(g3
g4
Ntp5447
Rp5448
(dp5449
g8
g9
sg10
F180.0
sg11
VOsborne
p5450
sg13
Nsg14
g15
sg16
g17
sg18
Nsg19
g20
sg21
g5446
sg22
Nsg23
g9
sg24
g25
((lp5451
g27
atp5452
Rp5453
sg30
VOrigin Energy
p5454
sg32
I2012
sg33
g2
(g34
g4
Ntp5455
Rp5456
(dp5457
g38
F-34.79802099999995
sg39
g20
sg40
F138.5078840000001
sbsbsVAUS0000433
p5458
g2
(g3
g4
Ntp5459
Rp5460
(dp5461
g8
g9
sg10
F0.11
sg11
VAdelaide Airport
p5462
sg13
Nsg14
g15
sg16
g17
sg18
Nsg19
g20
sg21
g5458
sg22
Nsg23
g9
sg24
g25
((lp5463
g964
atp5464
Rp5465
sg30
VAdelaide Airport Ltd
p5466
sg32
I2012
sg33
g2
(g34
g4
Ntp5467
Rp5468
(dp5469
g38
F-34.93867455299994
sg39
g20
sg40
F138.5376555360001
sbsbsVAUS0000351
p5470
g2
(g3
g4
Ntp5471
Rp5472
(dp5473
g8
g9
sg10
F2.24
sg11
VCoral Bay Diesel Backup
p5474
sg13
Nsg14
g15
sg16
g17
sg18
Nsg19
g20
sg21
g5470
sg22
Nsg23
g9
sg24
g25
((lp5475
g206
atp5476
Rp5477
sg30
VVerve Energy
p5478
sg32
I2012
sg33
g2
(g34
g4
Ntp5479
Rp5480
(dp5481
g38
F-23.152144317999955
sg39
g20
sg40
F113.776179006
sbsbsVAUS0000350
p5482
g2
(g3
g4
Ntp5483
Rp5484
(dp5485
g8
g9
sg10
F0.83
sg11
VCoral Bay Wind Turbines
p5486
sg13
Nsg14
g15
sg16
g17
sg18
Nsg19
g20
sg21
g5482
sg22
Nsg23
g9
sg24
g25
((lp5487
g181
atp5488
Rp5489
sg30
VVerve Energy
p5490
sg32
I2012
sg33
g2
(g34
g4
Ntp5491
Rp5492
(dp5493
g38
F-23.154419166999958
sg39
g20
sg40
F113.77206677900006
sbsbsVAUS0000383
p5494
g2
(g3
g4
Ntp5495
Rp5496
(dp5497
g8
g9
sg10
F0.4
sg11
VGascoyne Junction
p5498
sg13
Nsg14
g15
sg16
g17
sg18
Nsg19
g20
sg21
g5494
sg22
Nsg23
g9
sg24
g25
((lp5499
g206
atp5500
Rp5501
sg30
VEnergy Developments
p5502
sg32
I2012
sg33
g2
(g34
g4
Ntp5503
Rp5504
(dp5505
g38
F-25.05569375799996
sg39
g20
sg40
F115.20828921500004
sbsbsVAUS0000197
p5506
g2
(g3
g4
Ntp5507
Rp5508
(dp5509
g8
g9
sg10
F120.0
sg11
VKwinana Swift
p5510
sg13
Nsg14
g15
sg16
g17
sg18
Nsg19
g20
sg21
g5506
sg22
Nsg23
g9
sg24
g25
((lp5511
g27
atp5512
Rp5513
sg30
VWestern Energy Pty Ltd
p5514
sg32
I2012
sg33
g2
(g34
g4
Ntp5515
Rp5516
(dp5517
g38
F-32.22425832899995
sg39
g20
sg40
F115.7782769050001
sbsbsVAUS0000196
p5518
g2
(g3
g4
Ntp5519
Rp5520
(dp5521
g8
g9
sg10
F320.0
sg11
VKwinana (NewGen)
p5522
sg13
Nsg14
g15
sg16
g17
sg18
Nsg19
g20
sg21
g5518
sg22
Nsg23
g9
sg24
g25
((lp5523
g27
atp5524
Rp5525
sg30
VNewgen Power Kwinana Partnership
p5526
sg32
I2012
sg33
g2
(g34
g4
Ntp5527
Rp5528
(dp5529
g38
F-32.201979999999935
sg39
g20
sg40
F115.77282100000002
sbsbsVAUS0000195
p5530
g2
(g3
g4
Ntp5531
Rp5532
(dp5533
g8
g9
sg10
F200.0
sg11
VKwinana High Efficiency Gas Turbine Plant
p5534
sg13
Nsg14
g15
sg16
g17
sg18
Nsg19
g20
sg21
g5530
sg22
Nsg23
g9
sg24
g25
((lp5535
g27
atp5536
Rp5537
sg30
VVerve Energy
p5538
sg32
I2012
sg33
g2
(g34
g4
Ntp5539
Rp5540
(dp5541
g38
F-32.197295434999944
sg39
g20
sg40
F115.77538637200007
sbsbsVAUS0000194
p5542
g2
(g3
g4
Ntp5543
Rp5544
(dp5545
g8
g9
sg10
F21.0
sg11
VKwinan
p5546
sg13
Nsg14
g15
sg16
g17
sg18
Nsg19
g20
sg21
g5542
sg22
Nsg23
g9
sg24
g25
((lp5547
g27
atp5548
Rp5549
sg30
VVerve Energy
p5550
sg32
I2012
sg33
g2
(g34
g4
Ntp5551
Rp5552
(dp5553
g38
F-32.19700263699997
sg39
g20
sg40
F115.7759455040001
sbsbsVAUS0000193
p5554
g2
(g3
g4
Ntp5555
Rp5556
(dp5557
g8
g9
sg10
F123.0
sg11
VKwinana Cogeneration
p5558
sg13
Nsg14
g15
sg16
g17
sg18
Nsg19
g20
sg21
g5554
sg22
Nsg23
g9
sg24
g25
((lp5559
g27
atp5560
Rp5561
sg30
VInternational Power Plc & Mitsui & Co Ltd & Transfield
p5562
sg32
I2012
sg33
g2
(g34
g4
Ntp5563
Rp5564
(dp5565
g38
F-32.222531999999944
sg39
g20
sg40
F115.76612100000011
sbsbsVAUS0000192
p5566
g2
(g3
g4
Ntp5567
Rp5568
(dp5569
g8
g9
sg10
F400.0
sg11
VKwinana C
p5570
sg13
Nsg14
g15
sg16
g17
sg18
Nsg19
g20
sg21
g5566
sg22
Nsg23
g9
sg24
g25
((lp5571
g72
atp5572
Rp5573
sg30
VVerve Energy
p5574
sg32
I2012
sg33
g2
(g34
g4
Ntp5575
Rp5576
(dp5577
g38
F-32.19922939299994
sg39
g20
sg40
F115.77470218600001
sbsbsVAUS0000191
p5578
g2
(g3
g4
Ntp5579
Rp5580
(dp5581
g8
g9
sg10
F240.0
sg11
VKwinana A
p5582
sg13
Nsg14
g15
sg16
g17
sg18
Nsg19
g20
sg21
g5578
sg22
Nsg23
g9
sg24
g25
((lp5583
g72
atp5584
Rp5585
sg30
VVerve Energy
p5586
sg32
I2012
sg33
g2
(g34
g4
Ntp5587
Rp5588
(dp5589
g38
F-32.19795289599995
sg39
g20
sg40
F115.7751616490001
sbsbsVAUS0000190
p5590
g2
(g3
g4
Ntp5591
Rp5592
(dp5593
g8
g9
sg10
F66.0
sg11
VKwinana (Alcoa Refinery)
p5594
sg13
Nsg14
g15
sg16
g17
sg18
Nsg19
g20
sg21
g5590
sg22
Nsg23
g9
sg24
g25
((lp5595
g27
atp5596
Rp5597
sg30
VAlcoa of Australia Ltd
p5598
sg32
I2012
sg33
g2
(g34
g4
Ntp5599
Rp5600
(dp5601
g38
F-32.19463499999995
sg39
g20
sg40
F115.77967600000011
sbsbsVAUS0000056
p5602
g2
(g3
g4
Ntp5603
Rp5604
(dp5605
g8
g9
sg10
F50.0
sg11
VInvicta Sugar Mill
p5606
sg13
Nsg14
g15
sg16
g17
sg18
Nsg19
g20
sg21
g5602
sg22
Nsg23
g9
sg24
g25
((lp5607
g303
atp5608
Rp5609
sg30
VCSR
p5610
sg32
I2012
sg33
g2
(g34
g4
Ntp5611
Rp5612
(dp5613
g38
F-19.516696999999965
sg39
g20
sg40
F147.10652600000003
sbsbsVAUS0000057
p5614
g2
(g3
g4
Ntp5615
Rp5616
(dp5617
g8
g9
sg10
F4.5
sg11
VWivenhoe
p5618
sg13
Nsg14
g15
sg16
g17
sg18
Nsg19
g20
sg21
g5614
sg22
Nsg23
g9
sg24
g25
((lp5619
g59
atp5620
Rp5621
sg30
VStanwell Corporation Ltd
p5622
sg32
I2012
sg33
g2
(g34
g4
Ntp5623
Rp5624
(dp5625
g38
F-27.395211999999958
sg39
g20
sg40
F152.6091530000001
sbsbsVAUS0000054
p5626
g2
(g3
g4
Ntp5627
Rp5628
(dp5629
g8
g9
sg10
F45.6
sg11
VMoranbah North
p5630
sg13
Nsg14
g15
sg16
g17
sg18
Nsg19
g20
sg21
g5626
sg22
Nsg23
g9
sg24
g25
((lp5631
g27
atp5632
Rp5633
sg30
VEnergy Development Projects (Australia) Pty Ltd
p5634
sg32
I2012
sg33
g2
(g34
g4
Ntp5635
Rp5636
(dp5637
g38
F-21.896655255999974
sg39
g20
sg40
F147.95065540500002
sbsbsVAUS0000055
p5638
g2
(g3
g4
Ntp5639
Rp5640
(dp5641
g8
g9
sg10
F7.3
sg11
VKoombooloomba
p5642
sg13
Nsg14
g15
sg16
g17
sg18
Nsg19
g20
sg21
g5638
sg22
Nsg23
g9
sg24
g25
((lp5643
g59
atp5644
Rp5645
sg30
VStanwell Corporation Ltd
p5646
sg32
I2012
sg33
g2
(g34
g4
Ntp5647
Rp5648
(dp5649
g38
F-17.831283999999982
sg39
g20
sg40
F145.60336200000006
sbsbsVAUS0000052
p5650
g2
(g3
g4
Ntp5651
Rp5652
(dp5653
g8
g9
sg10
F34.5
sg11
VStarfish Hill Wind Farm
p5654
sg13
Nsg14
g15
sg16
g17
sg18
Nsg19
g20
sg21
g5650
sg22
Nsg23
g9
sg24
g25
((lp5655
g181
atp5656
Rp5657
sg30
VRATCH-Australia
p5658
sg32
I2012
sg33
g2
(g34
g4
Ntp5659
Rp5660
(dp5661
g38
F-35.56776499999995
sg39
g20
sg40
F138.1432380000001
sbsbsVAUS0000053
p5662
g2
(g3
g4
Ntp5663
Rp5664
(dp5665
g8
g9
sg10
F67.8
sg11
VPioneer Sugar Mill
p5666
sg13
Nsg14
g15
sg16
g17
sg18
Nsg19
g20
sg21
g5662
sg22
Nsg23
g9
sg24
g25
((lp5667
g303
atp5668
Rp5669
sg30
VCSR
p5670
sg32
I2012
sg33
g2
(g34
g4
Ntp5671
Rp5672
(dp5673
g38
F-19.55746499999998
sg39
g20
sg40
F147.33080100000006
sbsbsVAUS0000199
p5674
g2
(g3
g4
Ntp5675
Rp5676
(dp5677
g8
g9
sg10
F140.0
sg11
VNewman Iron Ore Mine
p5678
sg13
Nsg14
g15
sg16
g17
sg18
Nsg19
g20
sg21
g5674
sg22
Nsg23
g9
sg24
g25
((lp5679
g27
atp5680
Rp5681
sg30
VAlinta Energy
p5682
sg32
I2012
sg33
g2
(g34
g4
Ntp5683
Rp5684
(dp5685
g38
F-23.344274999999982
sg39
g20
sg40
F119.70858700000008
sbsbsVAUS0000198
p5686
g2
(g3
g4
Ntp5687
Rp5688
(dp5689
g8
g9
sg10
F330.0
sg11
VNeerabup
p5690
sg13
Nsg14
g15
sg16
g17
sg18
Nsg19
g20
sg21
g5686
sg22
Nsg23
g9
sg24
g25
((lp5691
g27
atp5692
Rp5693
sg30
VNewgen Neerabup Partnership
p5694
sg32
I2012
sg33
g2
(g34
g4
Ntp5695
Rp5696
(dp5697
g38
F-31.67124999999993
sg39
g20
sg40
F115.8021490000001
sbsbsVAUS0000359
p5698
g2
(g3
g4
Ntp5699
Rp5700
(dp5701
g8
g9
sg10
F3.3
sg11
VSouth Cardup (Shale Road Landfill)
p5702
sg13
Nsg14
g15
sg16
g17
sg18
Nsg19
g20
sg21
g5698
sg22
Nsg23
g9
sg24
g25
((lp5703
g243
atp5704
Rp5705
sg30
VWestern Australian Landfill Services
p5706
sg32
I2012
sg33
g2
(g34
g4
Ntp5707
Rp5708
(dp5709
g38
F-32.266436158999966
sg39
g20
sg40
F116.01931443900003
sbsbsVAUS0000385
p5710
g2
(g3
g4
Ntp5711
Rp5712
(dp5713
g8
g9
sg10
F0.4
sg11
VYalgoo
p5714
sg13
Nsg14
g15
sg16
g17
sg18
Nsg19
g20
sg21
g5710
sg22
Nsg23
g9
sg24
g25
((lp5715
g206
atp5716
Rp5717
sg30
VEnergy Developments
p5718
sg32
I2012
sg33
g2
(g34
g4
Ntp5719
Rp5720
(dp5721
g38
F-28.337536633999946
sg39
g20
sg40
F116.68349161800006
sbsbsVAUS0000358
p5722
g2
(g3
g4
Ntp5723
Rp5724
(dp5725
g8
g9
sg10
F2.1
sg11
VRockingham
p5726
sg13
Nsg14
g15
sg16
g17
sg18
Nsg19
g20
sg21
g5722
sg22
Nsg23
g9
sg24
g25
((lp5727
g243
atp5728
Rp5729
sg30
VAGL Energy Pty Ltd
p5730
sg32
I2012
sg33
g2
(g34
g4
Ntp5731
Rp5732
(dp5733
g38
F-32.28632251299996
sg39
g20
sg40
F115.81538889600006
sbsbs.