(dp0
VYEM0000039
p1
ccopy_reg
_reconstructor
p2
(cpowerplant_database
PowerPlant
p3
c__builtin__
object
p4
Ntp5
Rp6
(dp7
S'coord_source'
p8
V
p9
sS'capacity'
p10
F12.4
sS'name'
p11
VSyaon2
p12
sS'commissioning_year'
p13
NsS'url'
p14
g9
sS'country'
p15
VYemen
p16
sS'generation'
p17
NsS'nat_lang'
p18
g9
sS'idnr'
p19
g1
sS'estimated_generation_gwh'
p20
NsS'source'
p21
Vhttp://www.auptde.org/Article_Files/Manual%20Of%20Power%20Stations2016.xls
p22
sS'fuel'
p23
c__builtin__
set
p24
((lp25
VOil
p26
atp27
Rp28
sS'owner'
p29
g9
sS'cap_year'
p30
NsS'location'
p31
g2
(cpowerplant_database
LocationObject
p32
g4
Ntp33
Rp34
(dp35
S'latitude'
p36
F0.0
sS'description'
p37
g9
sS'longitude'
p38
F0.0
sbsbsVYEM0000033
p39
g2
(g3
g4
Ntp40
Rp41
(dp42
g8
g9
sg10
F5.2
sg11
VShehr
p43
sg13
Nsg14
g9
sg15
VYemen
p44
sg17
Nsg18
g9
sg19
g39
sg20
Nsg21
Vhttp://www.auptde.org/Article_Files/Manual%20Of%20Power%20Stations2016.xls
p45
sg23
g24
((lp46
g26
atp47
Rp48
sg29
g9
sg30
Nsg31
g2
(g32
g4
Ntp49
Rp50
(dp51
g36
F0.0
sg37
g9
sg38
F0.0
sbsbsVYEM0000007
p52
g2
(g3
g4
Ntp53
Rp54
(dp55
g8
g9
sg10
F7.5
sg11
VTaiz
p56
sg13
Nsg14
g9
sg15
VYemen
p57
sg17
Nsg18
g9
sg19
g52
sg20
Nsg21
Vhttp://www.auptde.org/Article_Files/Manual%20Of%20Power%20Stations2016.xls
p58
sg23
g24
((lp59
g26
atp60
Rp61
sg29
g9
sg30
Nsg31
g2
(g32
g4
Ntp62
Rp63
(dp64
g36
F0.0
sg37
g9
sg38
F0.0
sbsbsVYEM0000011
p65
g2
(g3
g4
Ntp66
Rp67
(dp68
g8
g9
sg10
F9.0
sg11
VAl Hali
p69
sg13
Nsg14
g9
sg15
VYemen
p70
sg17
Nsg18
g9
sg19
g65
sg20
Nsg21
Vhttp://www.auptde.org/Article_Files/Manual%20Of%20Power%20Stations2016.xls
p71
sg23
g24
((lp72
g26
atp73
Rp74
sg29
g9
sg30
Nsg31
g2
(g32
g4
Ntp75
Rp76
(dp77
g36
F0.0
sg37
g9
sg38
F0.0
sbsbsVYEM0000004
p78
g2
(g3
g4
Ntp79
Rp80
(dp81
g8
g9
sg10
F10.0
sg11
VHizeaz ( 3 )
p82
sg13
Nsg14
g9
sg15
VYemen
p83
sg17
Nsg18
g9
sg19
g78
sg20
Nsg21
Vhttp://www.auptde.org/Article_Files/Manual%20Of%20Power%20Stations2016.xls
p84
sg23
g24
((lp85
g26
atp86
Rp87
sg29
g9
sg30
Nsg31
g2
(g32
g4
Ntp88
Rp89
(dp90
g36
F0.0
sg37
g9
sg38
F0.0
sbsbsVYEM0000014
p91
g2
(g3
g4
Ntp92
Rp93
(dp94
g8
g9
sg10
F2.0
sg11
VAl kornish
p95
sg13
Nsg14
g9
sg15
VYemen
p96
sg17
Nsg18
g9
sg19
g91
sg20
Nsg21
Vhttp://www.auptde.org/Article_Files/Manual%20Of%20Power%20Stations2016.xls
p97
sg23
g24
((lp98
g26
atp99
Rp100
sg29
g9
sg30
Nsg31
g2
(g32
g4
Ntp101
Rp102
(dp103
g36
F0.0
sg37
g9
sg38
F0.0
sbsbsVYEM0000017
p104
g2
(g3
g4
Ntp105
Rp106
(dp107
g8
g9
sg10
F11.0
sg11
VSana'a
p108
sg13
Nsg14
g9
sg15
VYemen
p109
sg17
Nsg18
g9
sg19
g104
sg20
Nsg21
Vhttp://www.auptde.org/Article_Files/Manual%20Of%20Power%20Stations2016.xls
p110
sg23
g24
((lp111
g26
atp112
Rp113
sg29
g9
sg30
Nsg31
g2
(g32
g4
Ntp114
Rp115
(dp116
g36
F0.0
sg37
g9
sg38
F0.0
sbsbsVYEM0000036
p117
g2
(g3
g4
Ntp118
Rp119
(dp120
g8
g9
sg10
F13.0
sg11
VSyaon1
p121
sg13
Nsg14
g9
sg15
VYemen
p122
sg17
Nsg18
g9
sg19
g117
sg20
Nsg21
Vhttp://www.auptde.org/Article_Files/Manual%20Of%20Power%20Stations2016.xls
p123
sg23
g24
((lp124
g26
atp125
Rp126
sg29
g9
sg30
Nsg31
g2
(g32
g4
Ntp127
Rp128
(dp129
g36
F0.0
sg37
g9
sg38
F0.0
sbsbsVYEM0000024
p130
g2
(g3
g4
Ntp131
Rp132
(dp133
g8
g9
sg10
F10.0
sg11
VRyan
p134
sg13
Nsg14
g9
sg15
VYemen
p135
sg17
Nsg18
g9
sg19
g130
sg20
Nsg21
Vhttp://www.auptde.org/Article_Files/Manual%20Of%20Power%20Stations2016.xls
p136
sg23
g24
((lp137
g26
atp138
Rp139
sg29
g9
sg30
Nsg31
g2
(g32
g4
Ntp140
Rp141
(dp142
g36
F0.0
sg37
g9
sg38
F0.0
sbsbsVYEM0000027
p143
g2
(g3
g4
Ntp144
Rp145
(dp146
g8
g9
sg10
F6.4
sg11
VKHULF
p147
sg13
Nsg14
g9
sg15
VYemen
p148
sg17
Nsg18
g9
sg19
g143
sg20
Nsg21
Vhttp://www.auptde.org/Article_Files/Manual%20Of%20Power%20Stations2016.xls
p149
sg23
g24
((lp150
g26
atp151
Rp152
sg29
g9
sg30
Nsg31
g2
(g32
g4
Ntp153
Rp154
(dp155
g36
F0.0
sg37
g9
sg38
F0.0
sbsbsVYEM0000020
p156
g2
(g3
g4
Ntp157
Rp158
(dp159
g8
g9
sg10
F6.2
sg11
VJear
p160
sg13
Nsg14
g9
sg15
VYemen
p161
sg17
Nsg18
g9
sg19
g156
sg20
Nsg21
Vhttp://www.auptde.org/Article_Files/Manual%20Of%20Power%20Stations2016.xls
p162
sg23
g24
((lp163
g26
atp164
Rp165
sg29
g9
sg30
Nsg31
g2
(g32
g4
Ntp166
Rp167
(dp168
g36
F0.0
sg37
g9
sg38
F0.0
sbsbsVYEM0000030
p169
g2
(g3
g4
Ntp170
Rp171
(dp172
g8
g9
sg10
F6.0
sg11
VMonawrh
p173
sg13
Nsg14
g9
sg15
VYemen
p174
sg17
Nsg18
g9
sg19
g169
sg20
Nsg21
Vhttp://www.auptde.org/Article_Files/Manual%20Of%20Power%20Stations2016.xls
p175
sg23
g24
((lp176
g26
atp177
Rp178
sg29
g9
sg30
Nsg31
g2
(g32
g4
Ntp179
Rp180
(dp181
g36
F0.0
sg37
g9
sg38
F0.0
sbsbs.